
clockgen.elf:     file format elf32-littlearm

Sections:
Idx Name          Size      VMA       LMA       File off  Algn
  0 .isr_vector   000001c4  08000000  08000000  00010000  2**0
                  CONTENTS, ALLOC, LOAD, READONLY, DATA
  1 .text         0000c624  080001d0  080001d0  000101d0  2**4
                  CONTENTS, ALLOC, LOAD, READONLY, CODE
  2 .rodata       00000130  0800c7f4  0800c7f4  0001c7f4  2**2
                  CONTENTS, ALLOC, LOAD, READONLY, DATA
  3 .ARM.extab    00000000  0800c924  0800c924  00020070  2**0
                  CONTENTS
  4 .ARM          00000008  0800c924  0800c924  0001c924  2**2
                  CONTENTS, ALLOC, LOAD, READONLY, DATA
  5 .preinit_array 00000000  0800c92c  0800c92c  00020070  2**0
                  CONTENTS, ALLOC, LOAD, DATA
  6 .init_array   00000004  0800c92c  0800c92c  0001c92c  2**2
                  CONTENTS, ALLOC, LOAD, DATA
  7 .fini_array   00000004  0800c930  0800c930  0001c930  2**2
                  CONTENTS, ALLOC, LOAD, DATA
  8 .data         00000070  20000000  0800c934  00020000  2**2
                  CONTENTS, ALLOC, LOAD, DATA
  9 .bss          00004bbc  20000070  0800c9a4  00020070  2**2
                  ALLOC
 10 ._user_heap_stack 00000604  20004c2c  0800c9a4  00024c2c  2**0
                  ALLOC
 11 .ARM.attributes 00000030  00000000  00000000  00020070  2**0
                  CONTENTS, READONLY
 12 .comment      00000053  00000000  00000000  000200a0  2**0
                  CONTENTS, READONLY
 13 .debug_frame  00000484  00000000  00000000  000200f4  2**2
                  CONTENTS, READONLY, DEBUGGING, OCTETS

Disassembly of section .text:

080001d0 <__do_global_dtors_aux>:
 80001d0:	b510      	push	{r4, lr}
 80001d2:	4c05      	ldr	r4, [pc, #20]	; (80001e8 <__do_global_dtors_aux+0x18>)
 80001d4:	7823      	ldrb	r3, [r4, #0]
 80001d6:	b933      	cbnz	r3, 80001e6 <__do_global_dtors_aux+0x16>
 80001d8:	4b04      	ldr	r3, [pc, #16]	; (80001ec <__do_global_dtors_aux+0x1c>)
 80001da:	b113      	cbz	r3, 80001e2 <__do_global_dtors_aux+0x12>
 80001dc:	4804      	ldr	r0, [pc, #16]	; (80001f0 <__do_global_dtors_aux+0x20>)
 80001de:	f3af 8000 	nop.w
 80001e2:	2301      	movs	r3, #1
 80001e4:	7023      	strb	r3, [r4, #0]
 80001e6:	bd10      	pop	{r4, pc}
 80001e8:	20000070 	.word	0x20000070
 80001ec:	00000000 	.word	0x00000000
 80001f0:	0800c7dc 	.word	0x0800c7dc

080001f4 <frame_dummy>:
 80001f4:	b508      	push	{r3, lr}
 80001f6:	4b03      	ldr	r3, [pc, #12]	; (8000204 <frame_dummy+0x10>)
 80001f8:	b11b      	cbz	r3, 8000202 <frame_dummy+0xe>
 80001fa:	4903      	ldr	r1, [pc, #12]	; (8000208 <frame_dummy+0x14>)
 80001fc:	4803      	ldr	r0, [pc, #12]	; (800020c <frame_dummy+0x18>)
 80001fe:	f3af 8000 	nop.w
 8000202:	bd08      	pop	{r3, pc}
 8000204:	00000000 	.word	0x00000000
 8000208:	20000074 	.word	0x20000074
 800020c:	0800c7dc 	.word	0x0800c7dc

08000210 <SystemClock_Config>:
 8000210:	b5f0      	push	{r4, r5, r6, r7, lr}
 8000212:	2300      	movs	r3, #0
 8000214:	b097      	sub	sp, #92	; 0x5c
 8000216:	e9cd 330a 	strd	r3, r3, [sp, #40]	; 0x28
 800021a:	e9cd 330c 	strd	r3, r3, [sp, #48]	; 0x30
 800021e:	e9cd 3303 	strd	r3, r3, [sp, #12]
 8000222:	e9cd 3305 	strd	r3, r3, [sp, #20]
 8000226:	f44f 5260 	mov.w	r2, #14336	; 0x3800
 800022a:	f2c4 0202 	movt	r2, #16386	; 0x4002
 800022e:	9300      	str	r3, [sp, #0]
 8000230:	9302      	str	r3, [sp, #8]
 8000232:	6c11      	ldr	r1, [r2, #64]	; 0x40
 8000234:	f041 5180 	orr.w	r1, r1, #268435456	; 0x10000000
 8000238:	6411      	str	r1, [r2, #64]	; 0x40
 800023a:	6c11      	ldr	r1, [r2, #64]	; 0x40
 800023c:	f44f 42e0 	mov.w	r2, #28672	; 0x7000
 8000240:	f001 5180 	and.w	r1, r1, #268435456	; 0x10000000
 8000244:	9100      	str	r1, [sp, #0]
 8000246:	f2c4 0200 	movt	r2, #16384	; 0x4000
 800024a:	9900      	ldr	r1, [sp, #0]
 800024c:	9301      	str	r3, [sp, #4]
 800024e:	6813      	ldr	r3, [r2, #0]
 8000250:	f443 4340 	orr.w	r3, r3, #49152	; 0xc000
 8000254:	6013      	str	r3, [r2, #0]
 8000256:	6813      	ldr	r3, [r2, #0]
 8000258:	f403 4340 	and.w	r3, r3, #49152	; 0xc000
 800025c:	9301      	str	r3, [sp, #4]
 800025e:	2401      	movs	r4, #1
 8000260:	f44f 3580 	mov.w	r5, #65536	; 0x10000
 8000264:	2202      	movs	r2, #2
 8000266:	f44f 0380 	mov.w	r3, #4194304	; 0x400000
 800026a:	e9cd 4508 	strd	r4, r5, [sp, #32]
 800026e:	e9cd 230e 	strd	r2, r3, [sp, #56]	; 0x38
 8000272:	9801      	ldr	r0, [sp, #4]
 8000274:	2102      	movs	r1, #2
 8000276:	2408      	movs	r4, #8
 8000278:	f44f 75a0 	mov.w	r5, #320	; 0x140
 800027c:	2202      	movs	r2, #2
 800027e:	2302      	movs	r3, #2
 8000280:	a808      	add	r0, sp, #32
 8000282:	e9cd 4510 	strd	r4, r5, [sp, #64]	; 0x40
 8000286:	e9cd 2312 	strd	r2, r3, [sp, #72]	; 0x48
 800028a:	9114      	str	r1, [sp, #80]	; 0x50
 800028c:	f003 fa44 	bl	8003718 <HAL_RCC_OscConfig>
 8000290:	b108      	cbz	r0, 8000296 <SystemClock_Config+0x86>
 8000292:	b672      	cpsid	i
 8000294:	e7fe      	b.n	8000294 <SystemClock_Config+0x84>
 8000296:	260f      	movs	r6, #15
 8000298:	2702      	movs	r7, #2
 800029a:	2400      	movs	r4, #0
 800029c:	f44f 55a0 	mov.w	r5, #5120	; 0x1400
 80002a0:	f44f 53a0 	mov.w	r3, #5120	; 0x1400
 80002a4:	a802      	add	r0, sp, #8
 80002a6:	2105      	movs	r1, #5
 80002a8:	e9cd 6702 	strd	r6, r7, [sp, #8]
 80002ac:	e9cd 4504 	strd	r4, r5, [sp, #16]
 80002b0:	9306      	str	r3, [sp, #24]
 80002b2:	f002 fa93 	bl	80027dc <HAL_RCC_ClockConfig>
 80002b6:	b108      	cbz	r0, 80002bc <SystemClock_Config+0xac>
 80002b8:	b672      	cpsid	i
 80002ba:	e7fe      	b.n	80002ba <SystemClock_Config+0xaa>
 80002bc:	b017      	add	sp, #92	; 0x5c
 80002be:	bdf0      	pop	{r4, r5, r6, r7, pc}

080002c0 <Error_Handler>:
 80002c0:	b672      	cpsid	i
 80002c2:	e7fe      	b.n	80002c2 <Error_Handler+0x2>

080002c4 <HAL_MspInit>:
 80002c4:	b082      	sub	sp, #8
 80002c6:	f44f 5360 	mov.w	r3, #14336	; 0x3800
 80002ca:	f2c4 0302 	movt	r3, #16386	; 0x4002
 80002ce:	2100      	movs	r1, #0
 80002d0:	9100      	str	r1, [sp, #0]
 80002d2:	6c5a      	ldr	r2, [r3, #68]	; 0x44
 80002d4:	f442 4280 	orr.w	r2, r2, #16384	; 0x4000
 80002d8:	645a      	str	r2, [r3, #68]	; 0x44
 80002da:	6c5a      	ldr	r2, [r3, #68]	; 0x44
 80002dc:	f402 4280 	and.w	r2, r2, #16384	; 0x4000
 80002e0:	9200      	str	r2, [sp, #0]
 80002e2:	9a00      	ldr	r2, [sp, #0]
 80002e4:	9101      	str	r1, [sp, #4]
 80002e6:	6c1a      	ldr	r2, [r3, #64]	; 0x40
 80002e8:	f042 5280 	orr.w	r2, r2, #268435456	; 0x10000000
 80002ec:	641a      	str	r2, [r3, #64]	; 0x40
 80002ee:	6c1b      	ldr	r3, [r3, #64]	; 0x40
 80002f0:	f003 5380 	and.w	r3, r3, #268435456	; 0x10000000
 80002f4:	9301      	str	r3, [sp, #4]
 80002f6:	9b01      	ldr	r3, [sp, #4]
 80002f8:	2007      	movs	r0, #7
 80002fa:	b002      	add	sp, #8
 80002fc:	f000 bfba 	b.w	8001274 <HAL_NVIC_SetPriorityGrouping>

08000300 <HAL_CRC_MspInit>:
 8000300:	6802      	ldr	r2, [r0, #0]
 8000302:	f44f 5340 	mov.w	r3, #12288	; 0x3000
 8000306:	f2c4 0302 	movt	r3, #16386	; 0x4002
 800030a:	429a      	cmp	r2, r3
 800030c:	d000      	beq.n	8000310 <HAL_CRC_MspInit+0x10>
 800030e:	4770      	bx	lr
 8000310:	b082      	sub	sp, #8
 8000312:	f44f 5360 	mov.w	r3, #14336	; 0x3800
 8000316:	f2c4 0302 	movt	r3, #16386	; 0x4002
 800031a:	2200      	movs	r2, #0
 800031c:	9201      	str	r2, [sp, #4]
 800031e:	6b1a      	ldr	r2, [r3, #48]	; 0x30
 8000320:	f442 5280 	orr.w	r2, r2, #4096	; 0x1000
 8000324:	631a      	str	r2, [r3, #48]	; 0x30
 8000326:	6b1b      	ldr	r3, [r3, #48]	; 0x30
 8000328:	f403 5380 	and.w	r3, r3, #4096	; 0x1000
 800032c:	9301      	str	r3, [sp, #4]
 800032e:	9b01      	ldr	r3, [sp, #4]
 8000330:	b002      	add	sp, #8
 8000332:	4770      	bx	lr

08000334 <HAL_CRC_MspDeInit>:
 8000334:	6802      	ldr	r2, [r0, #0]
 8000336:	f44f 5340 	mov.w	r3, #12288	; 0x3000
 800033a:	f2c4 0302 	movt	r3, #16386	; 0x4002
 800033e:	429a      	cmp	r2, r3
 8000340:	d000      	beq.n	8000344 <HAL_CRC_MspDeInit+0x10>
 8000342:	4770      	bx	lr
 8000344:	f44f 5360 	mov.w	r3, #14336	; 0x3800
 8000348:	f2c4 0302 	movt	r3, #16386	; 0x4002
 800034c:	6b1a      	ldr	r2, [r3, #48]	; 0x30
 800034e:	f422 5280 	bic.w	r2, r2, #4096	; 0x1000
 8000352:	631a      	str	r2, [r3, #48]	; 0x30
 8000354:	4770      	bx	lr
 8000356:	bf00      	nop

08000358 <HAL_TIM_Base_MspInit>:
 8000358:	b500      	push	{lr}
 800035a:	6803      	ldr	r3, [r0, #0]
 800035c:	2200      	movs	r2, #0
 800035e:	f2c4 0201 	movt	r2, #16385	; 0x4001
 8000362:	4293      	cmp	r3, r2
 8000364:	b08d      	sub	sp, #52	; 0x34
 8000366:	d05f      	beq.n	8000428 <HAL_TIM_Base_MspInit+0xd0>
 8000368:	f1b3 4f80 	cmp.w	r3, #1073741824	; 0x40000000
 800036c:	d04a      	beq.n	8000404 <HAL_TIM_Base_MspInit+0xac>
 800036e:	f44f 6280 	mov.w	r2, #1024	; 0x400
 8000372:	f2c4 0200 	movt	r2, #16384	; 0x4000
 8000376:	4293      	cmp	r3, r2
 8000378:	d078      	beq.n	800046c <HAL_TIM_Base_MspInit+0x114>
 800037a:	f44f 6200 	mov.w	r2, #2048	; 0x800
 800037e:	f2c4 0200 	movt	r2, #16384	; 0x4000
 8000382:	4293      	cmp	r3, r2
 8000384:	f000 8084 	beq.w	8000490 <HAL_TIM_Base_MspInit+0x138>
 8000388:	f44f 6240 	mov.w	r2, #3072	; 0xc00
 800038c:	f2c4 0200 	movt	r2, #16384	; 0x4000
 8000390:	4293      	cmp	r3, r2
 8000392:	d05b      	beq.n	800044c <HAL_TIM_Base_MspInit+0xf4>
 8000394:	f44f 5280 	mov.w	r2, #4096	; 0x1000
 8000398:	f2c4 0200 	movt	r2, #16384	; 0x4000
 800039c:	4293      	cmp	r3, r2
 800039e:	f000 80a9 	beq.w	80004f4 <HAL_TIM_Base_MspInit+0x19c>
 80003a2:	f44f 6280 	mov.w	r2, #1024	; 0x400
 80003a6:	f2c4 0201 	movt	r2, #16385	; 0x4001
 80003aa:	4293      	cmp	r3, r2
 80003ac:	f000 8092 	beq.w	80004d4 <HAL_TIM_Base_MspInit+0x17c>
 80003b0:	f44f 4288 	mov.w	r2, #17408	; 0x4400
 80003b4:	f2c4 0201 	movt	r2, #16385	; 0x4001
 80003b8:	4293      	cmp	r3, r2
 80003ba:	f000 80b4 	beq.w	8000526 <HAL_TIM_Base_MspInit+0x1ce>
 80003be:	f44f 4290 	mov.w	r2, #18432	; 0x4800
 80003c2:	f2c4 0201 	movt	r2, #16385	; 0x4001
 80003c6:	4293      	cmp	r3, r2
 80003c8:	d074      	beq.n	80004b4 <HAL_TIM_Base_MspInit+0x15c>
 80003ca:	f44f 52e0 	mov.w	r2, #7168	; 0x1c00
 80003ce:	f2c4 0200 	movt	r2, #16384	; 0x4000
 80003d2:	4293      	cmp	r3, r2
 80003d4:	f000 80b7 	beq.w	8000546 <HAL_TIM_Base_MspInit+0x1ee>
 80003d8:	f44f 5200 	mov.w	r2, #8192	; 0x2000
 80003dc:	f2c4 0200 	movt	r2, #16384	; 0x4000
 80003e0:	4293      	cmp	r3, r2
 80003e2:	d11e      	bne.n	8000422 <HAL_TIM_Base_MspInit+0xca>
 80003e4:	f44f 5360 	mov.w	r3, #14336	; 0x3800
 80003e8:	f2c4 0302 	movt	r3, #16386	; 0x4002
 80003ec:	2200      	movs	r2, #0
 80003ee:	920b      	str	r2, [sp, #44]	; 0x2c
 80003f0:	6c1a      	ldr	r2, [r3, #64]	; 0x40
 80003f2:	f442 7280 	orr.w	r2, r2, #256	; 0x100
 80003f6:	641a      	str	r2, [r3, #64]	; 0x40
 80003f8:	6c1b      	ldr	r3, [r3, #64]	; 0x40
 80003fa:	f403 7380 	and.w	r3, r3, #256	; 0x100
 80003fe:	930b      	str	r3, [sp, #44]	; 0x2c
 8000400:	9b0b      	ldr	r3, [sp, #44]	; 0x2c
 8000402:	e00e      	b.n	8000422 <HAL_TIM_Base_MspInit+0xca>
 8000404:	f44f 5360 	mov.w	r3, #14336	; 0x3800
 8000408:	f2c4 0302 	movt	r3, #16386	; 0x4002
 800040c:	2200      	movs	r2, #0
 800040e:	9202      	str	r2, [sp, #8]
 8000410:	6c1a      	ldr	r2, [r3, #64]	; 0x40
 8000412:	f042 0201 	orr.w	r2, r2, #1
 8000416:	641a      	str	r2, [r3, #64]	; 0x40
 8000418:	6c1b      	ldr	r3, [r3, #64]	; 0x40
 800041a:	f003 0301 	and.w	r3, r3, #1
 800041e:	9302      	str	r3, [sp, #8]
 8000420:	9b02      	ldr	r3, [sp, #8]
 8000422:	b00d      	add	sp, #52	; 0x34
 8000424:	f85d fb04 	ldr.w	pc, [sp], #4
 8000428:	f44f 5360 	mov.w	r3, #14336	; 0x3800
 800042c:	f2c4 0302 	movt	r3, #16386	; 0x4002
 8000430:	2200      	movs	r2, #0
 8000432:	9201      	str	r2, [sp, #4]
 8000434:	6c5a      	ldr	r2, [r3, #68]	; 0x44
 8000436:	f042 0201 	orr.w	r2, r2, #1
 800043a:	645a      	str	r2, [r3, #68]	; 0x44
 800043c:	6c5b      	ldr	r3, [r3, #68]	; 0x44
 800043e:	f003 0301 	and.w	r3, r3, #1
 8000442:	9301      	str	r3, [sp, #4]
 8000444:	9b01      	ldr	r3, [sp, #4]
 8000446:	b00d      	add	sp, #52	; 0x34
 8000448:	f85d fb04 	ldr.w	pc, [sp], #4
 800044c:	f44f 5360 	mov.w	r3, #14336	; 0x3800
 8000450:	f2c4 0302 	movt	r3, #16386	; 0x4002
 8000454:	2200      	movs	r2, #0
 8000456:	9205      	str	r2, [sp, #20]
 8000458:	6c1a      	ldr	r2, [r3, #64]	; 0x40
 800045a:	f042 0208 	orr.w	r2, r2, #8
 800045e:	641a      	str	r2, [r3, #64]	; 0x40
 8000460:	6c1b      	ldr	r3, [r3, #64]	; 0x40
 8000462:	f003 0308 	and.w	r3, r3, #8
 8000466:	9305      	str	r3, [sp, #20]
 8000468:	9b05      	ldr	r3, [sp, #20]
 800046a:	e7da      	b.n	8000422 <HAL_TIM_Base_MspInit+0xca>
 800046c:	f44f 5360 	mov.w	r3, #14336	; 0x3800
 8000470:	f2c4 0302 	movt	r3, #16386	; 0x4002
 8000474:	2200      	movs	r2, #0
 8000476:	9203      	str	r2, [sp, #12]
 8000478:	6c1a      	ldr	r2, [r3, #64]	; 0x40
 800047a:	f042 0202 	orr.w	r2, r2, #2
 800047e:	641a      	str	r2, [r3, #64]	; 0x40
 8000480:	6c1b      	ldr	r3, [r3, #64]	; 0x40
 8000482:	f003 0302 	and.w	r3, r3, #2
 8000486:	9303      	str	r3, [sp, #12]
 8000488:	9b03      	ldr	r3, [sp, #12]
 800048a:	b00d      	add	sp, #52	; 0x34
 800048c:	f85d fb04 	ldr.w	pc, [sp], #4
 8000490:	f44f 5360 	mov.w	r3, #14336	; 0x3800
 8000494:	f2c4 0302 	movt	r3, #16386	; 0x4002
 8000498:	2200      	movs	r2, #0
 800049a:	9204      	str	r2, [sp, #16]
 800049c:	6c1a      	ldr	r2, [r3, #64]	; 0x40
 800049e:	f042 0204 	orr.w	r2, r2, #4
 80004a2:	641a      	str	r2, [r3, #64]	; 0x40
 80004a4:	6c1b      	ldr	r3, [r3, #64]	; 0x40
 80004a6:	f003 0304 	and.w	r3, r3, #4
 80004aa:	9304      	str	r3, [sp, #16]
 80004ac:	9b04      	ldr	r3, [sp, #16]
 80004ae:	b00d      	add	sp, #52	; 0x34
 80004b0:	f85d fb04 	ldr.w	pc, [sp], #4
 80004b4:	f44f 5360 	mov.w	r3, #14336	; 0x3800
 80004b8:	f2c4 0302 	movt	r3, #16386	; 0x4002
 80004bc:	2200      	movs	r2, #0
 80004be:	9209      	str	r2, [sp, #36]	; 0x24
 80004c0:	6c5a      	ldr	r2, [r3, #68]	; 0x44
 80004c2:	f442 2280 	orr.w	r2, r2, #262144	; 0x40000
 80004c6:	645a      	str	r2, [r3, #68]	; 0x44
 80004c8:	6c5b      	ldr	r3, [r3, #68]	; 0x44
 80004ca:	f403 2380 	and.w	r3, r3, #262144	; 0x40000
 80004ce:	9309      	str	r3, [sp, #36]	; 0x24
 80004d0:	9b09      	ldr	r3, [sp, #36]	; 0x24
 80004d2:	e7a6      	b.n	8000422 <HAL_TIM_Base_MspInit+0xca>
 80004d4:	f44f 5360 	mov.w	r3, #14336	; 0x3800
 80004d8:	f2c4 0302 	movt	r3, #16386	; 0x4002
 80004dc:	2200      	movs	r2, #0
 80004de:	9207      	str	r2, [sp, #28]
 80004e0:	6c5a      	ldr	r2, [r3, #68]	; 0x44
 80004e2:	f042 0202 	orr.w	r2, r2, #2
 80004e6:	645a      	str	r2, [r3, #68]	; 0x44
 80004e8:	6c5b      	ldr	r3, [r3, #68]	; 0x44
 80004ea:	f003 0302 	and.w	r3, r3, #2
 80004ee:	9307      	str	r3, [sp, #28]
 80004f0:	9b07      	ldr	r3, [sp, #28]
 80004f2:	e796      	b.n	8000422 <HAL_TIM_Base_MspInit+0xca>
 80004f4:	f44f 5360 	mov.w	r3, #14336	; 0x3800
 80004f8:	2200      	movs	r2, #0
 80004fa:	f2c4 0302 	movt	r3, #16386	; 0x4002
 80004fe:	9206      	str	r2, [sp, #24]
 8000500:	6c19      	ldr	r1, [r3, #64]	; 0x40
 8000502:	f041 0110 	orr.w	r1, r1, #16
 8000506:	6419      	str	r1, [r3, #64]	; 0x40
 8000508:	6c1b      	ldr	r3, [r3, #64]	; 0x40
 800050a:	f003 0310 	and.w	r3, r3, #16
 800050e:	9306      	str	r3, [sp, #24]
 8000510:	4611      	mov	r1, r2
 8000512:	2036      	movs	r0, #54	; 0x36
 8000514:	9b06      	ldr	r3, [sp, #24]
 8000516:	f000 fec3 	bl	80012a0 <HAL_NVIC_SetPriority>
 800051a:	2036      	movs	r0, #54	; 0x36
 800051c:	b00d      	add	sp, #52	; 0x34
 800051e:	f85d eb04 	ldr.w	lr, [sp], #4
 8000522:	f000 bef7 	b.w	8001314 <HAL_NVIC_EnableIRQ>
 8000526:	f44f 5360 	mov.w	r3, #14336	; 0x3800
 800052a:	f2c4 0302 	movt	r3, #16386	; 0x4002
 800052e:	2200      	movs	r2, #0
 8000530:	9208      	str	r2, [sp, #32]
 8000532:	6c5a      	ldr	r2, [r3, #68]	; 0x44
 8000534:	f442 3200 	orr.w	r2, r2, #131072	; 0x20000
 8000538:	645a      	str	r2, [r3, #68]	; 0x44
 800053a:	6c5b      	ldr	r3, [r3, #68]	; 0x44
 800053c:	f403 3300 	and.w	r3, r3, #131072	; 0x20000
 8000540:	9308      	str	r3, [sp, #32]
 8000542:	9b08      	ldr	r3, [sp, #32]
 8000544:	e76d      	b.n	8000422 <HAL_TIM_Base_MspInit+0xca>
 8000546:	f44f 5360 	mov.w	r3, #14336	; 0x3800
 800054a:	f2c4 0302 	movt	r3, #16386	; 0x4002
 800054e:	2200      	movs	r2, #0
 8000550:	920a      	str	r2, [sp, #40]	; 0x28
 8000552:	6c1a      	ldr	r2, [r3, #64]	; 0x40
 8000554:	f042 0280 	orr.w	r2, r2, #128	; 0x80
 8000558:	641a      	str	r2, [r3, #64]	; 0x40
 800055a:	6c1b      	ldr	r3, [r3, #64]	; 0x40
 800055c:	f003 0380 	and.w	r3, r3, #128	; 0x80
 8000560:	930a      	str	r3, [sp, #40]	; 0x28
 8000562:	9b0a      	ldr	r3, [sp, #40]	; 0x28
 8000564:	e75d      	b.n	8000422 <HAL_TIM_Base_MspInit+0xca>
 8000566:	bf00      	nop

08000568 <HAL_TIM_MspPostInit>:
 8000568:	b530      	push	{r4, r5, lr}
 800056a:	2100      	movs	r1, #0
 800056c:	6802      	ldr	r2, [r0, #0]
 800056e:	460b      	mov	r3, r1
 8000570:	b091      	sub	sp, #68	; 0x44
 8000572:	f2c4 0101 	movt	r1, #16385	; 0x4001
 8000576:	428a      	cmp	r2, r1
 8000578:	e9cd 330a 	strd	r3, r3, [sp, #40]	; 0x28
 800057c:	e9cd 330c 	strd	r3, r3, [sp, #48]	; 0x30
 8000580:	930e      	str	r3, [sp, #56]	; 0x38
 8000582:	d05c      	beq.n	800063e <HAL_TIM_MspPostInit+0xd6>
 8000584:	f1b2 4f80 	cmp.w	r2, #1073741824	; 0x40000000
 8000588:	d070      	beq.n	800066c <HAL_TIM_MspPostInit+0x104>
 800058a:	f44f 6180 	mov.w	r1, #1024	; 0x400
 800058e:	f2c4 0100 	movt	r1, #16384	; 0x4000
 8000592:	428a      	cmp	r2, r1
 8000594:	f000 8082 	beq.w	800069c <HAL_TIM_MspPostInit+0x134>
 8000598:	f44f 6100 	mov.w	r1, #2048	; 0x800
 800059c:	f2c4 0100 	movt	r1, #16384	; 0x4000
 80005a0:	428a      	cmp	r2, r1
 80005a2:	d02b      	beq.n	80005fc <HAL_TIM_MspPostInit+0x94>
 80005a4:	f44f 6140 	mov.w	r1, #3072	; 0xc00
 80005a8:	f2c4 0100 	movt	r1, #16384	; 0x4000
 80005ac:	428a      	cmp	r2, r1
 80005ae:	f000 808c 	beq.w	80006ca <HAL_TIM_MspPostInit+0x162>
 80005b2:	f44f 6180 	mov.w	r1, #1024	; 0x400
 80005b6:	f2c4 0101 	movt	r1, #16385	; 0x4001
 80005ba:	428a      	cmp	r2, r1
 80005bc:	f000 809b 	beq.w	80006f6 <HAL_TIM_MspPostInit+0x18e>
 80005c0:	f44f 4188 	mov.w	r1, #17408	; 0x4400
 80005c4:	f2c4 0101 	movt	r1, #16385	; 0x4001
 80005c8:	428a      	cmp	r2, r1
 80005ca:	f000 80ab 	beq.w	8000724 <HAL_TIM_MspPostInit+0x1bc>
 80005ce:	f44f 4190 	mov.w	r1, #18432	; 0x4800
 80005d2:	f2c4 0101 	movt	r1, #16385	; 0x4001
 80005d6:	428a      	cmp	r2, r1
 80005d8:	f000 80d2 	beq.w	8000780 <HAL_TIM_MspPostInit+0x218>
 80005dc:	f44f 51e0 	mov.w	r1, #7168	; 0x1c00
 80005e0:	f2c4 0100 	movt	r1, #16384	; 0x4000
 80005e4:	428a      	cmp	r2, r1
 80005e6:	f000 80b5 	beq.w	8000754 <HAL_TIM_MspPostInit+0x1ec>
 80005ea:	f44f 5300 	mov.w	r3, #8192	; 0x2000
 80005ee:	f2c4 0300 	movt	r3, #16384	; 0x4000
 80005f2:	429a      	cmp	r2, r3
 80005f4:	f000 80dc 	beq.w	80007b0 <HAL_TIM_MspPostInit+0x248>
 80005f8:	b011      	add	sp, #68	; 0x44
 80005fa:	bd30      	pop	{r4, r5, pc}
 80005fc:	f44f 5260 	mov.w	r2, #14336	; 0x3800
 8000600:	f2c4 0202 	movt	r2, #16386	; 0x4002
 8000604:	9303      	str	r3, [sp, #12]
 8000606:	6b13      	ldr	r3, [r2, #48]	; 0x30
 8000608:	f043 0302 	orr.w	r3, r3, #2
 800060c:	6313      	str	r3, [r2, #48]	; 0x30
 800060e:	6b13      	ldr	r3, [r2, #48]	; 0x30
 8000610:	f003 0302 	and.w	r3, r3, #2
 8000614:	9303      	str	r3, [sp, #12]
 8000616:	f44f 6080 	mov.w	r0, #1024	; 0x400
 800061a:	9a03      	ldr	r2, [sp, #12]
 800061c:	a90a      	add	r1, sp, #40	; 0x28
 800061e:	f2c4 0002 	movt	r0, #16386	; 0x4002
 8000622:	2440      	movs	r4, #64	; 0x40
 8000624:	2502      	movs	r5, #2
 8000626:	2302      	movs	r3, #2
 8000628:	930e      	str	r3, [sp, #56]	; 0x38
 800062a:	2200      	movs	r2, #0
 800062c:	2303      	movs	r3, #3
 800062e:	e9cd 450a 	strd	r4, r5, [sp, #40]	; 0x28
 8000632:	e9cd 230c 	strd	r2, r3, [sp, #48]	; 0x30
 8000636:	f001 fbdf 	bl	8001df8 <HAL_GPIO_Init>
 800063a:	b011      	add	sp, #68	; 0x44
 800063c:	bd30      	pop	{r4, r5, pc}
 800063e:	f44f 5260 	mov.w	r2, #14336	; 0x3800
 8000642:	f2c4 0202 	movt	r2, #16386	; 0x4002
 8000646:	9300      	str	r3, [sp, #0]
 8000648:	6b13      	ldr	r3, [r2, #48]	; 0x30
 800064a:	f043 0301 	orr.w	r3, r3, #1
 800064e:	6313      	str	r3, [r2, #48]	; 0x30
 8000650:	6b13      	ldr	r3, [r2, #48]	; 0x30
 8000652:	f003 0301 	and.w	r3, r3, #1
 8000656:	9300      	str	r3, [sp, #0]
 8000658:	2000      	movs	r0, #0
 800065a:	9a00      	ldr	r2, [sp, #0]
 800065c:	a90a      	add	r1, sp, #40	; 0x28
 800065e:	f2c4 0002 	movt	r0, #16386	; 0x4002
 8000662:	f44f 6480 	mov.w	r4, #1024	; 0x400
 8000666:	2502      	movs	r5, #2
 8000668:	2301      	movs	r3, #1
 800066a:	e7dd      	b.n	8000628 <HAL_TIM_MspPostInit+0xc0>
 800066c:	f44f 5260 	mov.w	r2, #14336	; 0x3800
 8000670:	f2c4 0202 	movt	r2, #16386	; 0x4002
 8000674:	9301      	str	r3, [sp, #4]
 8000676:	6b13      	ldr	r3, [r2, #48]	; 0x30
 8000678:	f043 0302 	orr.w	r3, r3, #2
 800067c:	6313      	str	r3, [r2, #48]	; 0x30
 800067e:	6b13      	ldr	r3, [r2, #48]	; 0x30
 8000680:	f003 0302 	and.w	r3, r3, #2
 8000684:	9301      	str	r3, [sp, #4]
 8000686:	f44f 6080 	mov.w	r0, #1024	; 0x400
 800068a:	9a01      	ldr	r2, [sp, #4]
 800068c:	a90a      	add	r1, sp, #40	; 0x28
 800068e:	f2c4 0002 	movt	r0, #16386	; 0x4002
 8000692:	f44f 6480 	mov.w	r4, #1024	; 0x400
 8000696:	2502      	movs	r5, #2
 8000698:	2301      	movs	r3, #1
 800069a:	e7c5      	b.n	8000628 <HAL_TIM_MspPostInit+0xc0>
 800069c:	f44f 5260 	mov.w	r2, #14336	; 0x3800
 80006a0:	f2c4 0202 	movt	r2, #16386	; 0x4002
 80006a4:	9302      	str	r3, [sp, #8]
 80006a6:	6b13      	ldr	r3, [r2, #48]	; 0x30
 80006a8:	f043 0302 	orr.w	r3, r3, #2
 80006ac:	6313      	str	r3, [r2, #48]	; 0x30
 80006ae:	6b13      	ldr	r3, [r2, #48]	; 0x30
 80006b0:	f003 0302 	and.w	r3, r3, #2
 80006b4:	9302      	str	r3, [sp, #8]
 80006b6:	f44f 6080 	mov.w	r0, #1024	; 0x400
 80006ba:	9a02      	ldr	r2, [sp, #8]
 80006bc:	a90a      	add	r1, sp, #40	; 0x28
 80006be:	f2c4 0002 	movt	r0, #16386	; 0x4002
 80006c2:	2420      	movs	r4, #32
 80006c4:	2502      	movs	r5, #2
 80006c6:	2302      	movs	r3, #2
 80006c8:	e7ae      	b.n	8000628 <HAL_TIM_MspPostInit+0xc0>
 80006ca:	f44f 5260 	mov.w	r2, #14336	; 0x3800
 80006ce:	f2c4 0202 	movt	r2, #16386	; 0x4002
 80006d2:	9304      	str	r3, [sp, #16]
 80006d4:	6b13      	ldr	r3, [r2, #48]	; 0x30
 80006d6:	f043 0301 	orr.w	r3, r3, #1
 80006da:	6313      	str	r3, [r2, #48]	; 0x30
 80006dc:	6b13      	ldr	r3, [r2, #48]	; 0x30
 80006de:	f003 0301 	and.w	r3, r3, #1
 80006e2:	9304      	str	r3, [sp, #16]
 80006e4:	2000      	movs	r0, #0
 80006e6:	9a04      	ldr	r2, [sp, #16]
 80006e8:	a90a      	add	r1, sp, #40	; 0x28
 80006ea:	f2c4 0002 	movt	r0, #16386	; 0x4002
 80006ee:	2401      	movs	r4, #1
 80006f0:	2502      	movs	r5, #2
 80006f2:	2302      	movs	r3, #2
 80006f4:	e798      	b.n	8000628 <HAL_TIM_MspPostInit+0xc0>
 80006f6:	f44f 5260 	mov.w	r2, #14336	; 0x3800
 80006fa:	f2c4 0202 	movt	r2, #16386	; 0x4002
 80006fe:	9305      	str	r3, [sp, #20]
 8000700:	6b13      	ldr	r3, [r2, #48]	; 0x30
 8000702:	f043 0304 	orr.w	r3, r3, #4
 8000706:	6313      	str	r3, [r2, #48]	; 0x30
 8000708:	6b13      	ldr	r3, [r2, #48]	; 0x30
 800070a:	f003 0304 	and.w	r3, r3, #4
 800070e:	9305      	str	r3, [sp, #20]
 8000710:	f44f 6000 	mov.w	r0, #2048	; 0x800
 8000714:	9a05      	ldr	r2, [sp, #20]
 8000716:	a90a      	add	r1, sp, #40	; 0x28
 8000718:	f2c4 0002 	movt	r0, #16386	; 0x4002
 800071c:	2480      	movs	r4, #128	; 0x80
 800071e:	2502      	movs	r5, #2
 8000720:	2303      	movs	r3, #3
 8000722:	e781      	b.n	8000628 <HAL_TIM_MspPostInit+0xc0>
 8000724:	f44f 5260 	mov.w	r2, #14336	; 0x3800
 8000728:	f2c4 0202 	movt	r2, #16386	; 0x4002
 800072c:	9306      	str	r3, [sp, #24]
 800072e:	6b13      	ldr	r3, [r2, #48]	; 0x30
 8000730:	f043 0302 	orr.w	r3, r3, #2
 8000734:	6313      	str	r3, [r2, #48]	; 0x30
 8000736:	6b13      	ldr	r3, [r2, #48]	; 0x30
 8000738:	f003 0302 	and.w	r3, r3, #2
 800073c:	9306      	str	r3, [sp, #24]
 800073e:	f44f 6080 	mov.w	r0, #1024	; 0x400
 8000742:	9a06      	ldr	r2, [sp, #24]
 8000744:	a90a      	add	r1, sp, #40	; 0x28
 8000746:	f2c4 0002 	movt	r0, #16386	; 0x4002
 800074a:	f44f 7480 	mov.w	r4, #256	; 0x100
 800074e:	2502      	movs	r5, #2
 8000750:	2303      	movs	r3, #3
 8000752:	e769      	b.n	8000628 <HAL_TIM_MspPostInit+0xc0>
 8000754:	f44f 5260 	mov.w	r2, #14336	; 0x3800
 8000758:	f2c4 0202 	movt	r2, #16386	; 0x4002
 800075c:	9308      	str	r3, [sp, #32]
 800075e:	6b13      	ldr	r3, [r2, #48]	; 0x30
 8000760:	f043 0301 	orr.w	r3, r3, #1
 8000764:	6313      	str	r3, [r2, #48]	; 0x30
 8000766:	6b13      	ldr	r3, [r2, #48]	; 0x30
 8000768:	f003 0301 	and.w	r3, r3, #1
 800076c:	9308      	str	r3, [sp, #32]
 800076e:	2000      	movs	r0, #0
 8000770:	9a08      	ldr	r2, [sp, #32]
 8000772:	a90a      	add	r1, sp, #40	; 0x28
 8000774:	f2c4 0002 	movt	r0, #16386	; 0x4002
 8000778:	2440      	movs	r4, #64	; 0x40
 800077a:	2502      	movs	r5, #2
 800077c:	2309      	movs	r3, #9
 800077e:	e753      	b.n	8000628 <HAL_TIM_MspPostInit+0xc0>
 8000780:	f44f 5260 	mov.w	r2, #14336	; 0x3800
 8000784:	f2c4 0202 	movt	r2, #16386	; 0x4002
 8000788:	9307      	str	r3, [sp, #28]
 800078a:	6b13      	ldr	r3, [r2, #48]	; 0x30
 800078c:	f043 0302 	orr.w	r3, r3, #2
 8000790:	6313      	str	r3, [r2, #48]	; 0x30
 8000792:	6b13      	ldr	r3, [r2, #48]	; 0x30
 8000794:	f003 0302 	and.w	r3, r3, #2
 8000798:	9307      	str	r3, [sp, #28]
 800079a:	f44f 6080 	mov.w	r0, #1024	; 0x400
 800079e:	9a07      	ldr	r2, [sp, #28]
 80007a0:	a90a      	add	r1, sp, #40	; 0x28
 80007a2:	f2c4 0002 	movt	r0, #16386	; 0x4002
 80007a6:	f44f 7400 	mov.w	r4, #512	; 0x200
 80007aa:	2502      	movs	r5, #2
 80007ac:	2303      	movs	r3, #3
 80007ae:	e73b      	b.n	8000628 <HAL_TIM_MspPostInit+0xc0>
 80007b0:	f44f 5360 	mov.w	r3, #14336	; 0x3800
 80007b4:	f2c4 0302 	movt	r3, #16386	; 0x4002
 80007b8:	2200      	movs	r2, #0
 80007ba:	9209      	str	r2, [sp, #36]	; 0x24
 80007bc:	6b1a      	ldr	r2, [r3, #48]	; 0x30
 80007be:	f042 0201 	orr.w	r2, r2, #1
 80007c2:	631a      	str	r2, [r3, #48]	; 0x30
 80007c4:	6b1b      	ldr	r3, [r3, #48]	; 0x30
 80007c6:	f003 0301 	and.w	r3, r3, #1
 80007ca:	9309      	str	r3, [sp, #36]	; 0x24
 80007cc:	2000      	movs	r0, #0
 80007ce:	9a09      	ldr	r2, [sp, #36]	; 0x24
 80007d0:	a90a      	add	r1, sp, #40	; 0x28
 80007d2:	f2c4 0002 	movt	r0, #16386	; 0x4002
 80007d6:	2480      	movs	r4, #128	; 0x80
 80007d8:	2502      	movs	r5, #2
 80007da:	2309      	movs	r3, #9
 80007dc:	e724      	b.n	8000628 <HAL_TIM_MspPostInit+0xc0>
 80007de:	bf00      	nop

080007e0 <HAL_TIM_Base_MspDeInit>:
 80007e0:	6803      	ldr	r3, [r0, #0]
 80007e2:	2200      	movs	r2, #0
 80007e4:	f2c4 0201 	movt	r2, #16385	; 0x4001
 80007e8:	4293      	cmp	r3, r2
 80007ea:	d042      	beq.n	8000872 <HAL_TIM_Base_MspDeInit+0x92>
 80007ec:	f1b3 4f80 	cmp.w	r3, #1073741824	; 0x40000000
 80007f0:	d036      	beq.n	8000860 <HAL_TIM_Base_MspDeInit+0x80>
 80007f2:	f44f 6280 	mov.w	r2, #1024	; 0x400
 80007f6:	f2c4 0200 	movt	r2, #16384	; 0x4000
 80007fa:	4293      	cmp	r3, r2
 80007fc:	d04b      	beq.n	8000896 <HAL_TIM_Base_MspDeInit+0xb6>
 80007fe:	f44f 6200 	mov.w	r2, #2048	; 0x800
 8000802:	f2c4 0200 	movt	r2, #16384	; 0x4000
 8000806:	4293      	cmp	r3, r2
 8000808:	d04e      	beq.n	80008a8 <HAL_TIM_Base_MspDeInit+0xc8>
 800080a:	f44f 6240 	mov.w	r2, #3072	; 0xc00
 800080e:	f2c4 0200 	movt	r2, #16384	; 0x4000
 8000812:	4293      	cmp	r3, r2
 8000814:	d036      	beq.n	8000884 <HAL_TIM_Base_MspDeInit+0xa4>
 8000816:	f44f 5280 	mov.w	r2, #4096	; 0x1000
 800081a:	f2c4 0200 	movt	r2, #16384	; 0x4000
 800081e:	4293      	cmp	r3, r2
 8000820:	d05d      	beq.n	80008de <HAL_TIM_Base_MspDeInit+0xfe>
 8000822:	f44f 6280 	mov.w	r2, #1024	; 0x400
 8000826:	f2c4 0201 	movt	r2, #16385	; 0x4001
 800082a:	4293      	cmp	r3, r2
 800082c:	d04e      	beq.n	80008cc <HAL_TIM_Base_MspDeInit+0xec>
 800082e:	f44f 4288 	mov.w	r2, #17408	; 0x4400
 8000832:	f2c4 0201 	movt	r2, #16385	; 0x4001
 8000836:	4293      	cmp	r3, r2
 8000838:	d05c      	beq.n	80008f4 <HAL_TIM_Base_MspDeInit+0x114>
 800083a:	f44f 4290 	mov.w	r2, #18432	; 0x4800
 800083e:	f2c4 0201 	movt	r2, #16385	; 0x4001
 8000842:	4293      	cmp	r3, r2
 8000844:	d039      	beq.n	80008ba <HAL_TIM_Base_MspDeInit+0xda>
 8000846:	f44f 52e0 	mov.w	r2, #7168	; 0x1c00
 800084a:	f2c4 0200 	movt	r2, #16384	; 0x4000
 800084e:	4293      	cmp	r3, r2
 8000850:	d059      	beq.n	8000906 <HAL_TIM_Base_MspDeInit+0x126>
 8000852:	f44f 5200 	mov.w	r2, #8192	; 0x2000
 8000856:	f2c4 0200 	movt	r2, #16384	; 0x4000
 800085a:	4293      	cmp	r3, r2
 800085c:	d05c      	beq.n	8000918 <HAL_TIM_Base_MspDeInit+0x138>
 800085e:	4770      	bx	lr
 8000860:	f44f 5360 	mov.w	r3, #14336	; 0x3800
 8000864:	f2c4 0302 	movt	r3, #16386	; 0x4002
 8000868:	6c1a      	ldr	r2, [r3, #64]	; 0x40
 800086a:	f022 0201 	bic.w	r2, r2, #1
 800086e:	641a      	str	r2, [r3, #64]	; 0x40
 8000870:	4770      	bx	lr
 8000872:	f44f 5360 	mov.w	r3, #14336	; 0x3800
 8000876:	f2c4 0302 	movt	r3, #16386	; 0x4002
 800087a:	6c5a      	ldr	r2, [r3, #68]	; 0x44
 800087c:	f022 0201 	bic.w	r2, r2, #1
 8000880:	645a      	str	r2, [r3, #68]	; 0x44
 8000882:	4770      	bx	lr
 8000884:	f44f 5360 	mov.w	r3, #14336	; 0x3800
 8000888:	f2c4 0302 	movt	r3, #16386	; 0x4002
 800088c:	6c1a      	ldr	r2, [r3, #64]	; 0x40
 800088e:	f022 0208 	bic.w	r2, r2, #8
 8000892:	641a      	str	r2, [r3, #64]	; 0x40
 8000894:	4770      	bx	lr
 8000896:	f44f 5360 	mov.w	r3, #14336	; 0x3800
 800089a:	f2c4 0302 	movt	r3, #16386	; 0x4002
 800089e:	6c1a      	ldr	r2, [r3, #64]	; 0x40
 80008a0:	f022 0202 	bic.w	r2, r2, #2
 80008a4:	641a      	str	r2, [r3, #64]	; 0x40
 80008a6:	4770      	bx	lr
 80008a8:	f44f 5360 	mov.w	r3, #14336	; 0x3800
 80008ac:	f2c4 0302 	movt	r3, #16386	; 0x4002
 80008b0:	6c1a      	ldr	r2, [r3, #64]	; 0x40
 80008b2:	f022 0204 	bic.w	r2, r2, #4
 80008b6:	641a      	str	r2, [r3, #64]	; 0x40
 80008b8:	4770      	bx	lr
 80008ba:	f44f 5360 	mov.w	r3, #14336	; 0x3800
 80008be:	f2c4 0302 	movt	r3, #16386	; 0x4002
 80008c2:	6c5a      	ldr	r2, [r3, #68]	; 0x44
 80008c4:	f422 2280 	bic.w	r2, r2, #262144	; 0x40000
 80008c8:	645a      	str	r2, [r3, #68]	; 0x44
 80008ca:	4770      	bx	lr
 80008cc:	f44f 5360 	mov.w	r3, #14336	; 0x3800
 80008d0:	f2c4 0302 	movt	r3, #16386	; 0x4002
 80008d4:	6c5a      	ldr	r2, [r3, #68]	; 0x44
 80008d6:	f022 0202 	bic.w	r2, r2, #2
 80008da:	645a      	str	r2, [r3, #68]	; 0x44
 80008dc:	4770      	bx	lr
 80008de:	f44f 5360 	mov.w	r3, #14336	; 0x3800
 80008e2:	f2c4 0302 	movt	r3, #16386	; 0x4002
 80008e6:	2036      	movs	r0, #54	; 0x36
 80008e8:	6c1a      	ldr	r2, [r3, #64]	; 0x40
 80008ea:	f022 0210 	bic.w	r2, r2, #16
 80008ee:	641a      	str	r2, [r3, #64]	; 0x40
 80008f0:	f000 bd1e 	b.w	8001330 <HAL_NVIC_DisableIRQ>
 80008f4:	f44f 5360 	mov.w	r3, #14336	; 0x3800
 80008f8:	f2c4 0302 	movt	r3, #16386	; 0x4002
 80008fc:	6c5a      	ldr	r2, [r3, #68]	; 0x44
 80008fe:	f422 3200 	bic.w	r2, r2, #131072	; 0x20000
 8000902:	645a      	str	r2, [r3, #68]	; 0x44
 8000904:	4770      	bx	lr
 8000906:	f44f 5360 	mov.w	r3, #14336	; 0x3800
 800090a:	f2c4 0302 	movt	r3, #16386	; 0x4002
 800090e:	6c1a      	ldr	r2, [r3, #64]	; 0x40
 8000910:	f022 0280 	bic.w	r2, r2, #128	; 0x80
 8000914:	641a      	str	r2, [r3, #64]	; 0x40
 8000916:	4770      	bx	lr
 8000918:	f44f 5360 	mov.w	r3, #14336	; 0x3800
 800091c:	f2c4 0302 	movt	r3, #16386	; 0x4002
 8000920:	6c1a      	ldr	r2, [r3, #64]	; 0x40
 8000922:	f422 7280 	bic.w	r2, r2, #256	; 0x100
 8000926:	641a      	str	r2, [r3, #64]	; 0x40
 8000928:	e799      	b.n	800085e <HAL_TIM_Base_MspDeInit+0x7e>
 800092a:	bf00      	nop

0800092c <HAL_UART_MspInit>:
 800092c:	b530      	push	{r4, r5, lr}
 800092e:	6801      	ldr	r1, [r0, #0]
 8000930:	f44f 4288 	mov.w	r2, #17408	; 0x4400
 8000934:	b089      	sub	sp, #36	; 0x24
 8000936:	f2c4 0200 	movt	r2, #16384	; 0x4000
 800093a:	2300      	movs	r3, #0
 800093c:	4291      	cmp	r1, r2
 800093e:	e9cd 3302 	strd	r3, r3, [sp, #8]
 8000942:	e9cd 3304 	strd	r3, r3, [sp, #16]
 8000946:	9306      	str	r3, [sp, #24]
 8000948:	d001      	beq.n	800094e <HAL_UART_MspInit+0x22>
 800094a:	b009      	add	sp, #36	; 0x24
 800094c:	bd30      	pop	{r4, r5, pc}
 800094e:	f44f 5260 	mov.w	r2, #14336	; 0x3800
 8000952:	f2c4 0202 	movt	r2, #16386	; 0x4002
 8000956:	9300      	str	r3, [sp, #0]
 8000958:	6c11      	ldr	r1, [r2, #64]	; 0x40
 800095a:	f441 3100 	orr.w	r1, r1, #131072	; 0x20000
 800095e:	6411      	str	r1, [r2, #64]	; 0x40
 8000960:	6c11      	ldr	r1, [r2, #64]	; 0x40
 8000962:	f401 3100 	and.w	r1, r1, #131072	; 0x20000
 8000966:	9100      	str	r1, [sp, #0]
 8000968:	9900      	ldr	r1, [sp, #0]
 800096a:	9301      	str	r3, [sp, #4]
 800096c:	6b13      	ldr	r3, [r2, #48]	; 0x30
 800096e:	f043 0301 	orr.w	r3, r3, #1
 8000972:	6313      	str	r3, [r2, #48]	; 0x30
 8000974:	6b13      	ldr	r3, [r2, #48]	; 0x30
 8000976:	f003 0301 	and.w	r3, r3, #1
 800097a:	9301      	str	r3, [sp, #4]
 800097c:	2000      	movs	r0, #0
 800097e:	2307      	movs	r3, #7
 8000980:	9a01      	ldr	r2, [sp, #4]
 8000982:	9306      	str	r3, [sp, #24]
 8000984:	2200      	movs	r2, #0
 8000986:	2303      	movs	r3, #3
 8000988:	a902      	add	r1, sp, #8
 800098a:	f2c4 0002 	movt	r0, #16386	; 0x4002
 800098e:	240e      	movs	r4, #14
 8000990:	2502      	movs	r5, #2
 8000992:	e9cd 4502 	strd	r4, r5, [sp, #8]
 8000996:	e9cd 2304 	strd	r2, r3, [sp, #16]
 800099a:	f001 fa2d 	bl	8001df8 <HAL_GPIO_Init>
 800099e:	b009      	add	sp, #36	; 0x24
 80009a0:	bd30      	pop	{r4, r5, pc}
 80009a2:	bf00      	nop

080009a4 <HAL_UART_MspDeInit>:
 80009a4:	b508      	push	{r3, lr}
 80009a6:	6802      	ldr	r2, [r0, #0]
 80009a8:	f44f 4388 	mov.w	r3, #17408	; 0x4400
 80009ac:	f2c4 0300 	movt	r3, #16384	; 0x4000
 80009b0:	429a      	cmp	r2, r3
 80009b2:	d000      	beq.n	80009b6 <HAL_UART_MspDeInit+0x12>
 80009b4:	bd08      	pop	{r3, pc}
 80009b6:	f44f 5360 	mov.w	r3, #14336	; 0x3800
 80009ba:	f2c4 0302 	movt	r3, #16386	; 0x4002
 80009be:	2000      	movs	r0, #0
 80009c0:	6c1a      	ldr	r2, [r3, #64]	; 0x40
 80009c2:	f422 3200 	bic.w	r2, r2, #131072	; 0x20000
 80009c6:	641a      	str	r2, [r3, #64]	; 0x40
 80009c8:	f2c4 0002 	movt	r0, #16386	; 0x4002
 80009cc:	210e      	movs	r1, #14
 80009ce:	f001 fb3b 	bl	8002048 <HAL_GPIO_DeInit>
 80009d2:	e8bd 4008 	ldmia.w	sp!, {r3, lr}
 80009d6:	2026      	movs	r0, #38	; 0x26
 80009d8:	f000 bcaa 	b.w	8001330 <HAL_NVIC_DisableIRQ>

080009dc <NMI_Handler>:
 80009dc:	e7fe      	b.n	80009dc <NMI_Handler>
 80009de:	bf00      	nop

080009e0 <HardFault_Handler>:
 80009e0:	e7fe      	b.n	80009e0 <HardFault_Handler>
 80009e2:	bf00      	nop

080009e4 <MemManage_Handler>:
 80009e4:	e7fe      	b.n	80009e4 <MemManage_Handler>
 80009e6:	bf00      	nop

080009e8 <BusFault_Handler>:
 80009e8:	e7fe      	b.n	80009e8 <BusFault_Handler>
 80009ea:	bf00      	nop

080009ec <UsageFault_Handler>:
 80009ec:	e7fe      	b.n	80009ec <UsageFault_Handler>
 80009ee:	bf00      	nop

080009f0 <SVC_Handler>:
 80009f0:	4770      	bx	lr
 80009f2:	bf00      	nop

080009f4 <DebugMon_Handler>:
 80009f4:	4770      	bx	lr
 80009f6:	bf00      	nop

080009f8 <PendSV_Handler>:
 80009f8:	4770      	bx	lr
 80009fa:	bf00      	nop

080009fc <SysTick_Handler>:
 80009fc:	4770      	bx	lr
 80009fe:	bf00      	nop

08000a00 <USART2_IRQHandler>:
 8000a00:	f44f 4388 	mov.w	r3, #17408	; 0x4400
 8000a04:	f2c4 0300 	movt	r3, #16384	; 0x4000
 8000a08:	681a      	ldr	r2, [r3, #0]
 8000a0a:	0692      	lsls	r2, r2, #26
 8000a0c:	d517      	bpl.n	8000a3e <USART2_IRQHandler+0x3e>
 8000a0e:	f640 21a4 	movw	r1, #2724	; 0xaa4
 8000a12:	685b      	ldr	r3, [r3, #4]
 8000a14:	f2c2 0100 	movt	r1, #8192	; 0x2000
 8000a18:	f240 5034 	movw	r0, #1332	; 0x534
 8000a1c:	b2db      	uxtb	r3, r3
 8000a1e:	680a      	ldr	r2, [r1, #0]
 8000a20:	f2c2 0000 	movt	r0, #8192	; 0x2000
 8000a24:	2b0d      	cmp	r3, #13
 8000a26:	5483      	strb	r3, [r0, r2]
 8000a28:	d011      	beq.n	8000a4e <USART2_IRQHandler+0x4e>
 8000a2a:	2b11      	cmp	r3, #17
 8000a2c:	d008      	beq.n	8000a40 <USART2_IRQHandler+0x40>
 8000a2e:	3201      	adds	r2, #1
 8000a30:	f5b2 6f80 	cmp.w	r2, #1024	; 0x400
 8000a34:	d001      	beq.n	8000a3a <USART2_IRQHandler+0x3a>
 8000a36:	600a      	str	r2, [r1, #0]
 8000a38:	4770      	bx	lr
 8000a3a:	2300      	movs	r3, #0
 8000a3c:	600b      	str	r3, [r1, #0]
 8000a3e:	4770      	bx	lr
 8000a40:	f240 0390 	movw	r3, #144	; 0x90
 8000a44:	f2c2 0300 	movt	r3, #8192	; 0x2000
 8000a48:	2001      	movs	r0, #1
 8000a4a:	7018      	strb	r0, [r3, #0]
 8000a4c:	e7ef      	b.n	8000a2e <USART2_IRQHandler+0x2e>
 8000a4e:	f240 038c 	movw	r3, #140	; 0x8c
 8000a52:	f2c2 0300 	movt	r3, #8192	; 0x2000
 8000a56:	2001      	movs	r0, #1
 8000a58:	6018      	str	r0, [r3, #0]
 8000a5a:	e7e8      	b.n	8000a2e <USART2_IRQHandler+0x2e>

08000a5c <TIM6_DAC_IRQHandler>:
 8000a5c:	f44f 5180 	mov.w	r1, #4096	; 0x1000
 8000a60:	f2c4 0100 	movt	r1, #16384	; 0x4000
 8000a64:	2300      	movs	r3, #0
 8000a66:	6908      	ldr	r0, [r1, #16]
 8000a68:	f644 22a8 	movw	r2, #19112	; 0x4aa8
 8000a6c:	f2c4 0302 	movt	r3, #16386	; 0x4002
 8000a70:	f2c2 0200 	movt	r2, #8192	; 0x2000
 8000a74:	f020 0001 	bic.w	r0, r0, #1
 8000a78:	6108      	str	r0, [r1, #16]
 8000a7a:	6958      	ldr	r0, [r3, #20]
 8000a7c:	6811      	ldr	r1, [r2, #0]
 8000a7e:	f080 0010 	eor.w	r0, r0, #16
 8000a82:	3101      	adds	r1, #1
 8000a84:	6011      	str	r1, [r2, #0]
 8000a86:	4619      	mov	r1, r3
 8000a88:	6158      	str	r0, [r3, #20]
 8000a8a:	2214      	movs	r2, #20
 8000a8c:	694b      	ldr	r3, [r1, #20]
 8000a8e:	3a01      	subs	r2, #1
 8000a90:	f483 7380 	eor.w	r3, r3, #256	; 0x100
 8000a94:	614b      	str	r3, [r1, #20]
 8000a96:	d1f9      	bne.n	8000a8c <TIM6_DAC_IRQHandler+0x30>
 8000a98:	4770      	bx	lr
 8000a9a:	bf00      	nop

08000a9c <_sbrk>:
 8000a9c:	f240 0194 	movw	r1, #148	; 0x94
 8000aa0:	f2c2 0100 	movt	r1, #8192	; 0x2000
 8000aa4:	b510      	push	{r4, lr}
 8000aa6:	f240 0200 	movw	r2, #0
 8000aaa:	f240 4400 	movw	r4, #1024	; 0x400
 8000aae:	680b      	ldr	r3, [r1, #0]
 8000ab0:	f2c2 0202 	movt	r2, #8194	; 0x2002
 8000ab4:	f2c0 0400 	movt	r4, #0
 8000ab8:	1b12      	subs	r2, r2, r4
 8000aba:	b12b      	cbz	r3, 8000ac8 <_sbrk+0x2c>
 8000abc:	4418      	add	r0, r3
 8000abe:	4290      	cmp	r0, r2
 8000ac0:	d80a      	bhi.n	8000ad8 <_sbrk+0x3c>
 8000ac2:	6008      	str	r0, [r1, #0]
 8000ac4:	4618      	mov	r0, r3
 8000ac6:	bd10      	pop	{r4, pc}
 8000ac8:	f644 4330 	movw	r3, #19504	; 0x4c30
 8000acc:	f2c2 0300 	movt	r3, #8192	; 0x2000
 8000ad0:	4418      	add	r0, r3
 8000ad2:	4290      	cmp	r0, r2
 8000ad4:	600b      	str	r3, [r1, #0]
 8000ad6:	d9f4      	bls.n	8000ac2 <_sbrk+0x26>
 8000ad8:	f00b fa06 	bl	800bee8 <__errno>
 8000adc:	230c      	movs	r3, #12
 8000ade:	6003      	str	r3, [r0, #0]
 8000ae0:	f04f 33ff 	mov.w	r3, #4294967295	; 0xffffffff
 8000ae4:	4618      	mov	r0, r3
 8000ae6:	bd10      	pop	{r4, pc}

08000ae8 <SystemInit>:
 8000ae8:	f44f 436d 	mov.w	r3, #60672	; 0xed00
 8000aec:	f2ce 0300 	movt	r3, #57344	; 0xe000
 8000af0:	f8d3 2088 	ldr.w	r2, [r3, #136]	; 0x88
 8000af4:	f442 0270 	orr.w	r2, r2, #15728640	; 0xf00000
 8000af8:	f8c3 2088 	str.w	r2, [r3, #136]	; 0x88
 8000afc:	4770      	bx	lr
 8000afe:	bf00      	nop

08000b00 <SystemCoreClockUpdate>:
 8000b00:	f44f 5060 	mov.w	r0, #14336	; 0x3800
 8000b04:	f2c4 0002 	movt	r0, #16386	; 0x4002
 8000b08:	6883      	ldr	r3, [r0, #8]
 8000b0a:	f003 030c 	and.w	r3, r3, #12
 8000b0e:	2b04      	cmp	r3, #4
 8000b10:	d018      	beq.n	8000b44 <SystemCoreClockUpdate+0x44>
 8000b12:	2b08      	cmp	r3, #8
 8000b14:	d01b      	beq.n	8000b4e <SystemCoreClockUpdate+0x4e>
 8000b16:	f44f 5310 	mov.w	r3, #9216	; 0x2400
 8000b1a:	f2c0 03f4 	movt	r3, #244	; 0xf4
 8000b1e:	f44f 5260 	mov.w	r2, #14336	; 0x3800
 8000b22:	f2c4 0202 	movt	r2, #16386	; 0x4002
 8000b26:	f24c 70f4 	movw	r0, #51188	; 0xc7f4
 8000b2a:	6891      	ldr	r1, [r2, #8]
 8000b2c:	f6c0 0000 	movt	r0, #2048	; 0x800
 8000b30:	f3c1 1103 	ubfx	r1, r1, #4, #4
 8000b34:	f240 0200 	movw	r2, #0
 8000b38:	5c41      	ldrb	r1, [r0, r1]
 8000b3a:	f2c2 0200 	movt	r2, #8192	; 0x2000
 8000b3e:	40cb      	lsrs	r3, r1
 8000b40:	6013      	str	r3, [r2, #0]
 8000b42:	4770      	bx	lr
 8000b44:	f44f 5390 	mov.w	r3, #4608	; 0x1200
 8000b48:	f2c0 037a 	movt	r3, #122	; 0x7a
 8000b4c:	e7e7      	b.n	8000b1e <SystemCoreClockUpdate+0x1e>
 8000b4e:	6842      	ldr	r2, [r0, #4]
 8000b50:	6843      	ldr	r3, [r0, #4]
 8000b52:	0252      	lsls	r2, r2, #9
 8000b54:	f003 033f 	and.w	r3, r3, #63	; 0x3f
 8000b58:	d416      	bmi.n	8000b88 <SystemCoreClockUpdate+0x88>
 8000b5a:	6841      	ldr	r1, [r0, #4]
 8000b5c:	f44f 5210 	mov.w	r2, #9216	; 0x2400
 8000b60:	f3c1 1188 	ubfx	r1, r1, #6, #9
 8000b64:	f2c0 02f4 	movt	r2, #244	; 0xf4
 8000b68:	fbb2 f3f3 	udiv	r3, r2, r3
 8000b6c:	fb03 f301 	mul.w	r3, r3, r1
 8000b70:	f44f 5260 	mov.w	r2, #14336	; 0x3800
 8000b74:	f2c4 0202 	movt	r2, #16386	; 0x4002
 8000b78:	6852      	ldr	r2, [r2, #4]
 8000b7a:	f3c2 4201 	ubfx	r2, r2, #16, #2
 8000b7e:	3201      	adds	r2, #1
 8000b80:	0052      	lsls	r2, r2, #1
 8000b82:	fbb3 f3f2 	udiv	r3, r3, r2
 8000b86:	e7ca      	b.n	8000b1e <SystemCoreClockUpdate+0x1e>
 8000b88:	6842      	ldr	r2, [r0, #4]
 8000b8a:	f44f 5190 	mov.w	r1, #4608	; 0x1200
 8000b8e:	f3c2 1288 	ubfx	r2, r2, #6, #9
 8000b92:	f2c0 017a 	movt	r1, #122	; 0x7a
 8000b96:	fbb1 f3f3 	udiv	r3, r1, r3
 8000b9a:	fb03 f302 	mul.w	r3, r3, r2
 8000b9e:	e7e7      	b.n	8000b70 <SystemCoreClockUpdate+0x70>

08000ba0 <uart_interrupt_toggle>:
 8000ba0:	f644 3384 	movw	r3, #19332	; 0x4b84
 8000ba4:	f2c2 0300 	movt	r3, #8192	; 0x2000
 8000ba8:	681a      	ldr	r2, [r3, #0]
 8000baa:	68d3      	ldr	r3, [r2, #12]
 8000bac:	b918      	cbnz	r0, 8000bb6 <uart_interrupt_toggle+0x16>
 8000bae:	f023 0320 	bic.w	r3, r3, #32
 8000bb2:	60d3      	str	r3, [r2, #12]
 8000bb4:	4770      	bx	lr
 8000bb6:	f043 0320 	orr.w	r3, r3, #32
 8000bba:	60d3      	str	r3, [r2, #12]
 8000bbc:	4770      	bx	lr
 8000bbe:	bf00      	nop

08000bc0 <uart_printf>:
 8000bc0:	b40f      	push	{r0, r1, r2, r3}
 8000bc2:	b570      	push	{r4, r5, r6, lr}
 8000bc4:	b082      	sub	sp, #8
 8000bc6:	ab06      	add	r3, sp, #24
 8000bc8:	f240 05a0 	movw	r5, #160	; 0xa0
 8000bcc:	f2c2 0500 	movt	r5, #8192	; 0x2000
 8000bd0:	f853 2b04 	ldr.w	r2, [r3], #4
 8000bd4:	9301      	str	r3, [sp, #4]
 8000bd6:	4628      	mov	r0, r5
 8000bd8:	f240 31ff 	movw	r1, #1023	; 0x3ff
 8000bdc:	f00b f9e2 	bl	800bfa4 <vsniprintf>
 8000be0:	f644 4614 	movw	r6, #19476	; 0x4c14
 8000be4:	4604      	mov	r4, r0
 8000be6:	f2c2 0600 	movt	r6, #8192	; 0x2000
 8000bea:	f644 3084 	movw	r0, #19332	; 0x4b84
 8000bee:	4629      	mov	r1, r5
 8000bf0:	b2a2      	uxth	r2, r4
 8000bf2:	2303      	movs	r3, #3
 8000bf4:	f2c2 0000 	movt	r0, #8192	; 0x2000
 8000bf8:	6034      	str	r4, [r6, #0]
 8000bfa:	f009 f881 	bl	8009d00 <HAL_UART_Transmit>
 8000bfe:	b002      	add	sp, #8
 8000c00:	e8bd 4070 	ldmia.w	sp!, {r4, r5, r6, lr}
 8000c04:	b004      	add	sp, #16
 8000c06:	4770      	bx	lr

08000c08 <crc32_bytes>:
 8000c08:	b4f0      	push	{r4, r5, r6, r7}
 8000c0a:	f44f 5740 	mov.w	r7, #12288	; 0x3000
 8000c0e:	f2c4 0702 	movt	r7, #16386	; 0x4002
 8000c12:	088e      	lsrs	r6, r1, #2
 8000c14:	68ba      	ldr	r2, [r7, #8]
 8000c16:	f042 0201 	orr.w	r2, r2, #1
 8000c1a:	b082      	sub	sp, #8
 8000c1c:	60ba      	str	r2, [r7, #8]
 8000c1e:	f000 8110 	beq.w	8000e42 <crc32_bytes+0x23a>
 8000c22:	eb00 0686 	add.w	r6, r0, r6, lsl #2
 8000c26:	f850 5b04 	ldr.w	r5, [r0], #4
 8000c2a:	9501      	str	r5, [sp, #4]
 8000c2c:	f005 0401 	and.w	r4, r5, #1
 8000c30:	2301      	movs	r3, #1
 8000c32:	fa25 f203 	lsr.w	r2, r5, r3
 8000c36:	3301      	adds	r3, #1
 8000c38:	f002 0201 	and.w	r2, r2, #1
 8000c3c:	2b20      	cmp	r3, #32
 8000c3e:	ea42 0444 	orr.w	r4, r2, r4, lsl #1
 8000c42:	d1f6      	bne.n	8000c32 <crc32_bytes+0x2a>
 8000c44:	4286      	cmp	r6, r0
 8000c46:	603c      	str	r4, [r7, #0]
 8000c48:	d1ed      	bne.n	8000c26 <crc32_bytes+0x1e>
 8000c4a:	f44f 5240 	mov.w	r2, #12288	; 0x3000
 8000c4e:	f2c4 0202 	movt	r2, #16386	; 0x4002
 8000c52:	2301      	movs	r3, #1
 8000c54:	6814      	ldr	r4, [r2, #0]
 8000c56:	ea04 0003 	and.w	r0, r4, r3
 8000c5a:	fa24 f203 	lsr.w	r2, r4, r3
 8000c5e:	3301      	adds	r3, #1
 8000c60:	f002 0201 	and.w	r2, r2, #1
 8000c64:	2b20      	cmp	r3, #32
 8000c66:	ea42 0040 	orr.w	r0, r2, r0, lsl #1
 8000c6a:	d1f6      	bne.n	8000c5a <crc32_bytes+0x52>
 8000c6c:	f011 0303 	ands.w	r3, r1, #3
 8000c70:	f000 80e3 	beq.w	8000e3a <crc32_bytes+0x232>
 8000c74:	7832      	ldrb	r2, [r6, #0]
 8000c76:	4050      	eors	r0, r2
 8000c78:	07c2      	lsls	r2, r0, #31
 8000c7a:	bf43      	ittte	mi
 8000c7c:	f248 3220 	movwmi	r2, #33568	; 0x8320
 8000c80:	f6ce 52b8 	movtmi	r2, #60856	; 0xedb8
 8000c84:	ea82 0050 	eormi.w	r0, r2, r0, lsr #1
 8000c88:	0840      	lsrpl	r0, r0, #1
 8000c8a:	07c7      	lsls	r7, r0, #31
 8000c8c:	bf43      	ittte	mi
 8000c8e:	f248 3220 	movwmi	r2, #33568	; 0x8320
 8000c92:	f6ce 52b8 	movtmi	r2, #60856	; 0xedb8
 8000c96:	ea82 0050 	eormi.w	r0, r2, r0, lsr #1
 8000c9a:	0840      	lsrpl	r0, r0, #1
 8000c9c:	07c5      	lsls	r5, r0, #31
 8000c9e:	bf43      	ittte	mi
 8000ca0:	f248 3220 	movwmi	r2, #33568	; 0x8320
 8000ca4:	f6ce 52b8 	movtmi	r2, #60856	; 0xedb8
 8000ca8:	ea82 0050 	eormi.w	r0, r2, r0, lsr #1
 8000cac:	0840      	lsrpl	r0, r0, #1
 8000cae:	07c4      	lsls	r4, r0, #31
 8000cb0:	bf43      	ittte	mi
 8000cb2:	f248 3220 	movwmi	r2, #33568	; 0x8320
 8000cb6:	f6ce 52b8 	movtmi	r2, #60856	; 0xedb8
 8000cba:	ea82 0050 	eormi.w	r0, r2, r0, lsr #1
 8000cbe:	0840      	lsrpl	r0, r0, #1
 8000cc0:	07c1      	lsls	r1, r0, #31
 8000cc2:	bf43      	ittte	mi
 8000cc4:	f248 3220 	movwmi	r2, #33568	; 0x8320
 8000cc8:	f6ce 52b8 	movtmi	r2, #60856	; 0xedb8
 8000ccc:	ea82 0050 	eormi.w	r0, r2, r0, lsr #1
 8000cd0:	0840      	lsrpl	r0, r0, #1
 8000cd2:	07c2      	lsls	r2, r0, #31
 8000cd4:	bf43      	ittte	mi
 8000cd6:	f248 3220 	movwmi	r2, #33568	; 0x8320
 8000cda:	f6ce 52b8 	movtmi	r2, #60856	; 0xedb8
 8000cde:	ea82 0050 	eormi.w	r0, r2, r0, lsr #1
 8000ce2:	0840      	lsrpl	r0, r0, #1
 8000ce4:	07c7      	lsls	r7, r0, #31
 8000ce6:	bf43      	ittte	mi
 8000ce8:	f248 3220 	movwmi	r2, #33568	; 0x8320
 8000cec:	f6ce 52b8 	movtmi	r2, #60856	; 0xedb8
 8000cf0:	ea82 0050 	eormi.w	r0, r2, r0, lsr #1
 8000cf4:	0840      	lsrpl	r0, r0, #1
 8000cf6:	07c5      	lsls	r5, r0, #31
 8000cf8:	bf43      	ittte	mi
 8000cfa:	f248 3220 	movwmi	r2, #33568	; 0x8320
 8000cfe:	f6ce 52b8 	movtmi	r2, #60856	; 0xedb8
 8000d02:	ea82 0050 	eormi.w	r0, r2, r0, lsr #1
 8000d06:	0840      	lsrpl	r0, r0, #1
 8000d08:	2b01      	cmp	r3, #1
 8000d0a:	f000 8096 	beq.w	8000e3a <crc32_bytes+0x232>
 8000d0e:	7872      	ldrb	r2, [r6, #1]
 8000d10:	4050      	eors	r0, r2
 8000d12:	07c4      	lsls	r4, r0, #31
 8000d14:	bf43      	ittte	mi
 8000d16:	f248 3220 	movwmi	r2, #33568	; 0x8320
 8000d1a:	f6ce 52b8 	movtmi	r2, #60856	; 0xedb8
 8000d1e:	ea82 0050 	eormi.w	r0, r2, r0, lsr #1
 8000d22:	0840      	lsrpl	r0, r0, #1
 8000d24:	07c1      	lsls	r1, r0, #31
 8000d26:	bf43      	ittte	mi
 8000d28:	f248 3220 	movwmi	r2, #33568	; 0x8320
 8000d2c:	f6ce 52b8 	movtmi	r2, #60856	; 0xedb8
 8000d30:	ea82 0050 	eormi.w	r0, r2, r0, lsr #1
 8000d34:	0840      	lsrpl	r0, r0, #1
 8000d36:	07c2      	lsls	r2, r0, #31
 8000d38:	bf43      	ittte	mi
 8000d3a:	f248 3220 	movwmi	r2, #33568	; 0x8320
 8000d3e:	f6ce 52b8 	movtmi	r2, #60856	; 0xedb8
 8000d42:	ea82 0050 	eormi.w	r0, r2, r0, lsr #1
 8000d46:	0840      	lsrpl	r0, r0, #1
 8000d48:	07c7      	lsls	r7, r0, #31
 8000d4a:	bf43      	ittte	mi
 8000d4c:	f248 3220 	movwmi	r2, #33568	; 0x8320
 8000d50:	f6ce 52b8 	movtmi	r2, #60856	; 0xedb8
 8000d54:	ea82 0050 	eormi.w	r0, r2, r0, lsr #1
 8000d58:	0840      	lsrpl	r0, r0, #1
 8000d5a:	07c5      	lsls	r5, r0, #31
 8000d5c:	bf43      	ittte	mi
 8000d5e:	f248 3220 	movwmi	r2, #33568	; 0x8320
 8000d62:	f6ce 52b8 	movtmi	r2, #60856	; 0xedb8
 8000d66:	ea82 0050 	eormi.w	r0, r2, r0, lsr #1
 8000d6a:	0840      	lsrpl	r0, r0, #1
 8000d6c:	07c4      	lsls	r4, r0, #31
 8000d6e:	bf43      	ittte	mi
 8000d70:	f248 3220 	movwmi	r2, #33568	; 0x8320
 8000d74:	f6ce 52b8 	movtmi	r2, #60856	; 0xedb8
 8000d78:	ea82 0050 	eormi.w	r0, r2, r0, lsr #1
 8000d7c:	0840      	lsrpl	r0, r0, #1
 8000d7e:	07c1      	lsls	r1, r0, #31
 8000d80:	bf43      	ittte	mi
 8000d82:	f248 3220 	movwmi	r2, #33568	; 0x8320
 8000d86:	f6ce 52b8 	movtmi	r2, #60856	; 0xedb8
 8000d8a:	ea82 0050 	eormi.w	r0, r2, r0, lsr #1
 8000d8e:	0840      	lsrpl	r0, r0, #1
 8000d90:	07c2      	lsls	r2, r0, #31
 8000d92:	bf43      	ittte	mi
 8000d94:	f248 3220 	movwmi	r2, #33568	; 0x8320
 8000d98:	f6ce 52b8 	movtmi	r2, #60856	; 0xedb8
 8000d9c:	ea82 0050 	eormi.w	r0, r2, r0, lsr #1
 8000da0:	0840      	lsrpl	r0, r0, #1
 8000da2:	2b02      	cmp	r3, #2
 8000da4:	d049      	beq.n	8000e3a <crc32_bytes+0x232>
 8000da6:	78b3      	ldrb	r3, [r6, #2]
 8000da8:	4058      	eors	r0, r3
 8000daa:	07c3      	lsls	r3, r0, #31
 8000dac:	bf43      	ittte	mi
 8000dae:	f248 3320 	movwmi	r3, #33568	; 0x8320
 8000db2:	f6ce 53b8 	movtmi	r3, #60856	; 0xedb8
 8000db6:	ea83 0050 	eormi.w	r0, r3, r0, lsr #1
 8000dba:	0840      	lsrpl	r0, r0, #1
 8000dbc:	07c7      	lsls	r7, r0, #31
 8000dbe:	bf43      	ittte	mi
 8000dc0:	f248 3320 	movwmi	r3, #33568	; 0x8320
 8000dc4:	f6ce 53b8 	movtmi	r3, #60856	; 0xedb8
 8000dc8:	ea83 0050 	eormi.w	r0, r3, r0, lsr #1
 8000dcc:	0840      	lsrpl	r0, r0, #1
 8000dce:	07c6      	lsls	r6, r0, #31
 8000dd0:	bf43      	ittte	mi
 8000dd2:	f248 3320 	movwmi	r3, #33568	; 0x8320
 8000dd6:	f6ce 53b8 	movtmi	r3, #60856	; 0xedb8
 8000dda:	ea83 0050 	eormi.w	r0, r3, r0, lsr #1
 8000dde:	0840      	lsrpl	r0, r0, #1
 8000de0:	07c5      	lsls	r5, r0, #31
 8000de2:	bf43      	ittte	mi
 8000de4:	f248 3320 	movwmi	r3, #33568	; 0x8320
 8000de8:	f6ce 53b8 	movtmi	r3, #60856	; 0xedb8
 8000dec:	ea83 0050 	eormi.w	r0, r3, r0, lsr #1
 8000df0:	0840      	lsrpl	r0, r0, #1
 8000df2:	07c4      	lsls	r4, r0, #31
 8000df4:	bf43      	ittte	mi
 8000df6:	f248 3320 	movwmi	r3, #33568	; 0x8320
 8000dfa:	f6ce 53b8 	movtmi	r3, #60856	; 0xedb8
 8000dfe:	ea83 0050 	eormi.w	r0, r3, r0, lsr #1
 8000e02:	0840      	lsrpl	r0, r0, #1
 8000e04:	07c1      	lsls	r1, r0, #31
 8000e06:	bf43      	ittte	mi
 8000e08:	f248 3320 	movwmi	r3, #33568	; 0x8320
 8000e0c:	f6ce 53b8 	movtmi	r3, #60856	; 0xedb8
 8000e10:	ea83 0050 	eormi.w	r0, r3, r0, lsr #1
 8000e14:	0840      	lsrpl	r0, r0, #1
 8000e16:	07c2      	lsls	r2, r0, #31
 8000e18:	bf43      	ittte	mi
 8000e1a:	f248 3320 	movwmi	r3, #33568	; 0x8320
 8000e1e:	f6ce 53b8 	movtmi	r3, #60856	; 0xedb8
 8000e22:	ea83 0050 	eormi.w	r0, r3, r0, lsr #1
 8000e26:	0840      	lsrpl	r0, r0, #1
 8000e28:	07c3      	lsls	r3, r0, #31
 8000e2a:	bf45      	ittet	mi
 8000e2c:	f248 3320 	movwmi	r3, #33568	; 0x8320
 8000e30:	f6ce 53b8 	movtmi	r3, #60856	; 0xedb8
 8000e34:	0840      	lsrpl	r0, r0, #1
 8000e36:	ea83 0050 	eormi.w	r0, r3, r0, lsr #1
 8000e3a:	43c0      	mvns	r0, r0
 8000e3c:	b002      	add	sp, #8
 8000e3e:	bcf0      	pop	{r4, r5, r6, r7}
 8000e40:	4770      	bx	lr
 8000e42:	4606      	mov	r6, r0
 8000e44:	e701      	b.n	8000c4a <crc32_bytes+0x42>
 8000e46:	bf00      	nop

08000e48 <receive_program_endbyte>:
 8000e48:	b5f8      	push	{r3, r4, r5, r6, r7, lr}
 8000e4a:	f644 3684 	movw	r6, #19332	; 0x4b84
 8000e4e:	f2c2 0600 	movt	r6, #8192	; 0x2000
 8000e52:	f640 27a4 	movw	r7, #2724	; 0xaa4
 8000e56:	6835      	ldr	r5, [r6, #0]
 8000e58:	68e9      	ldr	r1, [r5, #12]
 8000e5a:	f2c2 0700 	movt	r7, #8192	; 0x2000
 8000e5e:	f021 0120 	bic.w	r1, r1, #32
 8000e62:	2400      	movs	r4, #0
 8000e64:	f44f 43e2 	mov.w	r3, #28928	; 0x7100
 8000e68:	f44f 4088 	mov.w	r0, #17408	; 0x4400
 8000e6c:	60e9      	str	r1, [r5, #12]
 8000e6e:	f240 5534 	movw	r5, #1332	; 0x534
 8000e72:	603c      	str	r4, [r7, #0]
 8000e74:	f2c0 0302 	movt	r3, #2
 8000e78:	f2c4 0000 	movt	r0, #16384	; 0x4000
 8000e7c:	f2c2 0500 	movt	r5, #8192	; 0x2000
 8000e80:	6801      	ldr	r1, [r0, #0]
 8000e82:	0689      	lsls	r1, r1, #26
 8000e84:	d507      	bpl.n	8000e96 <receive_program_endbyte+0x4e>
 8000e86:	6842      	ldr	r2, [r0, #4]
 8000e88:	f3c2 0208 	ubfx	r2, r2, #0, #9
 8000e8c:	552a      	strb	r2, [r5, r4]
 8000e8e:	3401      	adds	r4, #1
 8000e90:	f5b4 6f80 	cmp.w	r4, #1024	; 0x400
 8000e94:	d022      	beq.n	8000edc <receive_program_endbyte+0x94>
 8000e96:	3b01      	subs	r3, #1
 8000e98:	d02f      	beq.n	8000efa <receive_program_endbyte+0xb2>
 8000e9a:	2aa0      	cmp	r2, #160	; 0xa0
 8000e9c:	d1f0      	bne.n	8000e80 <receive_program_endbyte+0x38>
 8000e9e:	f240 5034 	movw	r0, #1332	; 0x534
 8000ea2:	f2c2 0000 	movt	r0, #8192	; 0x2000
 8000ea6:	1902      	adds	r2, r0, r4
 8000ea8:	1f61      	subs	r1, r4, #5
 8000eaa:	f812 cc04 	ldrb.w	ip, [r2, #-4]
 8000eae:	5c43      	ldrb	r3, [r0, r1]
 8000eb0:	f812 5c03 	ldrb.w	r5, [r2, #-3]
 8000eb4:	603c      	str	r4, [r7, #0]
 8000eb6:	eb03 230c 	add.w	r3, r3, ip, lsl #8
 8000eba:	f812 4c02 	ldrb.w	r4, [r2, #-2]
 8000ebe:	eb03 4305 	add.w	r3, r3, r5, lsl #16
 8000ec2:	eb03 6404 	add.w	r4, r3, r4, lsl #24
 8000ec6:	f7ff fe9f 	bl	8000c08 <crc32_bytes>
 8000eca:	4284      	cmp	r4, r0
 8000ecc:	d11b      	bne.n	8000f06 <receive_program_endbyte+0xbe>
 8000ece:	6832      	ldr	r2, [r6, #0]
 8000ed0:	68d3      	ldr	r3, [r2, #12]
 8000ed2:	f043 0320 	orr.w	r3, r3, #32
 8000ed6:	60d3      	str	r3, [r2, #12]
 8000ed8:	2000      	movs	r0, #0
 8000eda:	bdf8      	pop	{r3, r4, r5, r6, r7, pc}
 8000edc:	f64c 0078 	movw	r0, #51320	; 0xc878
 8000ee0:	f6c0 0000 	movt	r0, #2048	; 0x800
 8000ee4:	603c      	str	r4, [r7, #0]
 8000ee6:	f7ff fe6b 	bl	8000bc0 <uart_printf>
 8000eea:	6832      	ldr	r2, [r6, #0]
 8000eec:	68d3      	ldr	r3, [r2, #12]
 8000eee:	f043 0320 	orr.w	r3, r3, #32
 8000ef2:	60d3      	str	r3, [r2, #12]
 8000ef4:	f04f 30ff 	mov.w	r0, #4294967295	; 0xffffffff
 8000ef8:	bdf8      	pop	{r3, r4, r5, r6, r7, pc}
 8000efa:	f64c 00ac 	movw	r0, #51372	; 0xc8ac
 8000efe:	f6c0 0000 	movt	r0, #2048	; 0x800
 8000f02:	603c      	str	r4, [r7, #0]
 8000f04:	e7ef      	b.n	8000ee6 <receive_program_endbyte+0x9e>
 8000f06:	f64c 00d8 	movw	r0, #51416	; 0xc8d8
 8000f0a:	f6c0 0000 	movt	r0, #2048	; 0x800
 8000f0e:	e7ea      	b.n	8000ee6 <receive_program_endbyte+0x9e>

08000f10 <receive_program>:
 8000f10:	e92d 41f0 	stmdb	sp!, {r4, r5, r6, r7, r8, lr}
 8000f14:	f644 3784 	movw	r7, #19332	; 0x4b84
 8000f18:	f2c2 0700 	movt	r7, #8192	; 0x2000
 8000f1c:	f640 28a4 	movw	r8, #2724	; 0xaa4
 8000f20:	683c      	ldr	r4, [r7, #0]
 8000f22:	68e3      	ldr	r3, [r4, #12]
 8000f24:	f2c2 0800 	movt	r8, #8192	; 0x2000
 8000f28:	2000      	movs	r0, #0
 8000f2a:	f023 0320 	bic.w	r3, r3, #32
 8000f2e:	f44f 4288 	mov.w	r2, #17408	; 0x4400
 8000f32:	f247 06ff 	movw	r6, #28927	; 0x70ff
 8000f36:	f240 5534 	movw	r5, #1332	; 0x534
 8000f3a:	60e3      	str	r3, [r4, #12]
 8000f3c:	4601      	mov	r1, r0
 8000f3e:	f8c8 0000 	str.w	r0, [r8]
 8000f42:	4603      	mov	r3, r0
 8000f44:	f2c4 0200 	movt	r2, #16384	; 0x4000
 8000f48:	f2c0 0602 	movt	r6, #2
 8000f4c:	f2c2 0500 	movt	r5, #8192	; 0x2000
 8000f50:	6814      	ldr	r4, [r2, #0]
 8000f52:	f014 0420 	ands.w	r4, r4, #32
 8000f56:	f103 0301 	add.w	r3, r3, #1
 8000f5a:	d00c      	beq.n	8000f76 <receive_program+0x66>
 8000f5c:	6853      	ldr	r3, [r2, #4]
 8000f5e:	546b      	strb	r3, [r5, r1]
 8000f60:	3101      	adds	r1, #1
 8000f62:	f5b1 6f80 	cmp.w	r1, #1024	; 0x400
 8000f66:	d22b      	bcs.n	8000fc0 <receive_program+0xb0>
 8000f68:	6814      	ldr	r4, [r2, #0]
 8000f6a:	2300      	movs	r3, #0
 8000f6c:	f014 0420 	ands.w	r4, r4, #32
 8000f70:	f103 0301 	add.w	r3, r3, #1
 8000f74:	d1f2      	bne.n	8000f5c <receive_program+0x4c>
 8000f76:	42b3      	cmp	r3, r6
 8000f78:	ddea      	ble.n	8000f50 <receive_program+0x40>
 8000f7a:	2904      	cmp	r1, #4
 8000f7c:	f8c8 1000 	str.w	r1, [r8]
 8000f80:	d932      	bls.n	8000fe8 <receive_program+0xd8>
 8000f82:	f240 5034 	movw	r0, #1332	; 0x534
 8000f86:	f2c2 0000 	movt	r0, #8192	; 0x2000
 8000f8a:	1842      	adds	r2, r0, r1
 8000f8c:	3905      	subs	r1, #5
 8000f8e:	f812 cc04 	ldrb.w	ip, [r2, #-4]
 8000f92:	5c43      	ldrb	r3, [r0, r1]
 8000f94:	f812 6c03 	ldrb.w	r6, [r2, #-3]
 8000f98:	f812 5c02 	ldrb.w	r5, [r2, #-2]
 8000f9c:	eb03 230c 	add.w	r3, r3, ip, lsl #8
 8000fa0:	eb03 4306 	add.w	r3, r3, r6, lsl #16
 8000fa4:	eb03 6505 	add.w	r5, r3, r5, lsl #24
 8000fa8:	f7ff fe2e 	bl	8000c08 <crc32_bytes>
 8000fac:	4285      	cmp	r5, r0
 8000fae:	d11b      	bne.n	8000fe8 <receive_program+0xd8>
 8000fb0:	683a      	ldr	r2, [r7, #0]
 8000fb2:	68d3      	ldr	r3, [r2, #12]
 8000fb4:	f043 0320 	orr.w	r3, r3, #32
 8000fb8:	4620      	mov	r0, r4
 8000fba:	60d3      	str	r3, [r2, #12]
 8000fbc:	e8bd 81f0 	ldmia.w	sp!, {r4, r5, r6, r7, r8, pc}
 8000fc0:	f64c 0078 	movw	r0, #51320	; 0xc878
 8000fc4:	f6c0 0000 	movt	r0, #2048	; 0x800
 8000fc8:	f8c8 1000 	str.w	r1, [r8]
 8000fcc:	f7ff fdf8 	bl	8000bc0 <uart_printf>
 8000fd0:	683a      	ldr	r2, [r7, #0]
 8000fd2:	68d3      	ldr	r3, [r2, #12]
 8000fd4:	2100      	movs	r1, #0
 8000fd6:	f043 0320 	orr.w	r3, r3, #32
 8000fda:	60d3      	str	r3, [r2, #12]
 8000fdc:	f8c8 1000 	str.w	r1, [r8]
 8000fe0:	f04f 30ff 	mov.w	r0, #4294967295	; 0xffffffff
 8000fe4:	e8bd 81f0 	ldmia.w	sp!, {r4, r5, r6, r7, r8, pc}
 8000fe8:	f64c 00d8 	movw	r0, #51416	; 0xc8d8
 8000fec:	f6c0 0000 	movt	r0, #2048	; 0x800
 8000ff0:	f7ff fde6 	bl	8000bc0 <uart_printf>
 8000ff4:	683a      	ldr	r2, [r7, #0]
 8000ff6:	68d3      	ldr	r3, [r2, #12]
 8000ff8:	f043 0320 	orr.w	r3, r3, #32
 8000ffc:	60d3      	str	r3, [r2, #12]
 8000ffe:	f04f 30ff 	mov.w	r0, #4294967295	; 0xffffffff
 8001002:	e7ef      	b.n	8000fe4 <receive_program+0xd4>

08001004 <revbit>:
 8001004:	4601      	mov	r1, r0
 8001006:	2301      	movs	r3, #1
 8001008:	f000 0001 	and.w	r0, r0, #1
 800100c:	fa21 f203 	lsr.w	r2, r1, r3
 8001010:	3301      	adds	r3, #1
 8001012:	f002 0201 	and.w	r2, r2, #1
 8001016:	2b20      	cmp	r3, #32
 8001018:	ea42 0040 	orr.w	r0, r2, r0, lsl #1
 800101c:	d1f6      	bne.n	800100c <revbit+0x8>
 800101e:	4770      	bx	lr
 8001020:	4770      	bx	lr
 8001022:	bf00      	nop

08001024 <HAL_MspDeInit>:
 8001024:	4770      	bx	lr
 8001026:	bf00      	nop

08001028 <HAL_DeInit>:
 8001028:	b510      	push	{r4, lr}
 800102a:	f44f 5360 	mov.w	r3, #14336	; 0x3800
 800102e:	f2c4 0302 	movt	r3, #16386	; 0x4002
 8001032:	f04f 32ff 	mov.w	r2, #4294967295	; 0xffffffff
 8001036:	2400      	movs	r4, #0
 8001038:	621a      	str	r2, [r3, #32]
 800103a:	621c      	str	r4, [r3, #32]
 800103c:	625a      	str	r2, [r3, #36]	; 0x24
 800103e:	625c      	str	r4, [r3, #36]	; 0x24
 8001040:	611a      	str	r2, [r3, #16]
 8001042:	611c      	str	r4, [r3, #16]
 8001044:	615a      	str	r2, [r3, #20]
 8001046:	615c      	str	r4, [r3, #20]
 8001048:	619a      	str	r2, [r3, #24]
 800104a:	619c      	str	r4, [r3, #24]
 800104c:	f7ff ffea 	bl	8001024 <HAL_MspDeInit>
 8001050:	4620      	mov	r0, r4
 8001052:	bd10      	pop	{r4, pc}

08001054 <HAL_InitTick>:
 8001054:	b570      	push	{r4, r5, r6, lr}
 8001056:	f240 0200 	movw	r2, #0
 800105a:	f240 0504 	movw	r5, #4
 800105e:	f2c2 0500 	movt	r5, #8192	; 0x2000
 8001062:	f2c2 0200 	movt	r2, #8192	; 0x2000
 8001066:	7829      	ldrb	r1, [r5, #0]
 8001068:	4606      	mov	r6, r0
 800106a:	f44f 737a 	mov.w	r3, #1000	; 0x3e8
 800106e:	6810      	ldr	r0, [r2, #0]
 8001070:	fbb3 f3f1 	udiv	r3, r3, r1
 8001074:	fbb0 f0f3 	udiv	r0, r0, r3
 8001078:	f000 f980 	bl	800137c <HAL_SYSTICK_Config>
 800107c:	b908      	cbnz	r0, 8001082 <HAL_InitTick+0x2e>
 800107e:	2e0f      	cmp	r6, #15
 8001080:	d901      	bls.n	8001086 <HAL_InitTick+0x32>
 8001082:	2001      	movs	r0, #1
 8001084:	bd70      	pop	{r4, r5, r6, pc}
 8001086:	4604      	mov	r4, r0
 8001088:	4602      	mov	r2, r0
 800108a:	4631      	mov	r1, r6
 800108c:	f04f 30ff 	mov.w	r0, #4294967295	; 0xffffffff
 8001090:	f000 f906 	bl	80012a0 <HAL_NVIC_SetPriority>
 8001094:	606e      	str	r6, [r5, #4]
 8001096:	4620      	mov	r0, r4
 8001098:	bd70      	pop	{r4, r5, r6, pc}
 800109a:	bf00      	nop

0800109c <HAL_Init>:
 800109c:	b508      	push	{r3, lr}
 800109e:	f44f 5370 	mov.w	r3, #15360	; 0x3c00
 80010a2:	f2c4 0302 	movt	r3, #16386	; 0x4002
 80010a6:	2003      	movs	r0, #3
 80010a8:	681a      	ldr	r2, [r3, #0]
 80010aa:	f442 7200 	orr.w	r2, r2, #512	; 0x200
 80010ae:	601a      	str	r2, [r3, #0]
 80010b0:	681a      	ldr	r2, [r3, #0]
 80010b2:	f442 6280 	orr.w	r2, r2, #1024	; 0x400
 80010b6:	601a      	str	r2, [r3, #0]
 80010b8:	681a      	ldr	r2, [r3, #0]
 80010ba:	f442 7280 	orr.w	r2, r2, #256	; 0x100
 80010be:	601a      	str	r2, [r3, #0]
 80010c0:	f000 f8d8 	bl	8001274 <HAL_NVIC_SetPriorityGrouping>
 80010c4:	2000      	movs	r0, #0
 80010c6:	f7ff ffc5 	bl	8001054 <HAL_InitTick>
 80010ca:	f7ff f8fb 	bl	80002c4 <HAL_MspInit>
 80010ce:	2000      	movs	r0, #0
 80010d0:	bd08      	pop	{r3, pc}
 80010d2:	bf00      	nop

080010d4 <HAL_IncTick>:
 80010d4:	f644 4318 	movw	r3, #19480	; 0x4c18
 80010d8:	f240 0104 	movw	r1, #4
 80010dc:	f2c2 0300 	movt	r3, #8192	; 0x2000
 80010e0:	f2c2 0100 	movt	r1, #8192	; 0x2000
 80010e4:	6818      	ldr	r0, [r3, #0]
 80010e6:	780a      	ldrb	r2, [r1, #0]
 80010e8:	4402      	add	r2, r0
 80010ea:	601a      	str	r2, [r3, #0]
 80010ec:	4770      	bx	lr
 80010ee:	bf00      	nop

080010f0 <HAL_GetTick>:
 80010f0:	f644 4318 	movw	r3, #19480	; 0x4c18
 80010f4:	f2c2 0300 	movt	r3, #8192	; 0x2000
 80010f8:	6818      	ldr	r0, [r3, #0]
 80010fa:	4770      	bx	lr

080010fc <HAL_GetTickPrio>:
 80010fc:	f240 0304 	movw	r3, #4
 8001100:	f2c2 0300 	movt	r3, #8192	; 0x2000
 8001104:	6858      	ldr	r0, [r3, #4]
 8001106:	4770      	bx	lr

08001108 <HAL_SetTickFreq>:
 8001108:	b538      	push	{r3, r4, r5, lr}
 800110a:	f240 0404 	movw	r4, #4
 800110e:	f2c2 0400 	movt	r4, #8192	; 0x2000
 8001112:	7825      	ldrb	r5, [r4, #0]
 8001114:	4285      	cmp	r5, r0
 8001116:	d101      	bne.n	800111c <HAL_SetTickFreq+0x14>
 8001118:	2000      	movs	r0, #0
 800111a:	bd38      	pop	{r3, r4, r5, pc}
 800111c:	4603      	mov	r3, r0
 800111e:	6860      	ldr	r0, [r4, #4]
 8001120:	7023      	strb	r3, [r4, #0]
 8001122:	f7ff ff97 	bl	8001054 <HAL_InitTick>
 8001126:	2800      	cmp	r0, #0
 8001128:	d0f7      	beq.n	800111a <HAL_SetTickFreq+0x12>
 800112a:	7025      	strb	r5, [r4, #0]
 800112c:	bd38      	pop	{r3, r4, r5, pc}
 800112e:	bf00      	nop

08001130 <HAL_GetTickFreq>:
 8001130:	f240 0304 	movw	r3, #4
 8001134:	f2c2 0300 	movt	r3, #8192	; 0x2000
 8001138:	7818      	ldrb	r0, [r3, #0]
 800113a:	4770      	bx	lr

0800113c <HAL_Delay>:
 800113c:	b538      	push	{r3, r4, r5, lr}
 800113e:	4604      	mov	r4, r0
 8001140:	f7ff ffd6 	bl	80010f0 <HAL_GetTick>
 8001144:	1c63      	adds	r3, r4, #1
 8001146:	4605      	mov	r5, r0
 8001148:	d005      	beq.n	8001156 <HAL_Delay+0x1a>
 800114a:	f240 0304 	movw	r3, #4
 800114e:	f2c2 0300 	movt	r3, #8192	; 0x2000
 8001152:	781b      	ldrb	r3, [r3, #0]
 8001154:	441c      	add	r4, r3
 8001156:	f7ff ffcb 	bl	80010f0 <HAL_GetTick>
 800115a:	1b43      	subs	r3, r0, r5
 800115c:	42a3      	cmp	r3, r4
 800115e:	d3fa      	bcc.n	8001156 <HAL_Delay+0x1a>
 8001160:	bd38      	pop	{r3, r4, r5, pc}
 8001162:	bf00      	nop

08001164 <HAL_SuspendTick>:
 8001164:	f24e 0310 	movw	r3, #57360	; 0xe010
 8001168:	f2ce 0300 	movt	r3, #57344	; 0xe000
 800116c:	681a      	ldr	r2, [r3, #0]
 800116e:	f022 0202 	bic.w	r2, r2, #2
 8001172:	601a      	str	r2, [r3, #0]
 8001174:	4770      	bx	lr
 8001176:	bf00      	nop

08001178 <HAL_ResumeTick>:
 8001178:	f24e 0310 	movw	r3, #57360	; 0xe010
 800117c:	f2ce 0300 	movt	r3, #57344	; 0xe000
 8001180:	681a      	ldr	r2, [r3, #0]
 8001182:	f042 0202 	orr.w	r2, r2, #2
 8001186:	601a      	str	r2, [r3, #0]
 8001188:	4770      	bx	lr
 800118a:	bf00      	nop

0800118c <HAL_GetHalVersion>:
 800118c:	f44f 6050 	mov.w	r0, #3328	; 0xd00
 8001190:	f2c0 1007 	movt	r0, #263	; 0x107
 8001194:	4770      	bx	lr
 8001196:	bf00      	nop

08001198 <HAL_GetREVID>:
 8001198:	f44f 5300 	mov.w	r3, #8192	; 0x2000
 800119c:	f2ce 0304 	movt	r3, #57348	; 0xe004
 80011a0:	6818      	ldr	r0, [r3, #0]
 80011a2:	0c00      	lsrs	r0, r0, #16
 80011a4:	4770      	bx	lr
 80011a6:	bf00      	nop

080011a8 <HAL_GetDEVID>:
 80011a8:	f44f 5300 	mov.w	r3, #8192	; 0x2000
 80011ac:	f2ce 0304 	movt	r3, #57348	; 0xe004
 80011b0:	6818      	ldr	r0, [r3, #0]
 80011b2:	f3c0 000b 	ubfx	r0, r0, #0, #12
 80011b6:	4770      	bx	lr

080011b8 <HAL_DBGMCU_EnableDBGSleepMode>:
 80011b8:	f44f 5300 	mov.w	r3, #8192	; 0x2000
 80011bc:	f2ce 0304 	movt	r3, #57348	; 0xe004
 80011c0:	685a      	ldr	r2, [r3, #4]
 80011c2:	f042 0201 	orr.w	r2, r2, #1
 80011c6:	605a      	str	r2, [r3, #4]
 80011c8:	4770      	bx	lr
 80011ca:	bf00      	nop

080011cc <HAL_DBGMCU_DisableDBGSleepMode>:
 80011cc:	f44f 5300 	mov.w	r3, #8192	; 0x2000
 80011d0:	f2ce 0304 	movt	r3, #57348	; 0xe004
 80011d4:	685a      	ldr	r2, [r3, #4]
 80011d6:	f022 0201 	bic.w	r2, r2, #1
 80011da:	605a      	str	r2, [r3, #4]
 80011dc:	4770      	bx	lr
 80011de:	bf00      	nop

080011e0 <HAL_DBGMCU_EnableDBGStopMode>:
 80011e0:	f44f 5300 	mov.w	r3, #8192	; 0x2000
 80011e4:	f2ce 0304 	movt	r3, #57348	; 0xe004
 80011e8:	685a      	ldr	r2, [r3, #4]
 80011ea:	f042 0202 	orr.w	r2, r2, #2
 80011ee:	605a      	str	r2, [r3, #4]
 80011f0:	4770      	bx	lr
 80011f2:	bf00      	nop

080011f4 <HAL_DBGMCU_DisableDBGStopMode>:
 80011f4:	f44f 5300 	mov.w	r3, #8192	; 0x2000
 80011f8:	f2ce 0304 	movt	r3, #57348	; 0xe004
 80011fc:	685a      	ldr	r2, [r3, #4]
 80011fe:	f022 0202 	bic.w	r2, r2, #2
 8001202:	605a      	str	r2, [r3, #4]
 8001204:	4770      	bx	lr
 8001206:	bf00      	nop

08001208 <HAL_DBGMCU_EnableDBGStandbyMode>:
 8001208:	f44f 5300 	mov.w	r3, #8192	; 0x2000
 800120c:	f2ce 0304 	movt	r3, #57348	; 0xe004
 8001210:	685a      	ldr	r2, [r3, #4]
 8001212:	f042 0204 	orr.w	r2, r2, #4
 8001216:	605a      	str	r2, [r3, #4]
 8001218:	4770      	bx	lr
 800121a:	bf00      	nop

0800121c <HAL_DBGMCU_DisableDBGStandbyMode>:
 800121c:	f44f 5300 	mov.w	r3, #8192	; 0x2000
 8001220:	f2ce 0304 	movt	r3, #57348	; 0xe004
 8001224:	685a      	ldr	r2, [r3, #4]
 8001226:	f022 0204 	bic.w	r2, r2, #4
 800122a:	605a      	str	r2, [r3, #4]
 800122c:	4770      	bx	lr
 800122e:	bf00      	nop

08001230 <HAL_EnableCompensationCell>:
 8001230:	f44f 6380 	mov.w	r3, #1024	; 0x400
 8001234:	f2c4 2327 	movt	r3, #16935	; 0x4227
 8001238:	2201      	movs	r2, #1
 800123a:	601a      	str	r2, [r3, #0]
 800123c:	4770      	bx	lr
 800123e:	bf00      	nop

08001240 <HAL_DisableCompensationCell>:
 8001240:	f44f 6380 	mov.w	r3, #1024	; 0x400
 8001244:	f2c4 2327 	movt	r3, #16935	; 0x4227
 8001248:	2200      	movs	r2, #0
 800124a:	601a      	str	r2, [r3, #0]
 800124c:	4770      	bx	lr
 800124e:	bf00      	nop

08001250 <HAL_GetUIDw0>:
 8001250:	f647 2310 	movw	r3, #31248	; 0x7a10
 8001254:	f6c1 73ff 	movt	r3, #8191	; 0x1fff
 8001258:	6818      	ldr	r0, [r3, #0]
 800125a:	4770      	bx	lr

0800125c <HAL_GetUIDw1>:
 800125c:	f647 2314 	movw	r3, #31252	; 0x7a14
 8001260:	f6c1 73ff 	movt	r3, #8191	; 0x1fff
 8001264:	6818      	ldr	r0, [r3, #0]
 8001266:	4770      	bx	lr

08001268 <HAL_GetUIDw2>:
 8001268:	f647 2318 	movw	r3, #31256	; 0x7a18
 800126c:	f6c1 73ff 	movt	r3, #8191	; 0x1fff
 8001270:	6818      	ldr	r0, [r3, #0]
 8001272:	4770      	bx	lr

08001274 <HAL_NVIC_SetPriorityGrouping>:
 8001274:	f44f 426d 	mov.w	r2, #60672	; 0xed00
 8001278:	f2ce 0200 	movt	r2, #57344	; 0xe000
 800127c:	b410      	push	{r4}
 800127e:	68d1      	ldr	r1, [r2, #12]
 8001280:	f64f 04ff 	movw	r4, #63743	; 0xf8ff
 8001284:	0200      	lsls	r0, r0, #8
 8001286:	4021      	ands	r1, r4
 8001288:	f400 63e0 	and.w	r3, r0, #1792	; 0x700
 800128c:	430b      	orrs	r3, r1
 800128e:	f043 63bf 	orr.w	r3, r3, #100139008	; 0x5f80000
 8001292:	f443 3300 	orr.w	r3, r3, #131072	; 0x20000
 8001296:	f85d 4b04 	ldr.w	r4, [sp], #4
 800129a:	60d3      	str	r3, [r2, #12]
 800129c:	4770      	bx	lr
 800129e:	bf00      	nop

080012a0 <HAL_NVIC_SetPriority>:
 80012a0:	f44f 436d 	mov.w	r3, #60672	; 0xed00
 80012a4:	f2ce 0300 	movt	r3, #57344	; 0xe000
 80012a8:	b430      	push	{r4, r5}
 80012aa:	68db      	ldr	r3, [r3, #12]
 80012ac:	f3c3 2302 	ubfx	r3, r3, #8, #3
 80012b0:	f1c3 0507 	rsb	r5, r3, #7
 80012b4:	2d04      	cmp	r5, #4
 80012b6:	f103 0404 	add.w	r4, r3, #4
 80012ba:	bf28      	it	cs
 80012bc:	2504      	movcs	r5, #4
 80012be:	2c06      	cmp	r4, #6
 80012c0:	d919      	bls.n	80012f6 <HAL_NVIC_SetPriority+0x56>
 80012c2:	3b03      	subs	r3, #3
 80012c4:	f04f 34ff 	mov.w	r4, #4294967295	; 0xffffffff
 80012c8:	409c      	lsls	r4, r3
 80012ca:	ea22 0204 	bic.w	r2, r2, r4
 80012ce:	f04f 34ff 	mov.w	r4, #4294967295	; 0xffffffff
 80012d2:	40ac      	lsls	r4, r5
 80012d4:	ea21 0104 	bic.w	r1, r1, r4
 80012d8:	4099      	lsls	r1, r3
 80012da:	2800      	cmp	r0, #0
 80012dc:	ea41 0102 	orr.w	r1, r1, r2
 80012e0:	db0c      	blt.n	80012fc <HAL_NVIC_SetPriority+0x5c>
 80012e2:	f100 4060 	add.w	r0, r0, #3758096384	; 0xe0000000
 80012e6:	f500 4061 	add.w	r0, r0, #57600	; 0xe100
 80012ea:	0109      	lsls	r1, r1, #4
 80012ec:	b2c9      	uxtb	r1, r1
 80012ee:	f880 1300 	strb.w	r1, [r0, #768]	; 0x300
 80012f2:	bc30      	pop	{r4, r5}
 80012f4:	4770      	bx	lr
 80012f6:	2200      	movs	r2, #0
 80012f8:	4613      	mov	r3, r2
 80012fa:	e7e8      	b.n	80012ce <HAL_NVIC_SetPriority+0x2e>
 80012fc:	f64e 43fc 	movw	r3, #60668	; 0xecfc
 8001300:	f000 000f 	and.w	r0, r0, #15
 8001304:	f2ce 0300 	movt	r3, #57344	; 0xe000
 8001308:	0109      	lsls	r1, r1, #4
 800130a:	4403      	add	r3, r0
 800130c:	b2c9      	uxtb	r1, r1
 800130e:	7619      	strb	r1, [r3, #24]
 8001310:	bc30      	pop	{r4, r5}
 8001312:	4770      	bx	lr

08001314 <HAL_NVIC_EnableIRQ>:
 8001314:	2800      	cmp	r0, #0
 8001316:	db0a      	blt.n	800132e <HAL_NVIC_EnableIRQ+0x1a>
 8001318:	f44f 4261 	mov.w	r2, #57600	; 0xe100
 800131c:	f000 011f 	and.w	r1, r0, #31
 8001320:	f2ce 0200 	movt	r2, #57344	; 0xe000
 8001324:	0940      	lsrs	r0, r0, #5
 8001326:	2301      	movs	r3, #1
 8001328:	408b      	lsls	r3, r1
 800132a:	f842 3020 	str.w	r3, [r2, r0, lsl #2]
 800132e:	4770      	bx	lr

08001330 <HAL_NVIC_DisableIRQ>:
 8001330:	2800      	cmp	r0, #0
 8001332:	db10      	blt.n	8001356 <HAL_NVIC_DisableIRQ+0x26>
 8001334:	0943      	lsrs	r3, r0, #5
 8001336:	f44f 4161 	mov.w	r1, #57600	; 0xe100
 800133a:	3320      	adds	r3, #32
 800133c:	2201      	movs	r2, #1
 800133e:	f2ce 0100 	movt	r1, #57344	; 0xe000
 8001342:	f000 001f 	and.w	r0, r0, #31
 8001346:	fa02 f000 	lsl.w	r0, r2, r0
 800134a:	f841 0023 	str.w	r0, [r1, r3, lsl #2]
 800134e:	f3bf 8f4f 	dsb	sy
 8001352:	f3bf 8f6f 	isb	sy
 8001356:	4770      	bx	lr

08001358 <HAL_NVIC_SystemReset>:
 8001358:	f3bf 8f4f 	dsb	sy
 800135c:	f44f 426d 	mov.w	r2, #60672	; 0xed00
 8001360:	f2ce 0200 	movt	r2, #57344	; 0xe000
 8001364:	2304      	movs	r3, #4
 8001366:	68d1      	ldr	r1, [r2, #12]
 8001368:	f2c0 53fa 	movt	r3, #1530	; 0x5fa
 800136c:	f401 61e0 	and.w	r1, r1, #1792	; 0x700
 8001370:	430b      	orrs	r3, r1
 8001372:	60d3      	str	r3, [r2, #12]
 8001374:	f3bf 8f4f 	dsb	sy
 8001378:	bf00      	nop
 800137a:	e7fd      	b.n	8001378 <HAL_NVIC_SystemReset+0x20>

0800137c <HAL_SYSTICK_Config>:
 800137c:	3801      	subs	r0, #1
 800137e:	f1b0 7f80 	cmp.w	r0, #16777216	; 0x1000000
 8001382:	d213      	bcs.n	80013ac <HAL_SYSTICK_Config+0x30>
 8001384:	b430      	push	{r4, r5}
 8001386:	f24e 0310 	movw	r3, #57360	; 0xe010
 800138a:	f44f 416d 	mov.w	r1, #60672	; 0xed00
 800138e:	f2ce 0300 	movt	r3, #57344	; 0xe000
 8001392:	f2ce 0100 	movt	r1, #57344	; 0xe000
 8001396:	25f0      	movs	r5, #240	; 0xf0
 8001398:	6058      	str	r0, [r3, #4]
 800139a:	2200      	movs	r2, #0
 800139c:	f881 5023 	strb.w	r5, [r1, #35]	; 0x23
 80013a0:	2407      	movs	r4, #7
 80013a2:	4610      	mov	r0, r2
 80013a4:	609a      	str	r2, [r3, #8]
 80013a6:	601c      	str	r4, [r3, #0]
 80013a8:	bc30      	pop	{r4, r5}
 80013aa:	4770      	bx	lr
 80013ac:	2001      	movs	r0, #1
 80013ae:	4770      	bx	lr

080013b0 <HAL_MPU_Disable>:
 80013b0:	f3bf 8f5f 	dmb	sy
 80013b4:	f44f 436d 	mov.w	r3, #60672	; 0xed00
 80013b8:	f2ce 0300 	movt	r3, #57344	; 0xe000
 80013bc:	f64e 5190 	movw	r1, #60816	; 0xed90
 80013c0:	6a5a      	ldr	r2, [r3, #36]	; 0x24
 80013c2:	f2ce 0100 	movt	r1, #57344	; 0xe000
 80013c6:	f422 3280 	bic.w	r2, r2, #65536	; 0x10000
 80013ca:	2000      	movs	r0, #0
 80013cc:	625a      	str	r2, [r3, #36]	; 0x24
 80013ce:	6048      	str	r0, [r1, #4]
 80013d0:	4770      	bx	lr
 80013d2:	bf00      	nop

080013d4 <HAL_MPU_Enable>:
 80013d4:	f64e 5290 	movw	r2, #60816	; 0xed90
 80013d8:	f2ce 0200 	movt	r2, #57344	; 0xe000
 80013dc:	f44f 436d 	mov.w	r3, #60672	; 0xed00
 80013e0:	f2ce 0300 	movt	r3, #57344	; 0xe000
 80013e4:	f040 0001 	orr.w	r0, r0, #1
 80013e8:	6050      	str	r0, [r2, #4]
 80013ea:	6a5a      	ldr	r2, [r3, #36]	; 0x24
 80013ec:	f442 3280 	orr.w	r2, r2, #65536	; 0x10000
 80013f0:	625a      	str	r2, [r3, #36]	; 0x24
 80013f2:	f3bf 8f4f 	dsb	sy
 80013f6:	f3bf 8f6f 	isb	sy
 80013fa:	4770      	bx	lr

080013fc <HAL_MPU_ConfigRegion>:
 80013fc:	f64e 5190 	movw	r1, #60816	; 0xed90
 8001400:	f2ce 0100 	movt	r1, #57344	; 0xe000
 8001404:	7843      	ldrb	r3, [r0, #1]
 8001406:	608b      	str	r3, [r1, #8]
 8001408:	7802      	ldrb	r2, [r0, #0]
 800140a:	b1ea      	cbz	r2, 8001448 <HAL_MPU_ConfigRegion+0x4c>
 800140c:	6843      	ldr	r3, [r0, #4]
 800140e:	b470      	push	{r4, r5, r6}
 8001410:	60cb      	str	r3, [r1, #12]
 8001412:	7ac3      	ldrb	r3, [r0, #11]
 8001414:	7b05      	ldrb	r5, [r0, #12]
 8001416:	7a84      	ldrb	r4, [r0, #10]
 8001418:	7b86      	ldrb	r6, [r0, #14]
 800141a:	061b      	lsls	r3, r3, #24
 800141c:	ea43 7305 	orr.w	r3, r3, r5, lsl #28
 8001420:	4313      	orrs	r3, r2
 8001422:	7b42      	ldrb	r2, [r0, #13]
 8001424:	7bc5      	ldrb	r5, [r0, #15]
 8001426:	ea43 43c4 	orr.w	r3, r3, r4, lsl #19
 800142a:	ea43 4382 	orr.w	r3, r3, r2, lsl #18
 800142e:	7a44      	ldrb	r4, [r0, #9]
 8001430:	7a02      	ldrb	r2, [r0, #8]
 8001432:	ea43 4346 	orr.w	r3, r3, r6, lsl #17
 8001436:	ea43 4305 	orr.w	r3, r3, r5, lsl #16
 800143a:	ea43 2304 	orr.w	r3, r3, r4, lsl #8
 800143e:	ea43 0342 	orr.w	r3, r3, r2, lsl #1
 8001442:	bc70      	pop	{r4, r5, r6}
 8001444:	610b      	str	r3, [r1, #16]
 8001446:	4770      	bx	lr
 8001448:	60ca      	str	r2, [r1, #12]
 800144a:	610a      	str	r2, [r1, #16]
 800144c:	4770      	bx	lr
 800144e:	bf00      	nop

08001450 <HAL_NVIC_GetPriorityGrouping>:
 8001450:	f44f 436d 	mov.w	r3, #60672	; 0xed00
 8001454:	f2ce 0300 	movt	r3, #57344	; 0xe000
 8001458:	68d8      	ldr	r0, [r3, #12]
 800145a:	f3c0 2002 	ubfx	r0, r0, #8, #3
 800145e:	4770      	bx	lr

08001460 <HAL_NVIC_GetPriority>:
 8001460:	2800      	cmp	r0, #0
 8001462:	b430      	push	{r4, r5}
 8001464:	db23      	blt.n	80014ae <HAL_NVIC_GetPriority+0x4e>
 8001466:	f100 4060 	add.w	r0, r0, #3758096384	; 0xe0000000
 800146a:	f500 4061 	add.w	r0, r0, #57600	; 0xe100
 800146e:	f890 0300 	ldrb.w	r0, [r0, #768]	; 0x300
 8001472:	0900      	lsrs	r0, r0, #4
 8001474:	f001 0107 	and.w	r1, r1, #7
 8001478:	f1c1 0507 	rsb	r5, r1, #7
 800147c:	2d04      	cmp	r5, #4
 800147e:	f101 0404 	add.w	r4, r1, #4
 8001482:	bf28      	it	cs
 8001484:	2504      	movcs	r5, #4
 8001486:	2c06      	cmp	r4, #6
 8001488:	d90f      	bls.n	80014aa <HAL_NVIC_GetPriority+0x4a>
 800148a:	3903      	subs	r1, #3
 800148c:	f04f 34ff 	mov.w	r4, #4294967295	; 0xffffffff
 8001490:	408c      	lsls	r4, r1
 8001492:	ea20 0404 	bic.w	r4, r0, r4
 8001496:	40c8      	lsrs	r0, r1
 8001498:	f04f 31ff 	mov.w	r1, #4294967295	; 0xffffffff
 800149c:	40a9      	lsls	r1, r5
 800149e:	ea20 0001 	bic.w	r0, r0, r1
 80014a2:	6010      	str	r0, [r2, #0]
 80014a4:	601c      	str	r4, [r3, #0]
 80014a6:	bc30      	pop	{r4, r5}
 80014a8:	4770      	bx	lr
 80014aa:	2400      	movs	r4, #0
 80014ac:	e7f4      	b.n	8001498 <HAL_NVIC_GetPriority+0x38>
 80014ae:	f64e 44fc 	movw	r4, #60668	; 0xecfc
 80014b2:	f000 000f 	and.w	r0, r0, #15
 80014b6:	f2ce 0400 	movt	r4, #57344	; 0xe000
 80014ba:	4404      	add	r4, r0
 80014bc:	7e20      	ldrb	r0, [r4, #24]
 80014be:	0900      	lsrs	r0, r0, #4
 80014c0:	e7d8      	b.n	8001474 <HAL_NVIC_GetPriority+0x14>
 80014c2:	bf00      	nop

080014c4 <HAL_NVIC_SetPendingIRQ>:
 80014c4:	2800      	cmp	r0, #0
 80014c6:	db0c      	blt.n	80014e2 <HAL_NVIC_SetPendingIRQ+0x1e>
 80014c8:	0943      	lsrs	r3, r0, #5
 80014ca:	f44f 4161 	mov.w	r1, #57600	; 0xe100
 80014ce:	3340      	adds	r3, #64	; 0x40
 80014d0:	f000 001f 	and.w	r0, r0, #31
 80014d4:	2201      	movs	r2, #1
 80014d6:	f2ce 0100 	movt	r1, #57344	; 0xe000
 80014da:	fa02 f000 	lsl.w	r0, r2, r0
 80014de:	f841 0023 	str.w	r0, [r1, r3, lsl #2]
 80014e2:	4770      	bx	lr

080014e4 <HAL_NVIC_GetPendingIRQ>:
 80014e4:	2800      	cmp	r0, #0
 80014e6:	db0e      	blt.n	8001506 <HAL_NVIC_GetPendingIRQ+0x22>
 80014e8:	0943      	lsrs	r3, r0, #5
 80014ea:	f44f 4261 	mov.w	r2, #57600	; 0xe100
 80014ee:	f2ce 0200 	movt	r2, #57344	; 0xe000
 80014f2:	3340      	adds	r3, #64	; 0x40
 80014f4:	f000 001f 	and.w	r0, r0, #31
 80014f8:	f852 3023 	ldr.w	r3, [r2, r3, lsl #2]
 80014fc:	fa23 f000 	lsr.w	r0, r3, r0
 8001500:	f000 0001 	and.w	r0, r0, #1
 8001504:	4770      	bx	lr
 8001506:	2000      	movs	r0, #0
 8001508:	4770      	bx	lr
 800150a:	bf00      	nop

0800150c <HAL_NVIC_ClearPendingIRQ>:
 800150c:	2800      	cmp	r0, #0
 800150e:	db0c      	blt.n	800152a <HAL_NVIC_ClearPendingIRQ+0x1e>
 8001510:	0943      	lsrs	r3, r0, #5
 8001512:	f44f 4161 	mov.w	r1, #57600	; 0xe100
 8001516:	3360      	adds	r3, #96	; 0x60
 8001518:	f000 001f 	and.w	r0, r0, #31
 800151c:	2201      	movs	r2, #1
 800151e:	f2ce 0100 	movt	r1, #57344	; 0xe000
 8001522:	fa02 f000 	lsl.w	r0, r2, r0
 8001526:	f841 0023 	str.w	r0, [r1, r3, lsl #2]
 800152a:	4770      	bx	lr

0800152c <HAL_NVIC_GetActive>:
 800152c:	2800      	cmp	r0, #0
 800152e:	db0e      	blt.n	800154e <HAL_NVIC_GetActive+0x22>
 8001530:	0943      	lsrs	r3, r0, #5
 8001532:	f44f 4261 	mov.w	r2, #57600	; 0xe100
 8001536:	f2ce 0200 	movt	r2, #57344	; 0xe000
 800153a:	3380      	adds	r3, #128	; 0x80
 800153c:	f000 001f 	and.w	r0, r0, #31
 8001540:	f852 3023 	ldr.w	r3, [r2, r3, lsl #2]
 8001544:	fa23 f000 	lsr.w	r0, r3, r0
 8001548:	f000 0001 	and.w	r0, r0, #1
 800154c:	4770      	bx	lr
 800154e:	2000      	movs	r0, #0
 8001550:	4770      	bx	lr
 8001552:	bf00      	nop

08001554 <HAL_SYSTICK_CLKSourceConfig>:
 8001554:	f24e 0310 	movw	r3, #57360	; 0xe010
 8001558:	f2ce 0300 	movt	r3, #57344	; 0xe000
 800155c:	2804      	cmp	r0, #4
 800155e:	681a      	ldr	r2, [r3, #0]
 8001560:	bf0c      	ite	eq
 8001562:	f042 0204 	orreq.w	r2, r2, #4
 8001566:	f022 0204 	bicne.w	r2, r2, #4
 800156a:	601a      	str	r2, [r3, #0]
 800156c:	4770      	bx	lr
 800156e:	bf00      	nop

08001570 <HAL_SYSTICK_Callback>:
 8001570:	4770      	bx	lr
 8001572:	bf00      	nop

08001574 <HAL_SYSTICK_IRQHandler>:
 8001574:	b508      	push	{r3, lr}
 8001576:	f7ff fffb 	bl	8001570 <HAL_SYSTICK_Callback>
 800157a:	bd08      	pop	{r3, pc}
 800157c:	4770      	bx	lr
 800157e:	bf00      	nop

08001580 <HAL_CRC_Init>:
 8001580:	b180      	cbz	r0, 80015a4 <HAL_CRC_Init+0x24>
 8001582:	b510      	push	{r4, lr}
 8001584:	7943      	ldrb	r3, [r0, #5]
 8001586:	4604      	mov	r4, r0
 8001588:	f003 02ff 	and.w	r2, r3, #255	; 0xff
 800158c:	b11b      	cbz	r3, 8001596 <HAL_CRC_Init+0x16>
 800158e:	2301      	movs	r3, #1
 8001590:	7163      	strb	r3, [r4, #5]
 8001592:	2000      	movs	r0, #0
 8001594:	bd10      	pop	{r4, pc}
 8001596:	7102      	strb	r2, [r0, #4]
 8001598:	f7fe feb2 	bl	8000300 <HAL_CRC_MspInit>
 800159c:	2301      	movs	r3, #1
 800159e:	7163      	strb	r3, [r4, #5]
 80015a0:	2000      	movs	r0, #0
 80015a2:	bd10      	pop	{r4, pc}
 80015a4:	2001      	movs	r0, #1
 80015a6:	4770      	bx	lr
 80015a8:	4770      	bx	lr
 80015aa:	bf00      	nop

080015ac <HAL_CRC_DeInit>:
 80015ac:	b538      	push	{r3, r4, r5, lr}
 80015ae:	b1a0      	cbz	r0, 80015da <HAL_CRC_DeInit+0x2e>
 80015b0:	7943      	ldrb	r3, [r0, #5]
 80015b2:	2b02      	cmp	r3, #2
 80015b4:	4604      	mov	r4, r0
 80015b6:	b2dd      	uxtb	r5, r3
 80015b8:	d00d      	beq.n	80015d6 <HAL_CRC_DeInit+0x2a>
 80015ba:	6803      	ldr	r3, [r0, #0]
 80015bc:	2202      	movs	r2, #2
 80015be:	7142      	strb	r2, [r0, #5]
 80015c0:	689a      	ldr	r2, [r3, #8]
 80015c2:	f042 0201 	orr.w	r2, r2, #1
 80015c6:	609a      	str	r2, [r3, #8]
 80015c8:	2500      	movs	r5, #0
 80015ca:	791a      	ldrb	r2, [r3, #4]
 80015cc:	711d      	strb	r5, [r3, #4]
 80015ce:	f7fe feb1 	bl	8000334 <HAL_CRC_MspDeInit>
 80015d2:	7165      	strb	r5, [r4, #5]
 80015d4:	7125      	strb	r5, [r4, #4]
 80015d6:	4628      	mov	r0, r5
 80015d8:	bd38      	pop	{r3, r4, r5, pc}
 80015da:	2501      	movs	r5, #1
 80015dc:	4628      	mov	r0, r5
 80015de:	bd38      	pop	{r3, r4, r5, pc}

080015e0 <HAL_CRC_Accumulate>:
 80015e0:	2302      	movs	r3, #2
 80015e2:	b430      	push	{r4, r5}
 80015e4:	4605      	mov	r5, r0
 80015e6:	7143      	strb	r3, [r0, #5]
 80015e8:	b16a      	cbz	r2, 8001606 <HAL_CRC_Accumulate+0x26>
 80015ea:	3904      	subs	r1, #4
 80015ec:	6804      	ldr	r4, [r0, #0]
 80015ee:	eb01 0282 	add.w	r2, r1, r2, lsl #2
 80015f2:	f851 3f04 	ldr.w	r3, [r1, #4]!
 80015f6:	6023      	str	r3, [r4, #0]
 80015f8:	4291      	cmp	r1, r2
 80015fa:	d1fa      	bne.n	80015f2 <HAL_CRC_Accumulate+0x12>
 80015fc:	2301      	movs	r3, #1
 80015fe:	6820      	ldr	r0, [r4, #0]
 8001600:	716b      	strb	r3, [r5, #5]
 8001602:	bc30      	pop	{r4, r5}
 8001604:	4770      	bx	lr
 8001606:	6804      	ldr	r4, [r0, #0]
 8001608:	2301      	movs	r3, #1
 800160a:	6820      	ldr	r0, [r4, #0]
 800160c:	716b      	strb	r3, [r5, #5]
 800160e:	bc30      	pop	{r4, r5}
 8001610:	4770      	bx	lr
 8001612:	bf00      	nop

08001614 <HAL_CRC_Calculate>:
 8001614:	b430      	push	{r4, r5}
 8001616:	2302      	movs	r3, #2
 8001618:	6804      	ldr	r4, [r0, #0]
 800161a:	7143      	strb	r3, [r0, #5]
 800161c:	68a3      	ldr	r3, [r4, #8]
 800161e:	f043 0301 	orr.w	r3, r3, #1
 8001622:	4605      	mov	r5, r0
 8001624:	60a3      	str	r3, [r4, #8]
 8001626:	b13a      	cbz	r2, 8001638 <HAL_CRC_Calculate+0x24>
 8001628:	3904      	subs	r1, #4
 800162a:	eb01 0282 	add.w	r2, r1, r2, lsl #2
 800162e:	f851 3f04 	ldr.w	r3, [r1, #4]!
 8001632:	6023      	str	r3, [r4, #0]
 8001634:	4291      	cmp	r1, r2
 8001636:	d1fa      	bne.n	800162e <HAL_CRC_Calculate+0x1a>
 8001638:	2301      	movs	r3, #1
 800163a:	6820      	ldr	r0, [r4, #0]
 800163c:	716b      	strb	r3, [r5, #5]
 800163e:	bc30      	pop	{r4, r5}
 8001640:	4770      	bx	lr
 8001642:	bf00      	nop

08001644 <HAL_CRC_GetState>:
 8001644:	7940      	ldrb	r0, [r0, #5]
 8001646:	4770      	bx	lr

08001648 <HAL_DMA_Init>:
 8001648:	b5f8      	push	{r3, r4, r5, r6, r7, lr}
 800164a:	4604      	mov	r4, r0
 800164c:	f7ff fd50 	bl	80010f0 <HAL_GetTick>
 8001650:	2c00      	cmp	r4, #0
 8001652:	d05d      	beq.n	8001710 <HAL_DMA_Init+0xc8>
 8001654:	6823      	ldr	r3, [r4, #0]
 8001656:	2200      	movs	r2, #0
 8001658:	2102      	movs	r1, #2
 800165a:	f884 1035 	strb.w	r1, [r4, #53]	; 0x35
 800165e:	f884 2034 	strb.w	r2, [r4, #52]	; 0x34
 8001662:	681a      	ldr	r2, [r3, #0]
 8001664:	f022 0201 	bic.w	r2, r2, #1
 8001668:	4605      	mov	r5, r0
 800166a:	601a      	str	r2, [r3, #0]
 800166c:	e005      	b.n	800167a <HAL_DMA_Init+0x32>
 800166e:	f7ff fd3f 	bl	80010f0 <HAL_GetTick>
 8001672:	1b43      	subs	r3, r0, r5
 8001674:	2b05      	cmp	r3, #5
 8001676:	d844      	bhi.n	8001702 <HAL_DMA_Init+0xba>
 8001678:	6823      	ldr	r3, [r4, #0]
 800167a:	681a      	ldr	r2, [r3, #0]
 800167c:	07d1      	lsls	r1, r2, #31
 800167e:	d4f6      	bmi.n	800166e <HAL_DMA_Init+0x26>
 8001680:	e9d4 2601 	ldrd	r2, r6, [r4, #4]
 8001684:	e9d4 5003 	ldrd	r5, r0, [r4, #12]
 8001688:	4332      	orrs	r2, r6
 800168a:	432a      	orrs	r2, r5
 800168c:	6961      	ldr	r1, [r4, #20]
 800168e:	6a25      	ldr	r5, [r4, #32]
 8001690:	681f      	ldr	r7, [r3, #0]
 8001692:	4302      	orrs	r2, r0
 8001694:	e9d4 6006 	ldrd	r6, r0, [r4, #24]
 8001698:	430a      	orrs	r2, r1
 800169a:	4332      	orrs	r2, r6
 800169c:	4302      	orrs	r2, r0
 800169e:	f248 013f 	movw	r1, #32831	; 0x803f
 80016a2:	6a60      	ldr	r0, [r4, #36]	; 0x24
 80016a4:	f2cf 0110 	movt	r1, #61456	; 0xf010
 80016a8:	432a      	orrs	r2, r5
 80016aa:	4039      	ands	r1, r7
 80016ac:	2804      	cmp	r0, #4
 80016ae:	ea41 0102 	orr.w	r1, r1, r2
 80016b2:	d02f      	beq.n	8001714 <HAL_DMA_Init+0xcc>
 80016b4:	6019      	str	r1, [r3, #0]
 80016b6:	695a      	ldr	r2, [r3, #20]
 80016b8:	f022 0207 	bic.w	r2, r2, #7
 80016bc:	4310      	orrs	r0, r2
 80016be:	b2da      	uxtb	r2, r3
 80016c0:	f64a 21ab 	movw	r1, #43691	; 0xaaab
 80016c4:	3a10      	subs	r2, #16
 80016c6:	f6ca 21aa 	movt	r1, #43690	; 0xaaaa
 80016ca:	fba1 5102 	umull	r5, r1, r1, r2
 80016ce:	f64c 050c 	movw	r5, #51212	; 0xc80c
 80016d2:	f6c0 0500 	movt	r5, #2048	; 0x800
 80016d6:	0909      	lsrs	r1, r1, #4
 80016d8:	6158      	str	r0, [r3, #20]
 80016da:	f423 737f 	bic.w	r3, r3, #1020	; 0x3fc
 80016de:	5c69      	ldrb	r1, [r5, r1]
 80016e0:	65e1      	str	r1, [r4, #92]	; 0x5c
 80016e2:	f023 0303 	bic.w	r3, r3, #3
 80016e6:	2a5f      	cmp	r2, #95	; 0x5f
 80016e8:	bf88      	it	hi
 80016ea:	3304      	addhi	r3, #4
 80016ec:	223f      	movs	r2, #63	; 0x3f
 80016ee:	408a      	lsls	r2, r1
 80016f0:	2501      	movs	r5, #1
 80016f2:	2100      	movs	r1, #0
 80016f4:	65a3      	str	r3, [r4, #88]	; 0x58
 80016f6:	609a      	str	r2, [r3, #8]
 80016f8:	6561      	str	r1, [r4, #84]	; 0x54
 80016fa:	f884 5035 	strb.w	r5, [r4, #53]	; 0x35
 80016fe:	4608      	mov	r0, r1
 8001700:	bdf8      	pop	{r3, r4, r5, r6, r7, pc}
 8001702:	2303      	movs	r3, #3
 8001704:	2220      	movs	r2, #32
 8001706:	6562      	str	r2, [r4, #84]	; 0x54
 8001708:	f884 3035 	strb.w	r3, [r4, #53]	; 0x35
 800170c:	4618      	mov	r0, r3
 800170e:	bdf8      	pop	{r3, r4, r5, r6, r7, pc}
 8001710:	2001      	movs	r0, #1
 8001712:	bdf8      	pop	{r3, r4, r5, r6, r7, pc}
 8001714:	e9d4 500b 	ldrd	r5, r0, [r4, #44]	; 0x2c
 8001718:	4328      	orrs	r0, r5
 800171a:	4301      	orrs	r1, r0
 800171c:	6aa2      	ldr	r2, [r4, #40]	; 0x28
 800171e:	6019      	str	r1, [r3, #0]
 8001720:	6958      	ldr	r0, [r3, #20]
 8001722:	f020 0007 	bic.w	r0, r0, #7
 8001726:	4310      	orrs	r0, r2
 8001728:	f040 0004 	orr.w	r0, r0, #4
 800172c:	2d00      	cmp	r5, #0
 800172e:	d0c6      	beq.n	80016be <HAL_DMA_Init+0x76>
 8001730:	b17e      	cbz	r6, 8001752 <HAL_DMA_Init+0x10a>
 8001732:	f5b6 5f00 	cmp.w	r6, #8192	; 0x2000
 8001736:	d012      	beq.n	800175e <HAL_DMA_Init+0x116>
 8001738:	2a02      	cmp	r2, #2
 800173a:	d903      	bls.n	8001744 <HAL_DMA_Init+0xfc>
 800173c:	2a03      	cmp	r2, #3
 800173e:	d1be      	bne.n	80016be <HAL_DMA_Init+0x76>
 8001740:	01ea      	lsls	r2, r5, #7
 8001742:	d5bc      	bpl.n	80016be <HAL_DMA_Init+0x76>
 8001744:	2301      	movs	r3, #1
 8001746:	2240      	movs	r2, #64	; 0x40
 8001748:	6562      	str	r2, [r4, #84]	; 0x54
 800174a:	f884 3035 	strb.w	r3, [r4, #53]	; 0x35
 800174e:	4618      	mov	r0, r3
 8001750:	bdf8      	pop	{r3, r4, r5, r6, r7, pc}
 8001752:	2a01      	cmp	r2, #1
 8001754:	d010      	beq.n	8001778 <HAL_DMA_Init+0x130>
 8001756:	f032 0202 	bics.w	r2, r2, #2
 800175a:	d1b0      	bne.n	80016be <HAL_DMA_Init+0x76>
 800175c:	e7f0      	b.n	8001740 <HAL_DMA_Init+0xf8>
 800175e:	2a03      	cmp	r2, #3
 8001760:	d8ad      	bhi.n	80016be <HAL_DMA_Init+0x76>
 8001762:	a101      	add	r1, pc, #4	; (adr r1, 8001768 <HAL_DMA_Init+0x120>)
 8001764:	f851 f022 	ldr.w	pc, [r1, r2, lsl #2]
 8001768:	08001745 	.word	0x08001745
 800176c:	08001741 	.word	0x08001741
 8001770:	08001745 	.word	0x08001745
 8001774:	08001779 	.word	0x08001779
 8001778:	f1b5 7fc0 	cmp.w	r5, #25165824	; 0x1800000
 800177c:	d19f      	bne.n	80016be <HAL_DMA_Init+0x76>
 800177e:	e7e1      	b.n	8001744 <HAL_DMA_Init+0xfc>

08001780 <HAL_DMA_DeInit>:
 8001780:	b430      	push	{r4, r5}
 8001782:	2800      	cmp	r0, #0
 8001784:	d03b      	beq.n	80017fe <HAL_DMA_DeInit+0x7e>
 8001786:	f890 3035 	ldrb.w	r3, [r0, #53]	; 0x35
 800178a:	2b02      	cmp	r3, #2
 800178c:	b2dc      	uxtb	r4, r3
 800178e:	d033      	beq.n	80017f8 <HAL_DMA_DeInit+0x78>
 8001790:	6803      	ldr	r3, [r0, #0]
 8001792:	f64a 22ab 	movw	r2, #43691	; 0xaaab
 8001796:	b2d9      	uxtb	r1, r3
 8001798:	3910      	subs	r1, #16
 800179a:	f6ca 22aa 	movt	r2, #43690	; 0xaaaa
 800179e:	fba2 4201 	umull	r4, r2, r2, r1
 80017a2:	f64c 050c 	movw	r5, #51212	; 0xc80c
 80017a6:	681c      	ldr	r4, [r3, #0]
 80017a8:	0912      	lsrs	r2, r2, #4
 80017aa:	f6c0 0500 	movt	r5, #2048	; 0x800
 80017ae:	f024 0401 	bic.w	r4, r4, #1
 80017b2:	601c      	str	r4, [r3, #0]
 80017b4:	5cad      	ldrb	r5, [r5, r2]
 80017b6:	2421      	movs	r4, #33	; 0x21
 80017b8:	2200      	movs	r2, #0
 80017ba:	601a      	str	r2, [r3, #0]
 80017bc:	605a      	str	r2, [r3, #4]
 80017be:	609a      	str	r2, [r3, #8]
 80017c0:	60da      	str	r2, [r3, #12]
 80017c2:	611a      	str	r2, [r3, #16]
 80017c4:	615c      	str	r4, [r3, #20]
 80017c6:	f423 737f 	bic.w	r3, r3, #1020	; 0x3fc
 80017ca:	f023 0303 	bic.w	r3, r3, #3
 80017ce:	295f      	cmp	r1, #95	; 0x5f
 80017d0:	bf88      	it	hi
 80017d2:	3304      	addhi	r3, #4
 80017d4:	213f      	movs	r1, #63	; 0x3f
 80017d6:	2200      	movs	r2, #0
 80017d8:	40a9      	lsls	r1, r5
 80017da:	e9c0 220f 	strd	r2, r2, [r0, #60]	; 0x3c
 80017de:	e9c0 2211 	strd	r2, r2, [r0, #68]	; 0x44
 80017e2:	e9c0 2213 	strd	r2, r2, [r0, #76]	; 0x4c
 80017e6:	65c5      	str	r5, [r0, #92]	; 0x5c
 80017e8:	6583      	str	r3, [r0, #88]	; 0x58
 80017ea:	4614      	mov	r4, r2
 80017ec:	6099      	str	r1, [r3, #8]
 80017ee:	6542      	str	r2, [r0, #84]	; 0x54
 80017f0:	f880 2034 	strb.w	r2, [r0, #52]	; 0x34
 80017f4:	f880 2035 	strb.w	r2, [r0, #53]	; 0x35
 80017f8:	4620      	mov	r0, r4
 80017fa:	bc30      	pop	{r4, r5}
 80017fc:	4770      	bx	lr
 80017fe:	2401      	movs	r4, #1
 8001800:	4620      	mov	r0, r4
 8001802:	bc30      	pop	{r4, r5}
 8001804:	4770      	bx	lr
 8001806:	bf00      	nop

08001808 <HAL_DMA_Start>:
 8001808:	b470      	push	{r4, r5, r6}
 800180a:	f890 4034 	ldrb.w	r4, [r0, #52]	; 0x34
 800180e:	2c01      	cmp	r4, #1
 8001810:	d025      	beq.n	800185e <HAL_DMA_Start+0x56>
 8001812:	f890 4035 	ldrb.w	r4, [r0, #53]	; 0x35
 8001816:	2501      	movs	r5, #1
 8001818:	42ac      	cmp	r4, r5
 800181a:	f880 5034 	strb.w	r5, [r0, #52]	; 0x34
 800181e:	d005      	beq.n	800182c <HAL_DMA_Start+0x24>
 8001820:	2300      	movs	r3, #0
 8001822:	f880 3034 	strb.w	r3, [r0, #52]	; 0x34
 8001826:	bc70      	pop	{r4, r5, r6}
 8001828:	2002      	movs	r0, #2
 800182a:	4770      	bx	lr
 800182c:	6804      	ldr	r4, [r0, #0]
 800182e:	2602      	movs	r6, #2
 8001830:	2500      	movs	r5, #0
 8001832:	f880 6035 	strb.w	r6, [r0, #53]	; 0x35
 8001836:	6545      	str	r5, [r0, #84]	; 0x54
 8001838:	6825      	ldr	r5, [r4, #0]
 800183a:	6886      	ldr	r6, [r0, #8]
 800183c:	f425 2580 	bic.w	r5, r5, #262144	; 0x40000
 8001840:	2e40      	cmp	r6, #64	; 0x40
 8001842:	6025      	str	r5, [r4, #0]
 8001844:	6063      	str	r3, [r4, #4]
 8001846:	bf0b      	itete	eq
 8001848:	60a2      	streq	r2, [r4, #8]
 800184a:	60a1      	strne	r1, [r4, #8]
 800184c:	60e1      	streq	r1, [r4, #12]
 800184e:	60e2      	strne	r2, [r4, #12]
 8001850:	6823      	ldr	r3, [r4, #0]
 8001852:	f043 0301 	orr.w	r3, r3, #1
 8001856:	6023      	str	r3, [r4, #0]
 8001858:	2000      	movs	r0, #0
 800185a:	bc70      	pop	{r4, r5, r6}
 800185c:	4770      	bx	lr
 800185e:	2002      	movs	r0, #2
 8001860:	bc70      	pop	{r4, r5, r6}
 8001862:	4770      	bx	lr

08001864 <HAL_DMA_Start_IT>:
 8001864:	b4f0      	push	{r4, r5, r6, r7}
 8001866:	f890 4034 	ldrb.w	r4, [r0, #52]	; 0x34
 800186a:	6d86      	ldr	r6, [r0, #88]	; 0x58
 800186c:	2c01      	cmp	r4, #1
 800186e:	d034      	beq.n	80018da <HAL_DMA_Start_IT+0x76>
 8001870:	f890 4035 	ldrb.w	r4, [r0, #53]	; 0x35
 8001874:	2501      	movs	r5, #1
 8001876:	42ac      	cmp	r4, r5
 8001878:	f880 5034 	strb.w	r5, [r0, #52]	; 0x34
 800187c:	d005      	beq.n	800188a <HAL_DMA_Start_IT+0x26>
 800187e:	2300      	movs	r3, #0
 8001880:	f880 3034 	strb.w	r3, [r0, #52]	; 0x34
 8001884:	bcf0      	pop	{r4, r5, r6, r7}
 8001886:	2002      	movs	r0, #2
 8001888:	4770      	bx	lr
 800188a:	6804      	ldr	r4, [r0, #0]
 800188c:	2702      	movs	r7, #2
 800188e:	2500      	movs	r5, #0
 8001890:	f880 7035 	strb.w	r7, [r0, #53]	; 0x35
 8001894:	6545      	str	r5, [r0, #84]	; 0x54
 8001896:	6825      	ldr	r5, [r4, #0]
 8001898:	6887      	ldr	r7, [r0, #8]
 800189a:	f425 2580 	bic.w	r5, r5, #262144	; 0x40000
 800189e:	2f40      	cmp	r7, #64	; 0x40
 80018a0:	6025      	str	r5, [r4, #0]
 80018a2:	6063      	str	r3, [r4, #4]
 80018a4:	bf0a      	itet	eq
 80018a6:	60a2      	streq	r2, [r4, #8]
 80018a8:	60a1      	strne	r1, [r4, #8]
 80018aa:	60e1      	streq	r1, [r4, #12]
 80018ac:	6dc1      	ldr	r1, [r0, #92]	; 0x5c
 80018ae:	bf18      	it	ne
 80018b0:	60e2      	strne	r2, [r4, #12]
 80018b2:	233f      	movs	r3, #63	; 0x3f
 80018b4:	408b      	lsls	r3, r1
 80018b6:	6c02      	ldr	r2, [r0, #64]	; 0x40
 80018b8:	60b3      	str	r3, [r6, #8]
 80018ba:	6823      	ldr	r3, [r4, #0]
 80018bc:	f043 0316 	orr.w	r3, r3, #22
 80018c0:	6023      	str	r3, [r4, #0]
 80018c2:	b11a      	cbz	r2, 80018cc <HAL_DMA_Start_IT+0x68>
 80018c4:	6823      	ldr	r3, [r4, #0]
 80018c6:	f043 0308 	orr.w	r3, r3, #8
 80018ca:	6023      	str	r3, [r4, #0]
 80018cc:	6823      	ldr	r3, [r4, #0]
 80018ce:	f043 0301 	orr.w	r3, r3, #1
 80018d2:	6023      	str	r3, [r4, #0]
 80018d4:	2000      	movs	r0, #0
 80018d6:	bcf0      	pop	{r4, r5, r6, r7}
 80018d8:	4770      	bx	lr
 80018da:	2002      	movs	r0, #2
 80018dc:	bcf0      	pop	{r4, r5, r6, r7}
 80018de:	4770      	bx	lr

080018e0 <HAL_DMA_Abort>:
 80018e0:	b570      	push	{r4, r5, r6, lr}
 80018e2:	4604      	mov	r4, r0
 80018e4:	6d86      	ldr	r6, [r0, #88]	; 0x58
 80018e6:	f7ff fc03 	bl	80010f0 <HAL_GetTick>
 80018ea:	f894 3035 	ldrb.w	r3, [r4, #53]	; 0x35
 80018ee:	2b02      	cmp	r3, #2
 80018f0:	d006      	beq.n	8001900 <HAL_DMA_Abort+0x20>
 80018f2:	2300      	movs	r3, #0
 80018f4:	2280      	movs	r2, #128	; 0x80
 80018f6:	f884 3034 	strb.w	r3, [r4, #52]	; 0x34
 80018fa:	6562      	str	r2, [r4, #84]	; 0x54
 80018fc:	2001      	movs	r0, #1
 80018fe:	bd70      	pop	{r4, r5, r6, pc}
 8001900:	6823      	ldr	r3, [r4, #0]
 8001902:	6c21      	ldr	r1, [r4, #64]	; 0x40
 8001904:	681a      	ldr	r2, [r3, #0]
 8001906:	f022 0216 	bic.w	r2, r2, #22
 800190a:	601a      	str	r2, [r3, #0]
 800190c:	695a      	ldr	r2, [r3, #20]
 800190e:	f022 0280 	bic.w	r2, r2, #128	; 0x80
 8001912:	4605      	mov	r5, r0
 8001914:	615a      	str	r2, [r3, #20]
 8001916:	b339      	cbz	r1, 8001968 <HAL_DMA_Abort+0x88>
 8001918:	681a      	ldr	r2, [r3, #0]
 800191a:	f022 0208 	bic.w	r2, r2, #8
 800191e:	601a      	str	r2, [r3, #0]
 8001920:	681a      	ldr	r2, [r3, #0]
 8001922:	f022 0201 	bic.w	r2, r2, #1
 8001926:	601a      	str	r2, [r3, #0]
 8001928:	e005      	b.n	8001936 <HAL_DMA_Abort+0x56>
 800192a:	f7ff fbe1 	bl	80010f0 <HAL_GetTick>
 800192e:	1b43      	subs	r3, r0, r5
 8001930:	2b05      	cmp	r3, #5
 8001932:	d80f      	bhi.n	8001954 <HAL_DMA_Abort+0x74>
 8001934:	6823      	ldr	r3, [r4, #0]
 8001936:	681b      	ldr	r3, [r3, #0]
 8001938:	f013 0301 	ands.w	r3, r3, #1
 800193c:	d1f5      	bne.n	800192a <HAL_DMA_Abort+0x4a>
 800193e:	6de1      	ldr	r1, [r4, #92]	; 0x5c
 8001940:	223f      	movs	r2, #63	; 0x3f
 8001942:	408a      	lsls	r2, r1
 8001944:	2101      	movs	r1, #1
 8001946:	60b2      	str	r2, [r6, #8]
 8001948:	f884 3034 	strb.w	r3, [r4, #52]	; 0x34
 800194c:	f884 1035 	strb.w	r1, [r4, #53]	; 0x35
 8001950:	4618      	mov	r0, r3
 8001952:	bd70      	pop	{r4, r5, r6, pc}
 8001954:	2303      	movs	r3, #3
 8001956:	2120      	movs	r1, #32
 8001958:	2200      	movs	r2, #0
 800195a:	6561      	str	r1, [r4, #84]	; 0x54
 800195c:	f884 2034 	strb.w	r2, [r4, #52]	; 0x34
 8001960:	f884 3035 	strb.w	r3, [r4, #53]	; 0x35
 8001964:	4618      	mov	r0, r3
 8001966:	bd70      	pop	{r4, r5, r6, pc}
 8001968:	6ca2      	ldr	r2, [r4, #72]	; 0x48
 800196a:	2a00      	cmp	r2, #0
 800196c:	d1d4      	bne.n	8001918 <HAL_DMA_Abort+0x38>
 800196e:	e7d7      	b.n	8001920 <HAL_DMA_Abort+0x40>

08001970 <HAL_DMA_Abort_IT>:
 8001970:	f890 3035 	ldrb.w	r3, [r0, #53]	; 0x35
 8001974:	2b02      	cmp	r3, #2
 8001976:	d003      	beq.n	8001980 <HAL_DMA_Abort_IT+0x10>
 8001978:	2380      	movs	r3, #128	; 0x80
 800197a:	6543      	str	r3, [r0, #84]	; 0x54
 800197c:	2001      	movs	r0, #1
 800197e:	4770      	bx	lr
 8001980:	6802      	ldr	r2, [r0, #0]
 8001982:	2305      	movs	r3, #5
 8001984:	f880 3035 	strb.w	r3, [r0, #53]	; 0x35
 8001988:	6813      	ldr	r3, [r2, #0]
 800198a:	f023 0301 	bic.w	r3, r3, #1
 800198e:	6013      	str	r3, [r2, #0]
 8001990:	2000      	movs	r0, #0
 8001992:	4770      	bx	lr

08001994 <HAL_DMA_PollForTransfer>:
 8001994:	e92d 4ff0 	stmdb	sp!, {r4, r5, r6, r7, r8, r9, sl, fp, lr}
 8001998:	4604      	mov	r4, r0
 800199a:	b083      	sub	sp, #12
 800199c:	4615      	mov	r5, r2
 800199e:	9101      	str	r1, [sp, #4]
 80019a0:	f7ff fba6 	bl	80010f0 <HAL_GetTick>
 80019a4:	f894 3035 	ldrb.w	r3, [r4, #53]	; 0x35
 80019a8:	2b02      	cmp	r3, #2
 80019aa:	d008      	beq.n	80019be <HAL_DMA_PollForTransfer+0x2a>
 80019ac:	2280      	movs	r2, #128	; 0x80
 80019ae:	2300      	movs	r3, #0
 80019b0:	6562      	str	r2, [r4, #84]	; 0x54
 80019b2:	f884 3034 	strb.w	r3, [r4, #52]	; 0x34
 80019b6:	2001      	movs	r0, #1
 80019b8:	b003      	add	sp, #12
 80019ba:	e8bd 8ff0 	ldmia.w	sp!, {r4, r5, r6, r7, r8, r9, sl, fp, pc}
 80019be:	6823      	ldr	r3, [r4, #0]
 80019c0:	681b      	ldr	r3, [r3, #0]
 80019c2:	05d9      	lsls	r1, r3, #23
 80019c4:	d45e      	bmi.n	8001a84 <HAL_DMA_PollForTransfer+0xf0>
 80019c6:	9b01      	ldr	r3, [sp, #4]
 80019c8:	6de1      	ldr	r1, [r4, #92]	; 0x5c
 80019ca:	4606      	mov	r6, r0
 80019cc:	2b00      	cmp	r3, #0
 80019ce:	d060      	beq.n	8001a92 <HAL_DMA_PollForTransfer+0xfe>
 80019d0:	f04f 0b10 	mov.w	fp, #16
 80019d4:	fa0b fb01 	lsl.w	fp, fp, r1
 80019d8:	f8d4 a058 	ldr.w	sl, [r4, #88]	; 0x58
 80019dc:	f8da 3000 	ldr.w	r3, [sl]
 80019e0:	ea1b 0f03 	tst.w	fp, r3
 80019e4:	d13a      	bne.n	8001a5c <HAL_DMA_PollForTransfer+0xc8>
 80019e6:	1c6a      	adds	r2, r5, #1
 80019e8:	d067      	beq.n	8001aba <HAL_DMA_PollForTransfer+0x126>
 80019ea:	2d00      	cmp	r5, #0
 80019ec:	d056      	beq.n	8001a9c <HAL_DMA_PollForTransfer+0x108>
 80019ee:	f04f 0908 	mov.w	r9, #8
 80019f2:	f04f 0801 	mov.w	r8, #1
 80019f6:	2704      	movs	r7, #4
 80019f8:	e02d      	b.n	8001a56 <HAL_DMA_PollForTransfer+0xc2>
 80019fa:	f7ff fb79 	bl	80010f0 <HAL_GetTick>
 80019fe:	1b80      	subs	r0, r0, r6
 8001a00:	4285      	cmp	r5, r0
 8001a02:	d34e      	bcc.n	8001aa2 <HAL_DMA_PollForTransfer+0x10e>
 8001a04:	6de1      	ldr	r1, [r4, #92]	; 0x5c
 8001a06:	f8da 3000 	ldr.w	r3, [sl]
 8001a0a:	fa09 fc01 	lsl.w	ip, r9, r1
 8001a0e:	ea13 0f0c 	tst.w	r3, ip
 8001a12:	fa08 f001 	lsl.w	r0, r8, r1
 8001a16:	fa07 f201 	lsl.w	r2, r7, r1
 8001a1a:	d007      	beq.n	8001a2c <HAL_DMA_PollForTransfer+0x98>
 8001a1c:	f8d4 e054 	ldr.w	lr, [r4, #84]	; 0x54
 8001a20:	f04e 0e01 	orr.w	lr, lr, #1
 8001a24:	f8c4 e054 	str.w	lr, [r4, #84]	; 0x54
 8001a28:	f8ca c008 	str.w	ip, [sl, #8]
 8001a2c:	4203      	tst	r3, r0
 8001a2e:	d007      	beq.n	8001a40 <HAL_DMA_PollForTransfer+0xac>
 8001a30:	f8d4 c054 	ldr.w	ip, [r4, #84]	; 0x54
 8001a34:	f04c 0c02 	orr.w	ip, ip, #2
 8001a38:	f8c4 c054 	str.w	ip, [r4, #84]	; 0x54
 8001a3c:	f8ca 0008 	str.w	r0, [sl, #8]
 8001a40:	4213      	tst	r3, r2
 8001a42:	d005      	beq.n	8001a50 <HAL_DMA_PollForTransfer+0xbc>
 8001a44:	6d60      	ldr	r0, [r4, #84]	; 0x54
 8001a46:	f040 0004 	orr.w	r0, r0, #4
 8001a4a:	6560      	str	r0, [r4, #84]	; 0x54
 8001a4c:	f8ca 2008 	str.w	r2, [sl, #8]
 8001a50:	ea1b 0f03 	tst.w	fp, r3
 8001a54:	d102      	bne.n	8001a5c <HAL_DMA_PollForTransfer+0xc8>
 8001a56:	6d63      	ldr	r3, [r4, #84]	; 0x54
 8001a58:	07db      	lsls	r3, r3, #31
 8001a5a:	d5ce      	bpl.n	80019fa <HAL_DMA_PollForTransfer+0x66>
 8001a5c:	6d63      	ldr	r3, [r4, #84]	; 0x54
 8001a5e:	b113      	cbz	r3, 8001a66 <HAL_DMA_PollForTransfer+0xd2>
 8001a60:	6d63      	ldr	r3, [r4, #84]	; 0x54
 8001a62:	07db      	lsls	r3, r3, #31
 8001a64:	d458      	bmi.n	8001b18 <HAL_DMA_PollForTransfer+0x184>
 8001a66:	9a01      	ldr	r2, [sp, #4]
 8001a68:	2a00      	cmp	r2, #0
 8001a6a:	d14e      	bne.n	8001b0a <HAL_DMA_PollForTransfer+0x176>
 8001a6c:	2330      	movs	r3, #48	; 0x30
 8001a6e:	fa03 f101 	lsl.w	r1, r3, r1
 8001a72:	2301      	movs	r3, #1
 8001a74:	f8ca 1008 	str.w	r1, [sl, #8]
 8001a78:	4610      	mov	r0, r2
 8001a7a:	f884 2034 	strb.w	r2, [r4, #52]	; 0x34
 8001a7e:	f884 3035 	strb.w	r3, [r4, #53]	; 0x35
 8001a82:	e799      	b.n	80019b8 <HAL_DMA_PollForTransfer+0x24>
 8001a84:	f44f 7380 	mov.w	r3, #256	; 0x100
 8001a88:	2001      	movs	r0, #1
 8001a8a:	6563      	str	r3, [r4, #84]	; 0x54
 8001a8c:	b003      	add	sp, #12
 8001a8e:	e8bd 8ff0 	ldmia.w	sp!, {r4, r5, r6, r7, r8, r9, sl, fp, pc}
 8001a92:	f04f 0b20 	mov.w	fp, #32
 8001a96:	fa0b fb01 	lsl.w	fp, fp, r1
 8001a9a:	e79d      	b.n	80019d8 <HAL_DMA_PollForTransfer+0x44>
 8001a9c:	6d63      	ldr	r3, [r4, #84]	; 0x54
 8001a9e:	07da      	lsls	r2, r3, #31
 8001aa0:	d4dc      	bmi.n	8001a5c <HAL_DMA_PollForTransfer+0xc8>
 8001aa2:	2120      	movs	r1, #32
 8001aa4:	2301      	movs	r3, #1
 8001aa6:	2200      	movs	r2, #0
 8001aa8:	2003      	movs	r0, #3
 8001aaa:	6561      	str	r1, [r4, #84]	; 0x54
 8001aac:	f884 2034 	strb.w	r2, [r4, #52]	; 0x34
 8001ab0:	f884 3035 	strb.w	r3, [r4, #53]	; 0x35
 8001ab4:	b003      	add	sp, #12
 8001ab6:	e8bd 8ff0 	ldmia.w	sp!, {r4, r5, r6, r7, r8, r9, sl, fp, pc}
 8001aba:	2608      	movs	r6, #8
 8001abc:	2501      	movs	r5, #1
 8001abe:	2004      	movs	r0, #4
 8001ac0:	408e      	lsls	r6, r1
 8001ac2:	408d      	lsls	r5, r1
 8001ac4:	4088      	lsls	r0, r1
 8001ac6:	e01c      	b.n	8001b02 <HAL_DMA_PollForTransfer+0x16e>
 8001ac8:	f8da 3000 	ldr.w	r3, [sl]
 8001acc:	421e      	tst	r6, r3
 8001ace:	d005      	beq.n	8001adc <HAL_DMA_PollForTransfer+0x148>
 8001ad0:	6d62      	ldr	r2, [r4, #84]	; 0x54
 8001ad2:	f042 0201 	orr.w	r2, r2, #1
 8001ad6:	6562      	str	r2, [r4, #84]	; 0x54
 8001ad8:	f8ca 6008 	str.w	r6, [sl, #8]
 8001adc:	422b      	tst	r3, r5
 8001ade:	d005      	beq.n	8001aec <HAL_DMA_PollForTransfer+0x158>
 8001ae0:	6d62      	ldr	r2, [r4, #84]	; 0x54
 8001ae2:	f042 0202 	orr.w	r2, r2, #2
 8001ae6:	6562      	str	r2, [r4, #84]	; 0x54
 8001ae8:	f8ca 5008 	str.w	r5, [sl, #8]
 8001aec:	4203      	tst	r3, r0
 8001aee:	d005      	beq.n	8001afc <HAL_DMA_PollForTransfer+0x168>
 8001af0:	6d62      	ldr	r2, [r4, #84]	; 0x54
 8001af2:	f042 0204 	orr.w	r2, r2, #4
 8001af6:	6562      	str	r2, [r4, #84]	; 0x54
 8001af8:	f8ca 0008 	str.w	r0, [sl, #8]
 8001afc:	ea1b 0f03 	tst.w	fp, r3
 8001b00:	d1ac      	bne.n	8001a5c <HAL_DMA_PollForTransfer+0xc8>
 8001b02:	6d63      	ldr	r3, [r4, #84]	; 0x54
 8001b04:	07df      	lsls	r7, r3, #31
 8001b06:	d4a9      	bmi.n	8001a5c <HAL_DMA_PollForTransfer+0xc8>
 8001b08:	e7de      	b.n	8001ac8 <HAL_DMA_PollForTransfer+0x134>
 8001b0a:	2310      	movs	r3, #16
 8001b0c:	fa03 f101 	lsl.w	r1, r3, r1
 8001b10:	f8ca 1008 	str.w	r1, [sl, #8]
 8001b14:	2000      	movs	r0, #0
 8001b16:	e74f      	b.n	80019b8 <HAL_DMA_PollForTransfer+0x24>
 8001b18:	4620      	mov	r0, r4
 8001b1a:	f7ff fee1 	bl	80018e0 <HAL_DMA_Abort>
 8001b1e:	6de2      	ldr	r2, [r4, #92]	; 0x5c
 8001b20:	2330      	movs	r3, #48	; 0x30
 8001b22:	4093      	lsls	r3, r2
 8001b24:	2100      	movs	r1, #0
 8001b26:	2201      	movs	r2, #1
 8001b28:	f8ca 3008 	str.w	r3, [sl, #8]
 8001b2c:	4610      	mov	r0, r2
 8001b2e:	f884 2035 	strb.w	r2, [r4, #53]	; 0x35
 8001b32:	f884 1034 	strb.w	r1, [r4, #52]	; 0x34
 8001b36:	e73f      	b.n	80019b8 <HAL_DMA_PollForTransfer+0x24>

08001b38 <HAL_DMA_IRQHandler>:
 8001b38:	e92d 41f0 	stmdb	sp!, {r4, r5, r6, r7, r8, lr}
 8001b3c:	b082      	sub	sp, #8
 8001b3e:	2300      	movs	r3, #0
 8001b40:	6d86      	ldr	r6, [r0, #88]	; 0x58
 8001b42:	9301      	str	r3, [sp, #4]
 8001b44:	6dc3      	ldr	r3, [r0, #92]	; 0x5c
 8001b46:	6834      	ldr	r4, [r6, #0]
 8001b48:	f240 0100 	movw	r1, #0
 8001b4c:	2208      	movs	r2, #8
 8001b4e:	f2c2 0100 	movt	r1, #8192	; 0x2000
 8001b52:	409a      	lsls	r2, r3
 8001b54:	4222      	tst	r2, r4
 8001b56:	680d      	ldr	r5, [r1, #0]
 8001b58:	4680      	mov	r8, r0
 8001b5a:	d004      	beq.n	8001b66 <HAL_DMA_IRQHandler+0x2e>
 8001b5c:	6801      	ldr	r1, [r0, #0]
 8001b5e:	680f      	ldr	r7, [r1, #0]
 8001b60:	0778      	lsls	r0, r7, #29
 8001b62:	f100 808d 	bmi.w	8001c80 <HAL_DMA_IRQHandler+0x148>
 8001b66:	2201      	movs	r2, #1
 8001b68:	409a      	lsls	r2, r3
 8001b6a:	4222      	tst	r2, r4
 8001b6c:	d004      	beq.n	8001b78 <HAL_DMA_IRQHandler+0x40>
 8001b6e:	f8d8 1000 	ldr.w	r1, [r8]
 8001b72:	6949      	ldr	r1, [r1, #20]
 8001b74:	0609      	lsls	r1, r1, #24
 8001b76:	d47b      	bmi.n	8001c70 <HAL_DMA_IRQHandler+0x138>
 8001b78:	2204      	movs	r2, #4
 8001b7a:	409a      	lsls	r2, r3
 8001b7c:	4222      	tst	r2, r4
 8001b7e:	d004      	beq.n	8001b8a <HAL_DMA_IRQHandler+0x52>
 8001b80:	f8d8 1000 	ldr.w	r1, [r8]
 8001b84:	6809      	ldr	r1, [r1, #0]
 8001b86:	078f      	lsls	r7, r1, #30
 8001b88:	d46a      	bmi.n	8001c60 <HAL_DMA_IRQHandler+0x128>
 8001b8a:	2210      	movs	r2, #16
 8001b8c:	409a      	lsls	r2, r3
 8001b8e:	4222      	tst	r2, r4
 8001b90:	d004      	beq.n	8001b9c <HAL_DMA_IRQHandler+0x64>
 8001b92:	f8d8 1000 	ldr.w	r1, [r8]
 8001b96:	680f      	ldr	r7, [r1, #0]
 8001b98:	0738      	lsls	r0, r7, #28
 8001b9a:	d44c      	bmi.n	8001c36 <HAL_DMA_IRQHandler+0xfe>
 8001b9c:	2220      	movs	r2, #32
 8001b9e:	409a      	lsls	r2, r3
 8001ba0:	4222      	tst	r2, r4
 8001ba2:	d017      	beq.n	8001bd4 <HAL_DMA_IRQHandler+0x9c>
 8001ba4:	f8d8 1000 	ldr.w	r1, [r8]
 8001ba8:	680c      	ldr	r4, [r1, #0]
 8001baa:	06e0      	lsls	r0, r4, #27
 8001bac:	d512      	bpl.n	8001bd4 <HAL_DMA_IRQHandler+0x9c>
 8001bae:	60b2      	str	r2, [r6, #8]
 8001bb0:	f898 2035 	ldrb.w	r2, [r8, #53]	; 0x35
 8001bb4:	2a05      	cmp	r2, #5
 8001bb6:	d076      	beq.n	8001ca6 <HAL_DMA_IRQHandler+0x16e>
 8001bb8:	680b      	ldr	r3, [r1, #0]
 8001bba:	f413 2f80 	tst.w	r3, #262144	; 0x40000
 8001bbe:	680b      	ldr	r3, [r1, #0]
 8001bc0:	f000 8093 	beq.w	8001cea <HAL_DMA_IRQHandler+0x1b2>
 8001bc4:	0319      	lsls	r1, r3, #12
 8001bc6:	f140 809e 	bpl.w	8001d06 <HAL_DMA_IRQHandler+0x1ce>
 8001bca:	f8d8 303c 	ldr.w	r3, [r8, #60]	; 0x3c
 8001bce:	b10b      	cbz	r3, 8001bd4 <HAL_DMA_IRQHandler+0x9c>
 8001bd0:	4640      	mov	r0, r8
 8001bd2:	4798      	blx	r3
 8001bd4:	f8d8 3054 	ldr.w	r3, [r8, #84]	; 0x54
 8001bd8:	b353      	cbz	r3, 8001c30 <HAL_DMA_IRQHandler+0xf8>
 8001bda:	f8d8 3054 	ldr.w	r3, [r8, #84]	; 0x54
 8001bde:	07da      	lsls	r2, r3, #31
 8001be0:	d51e      	bpl.n	8001c20 <HAL_DMA_IRQHandler+0xe8>
 8001be2:	f8d8 2000 	ldr.w	r2, [r8]
 8001be6:	2305      	movs	r3, #5
 8001be8:	f888 3035 	strb.w	r3, [r8, #53]	; 0x35
 8001bec:	6813      	ldr	r3, [r2, #0]
 8001bee:	f248 11b5 	movw	r1, #33205	; 0x81b5
 8001bf2:	f6c1 314e 	movt	r1, #6990	; 0x1b4e
 8001bf6:	f023 0301 	bic.w	r3, r3, #1
 8001bfa:	fba1 1505 	umull	r1, r5, r1, r5
 8001bfe:	6013      	str	r3, [r2, #0]
 8001c00:	0aad      	lsrs	r5, r5, #10
 8001c02:	e002      	b.n	8001c0a <HAL_DMA_IRQHandler+0xd2>
 8001c04:	6813      	ldr	r3, [r2, #0]
 8001c06:	07db      	lsls	r3, r3, #31
 8001c08:	d504      	bpl.n	8001c14 <HAL_DMA_IRQHandler+0xdc>
 8001c0a:	9b01      	ldr	r3, [sp, #4]
 8001c0c:	3301      	adds	r3, #1
 8001c0e:	42ab      	cmp	r3, r5
 8001c10:	9301      	str	r3, [sp, #4]
 8001c12:	d9f7      	bls.n	8001c04 <HAL_DMA_IRQHandler+0xcc>
 8001c14:	2201      	movs	r2, #1
 8001c16:	2300      	movs	r3, #0
 8001c18:	f888 2035 	strb.w	r2, [r8, #53]	; 0x35
 8001c1c:	f888 3034 	strb.w	r3, [r8, #52]	; 0x34
 8001c20:	f8d8 304c 	ldr.w	r3, [r8, #76]	; 0x4c
 8001c24:	b123      	cbz	r3, 8001c30 <HAL_DMA_IRQHandler+0xf8>
 8001c26:	4640      	mov	r0, r8
 8001c28:	b002      	add	sp, #8
 8001c2a:	e8bd 41f0 	ldmia.w	sp!, {r4, r5, r6, r7, r8, lr}
 8001c2e:	4718      	bx	r3
 8001c30:	b002      	add	sp, #8
 8001c32:	e8bd 81f0 	ldmia.w	sp!, {r4, r5, r6, r7, r8, pc}
 8001c36:	60b2      	str	r2, [r6, #8]
 8001c38:	680a      	ldr	r2, [r1, #0]
 8001c3a:	f412 2f80 	tst.w	r2, #262144	; 0x40000
 8001c3e:	680a      	ldr	r2, [r1, #0]
 8001c40:	d12a      	bne.n	8001c98 <HAL_DMA_IRQHandler+0x160>
 8001c42:	05d7      	lsls	r7, r2, #23
 8001c44:	d403      	bmi.n	8001c4e <HAL_DMA_IRQHandler+0x116>
 8001c46:	680a      	ldr	r2, [r1, #0]
 8001c48:	f022 0208 	bic.w	r2, r2, #8
 8001c4c:	600a      	str	r2, [r1, #0]
 8001c4e:	f8d8 2040 	ldr.w	r2, [r8, #64]	; 0x40
 8001c52:	2a00      	cmp	r2, #0
 8001c54:	d0a2      	beq.n	8001b9c <HAL_DMA_IRQHandler+0x64>
 8001c56:	4640      	mov	r0, r8
 8001c58:	4790      	blx	r2
 8001c5a:	f8d8 305c 	ldr.w	r3, [r8, #92]	; 0x5c
 8001c5e:	e79d      	b.n	8001b9c <HAL_DMA_IRQHandler+0x64>
 8001c60:	60b2      	str	r2, [r6, #8]
 8001c62:	f8d8 2054 	ldr.w	r2, [r8, #84]	; 0x54
 8001c66:	f042 0204 	orr.w	r2, r2, #4
 8001c6a:	f8c8 2054 	str.w	r2, [r8, #84]	; 0x54
 8001c6e:	e78c      	b.n	8001b8a <HAL_DMA_IRQHandler+0x52>
 8001c70:	60b2      	str	r2, [r6, #8]
 8001c72:	f8d8 2054 	ldr.w	r2, [r8, #84]	; 0x54
 8001c76:	f042 0202 	orr.w	r2, r2, #2
 8001c7a:	f8c8 2054 	str.w	r2, [r8, #84]	; 0x54
 8001c7e:	e77b      	b.n	8001b78 <HAL_DMA_IRQHandler+0x40>
 8001c80:	680f      	ldr	r7, [r1, #0]
 8001c82:	f027 0704 	bic.w	r7, r7, #4
 8001c86:	600f      	str	r7, [r1, #0]
 8001c88:	60b2      	str	r2, [r6, #8]
 8001c8a:	f8d8 2054 	ldr.w	r2, [r8, #84]	; 0x54
 8001c8e:	f042 0201 	orr.w	r2, r2, #1
 8001c92:	f8c8 2054 	str.w	r2, [r8, #84]	; 0x54
 8001c96:	e766      	b.n	8001b66 <HAL_DMA_IRQHandler+0x2e>
 8001c98:	0312      	lsls	r2, r2, #12
 8001c9a:	d5d8      	bpl.n	8001c4e <HAL_DMA_IRQHandler+0x116>
 8001c9c:	f8d8 2048 	ldr.w	r2, [r8, #72]	; 0x48
 8001ca0:	2a00      	cmp	r2, #0
 8001ca2:	d1d8      	bne.n	8001c56 <HAL_DMA_IRQHandler+0x11e>
 8001ca4:	e77a      	b.n	8001b9c <HAL_DMA_IRQHandler+0x64>
 8001ca6:	680a      	ldr	r2, [r1, #0]
 8001ca8:	f8d8 4040 	ldr.w	r4, [r8, #64]	; 0x40
 8001cac:	f022 0216 	bic.w	r2, r2, #22
 8001cb0:	600a      	str	r2, [r1, #0]
 8001cb2:	694a      	ldr	r2, [r1, #20]
 8001cb4:	f022 0280 	bic.w	r2, r2, #128	; 0x80
 8001cb8:	614a      	str	r2, [r1, #20]
 8001cba:	b354      	cbz	r4, 8001d12 <HAL_DMA_IRQHandler+0x1da>
 8001cbc:	680a      	ldr	r2, [r1, #0]
 8001cbe:	f022 0208 	bic.w	r2, r2, #8
 8001cc2:	600a      	str	r2, [r1, #0]
 8001cc4:	223f      	movs	r2, #63	; 0x3f
 8001cc6:	f8d8 1050 	ldr.w	r1, [r8, #80]	; 0x50
 8001cca:	fa02 f303 	lsl.w	r3, r2, r3
 8001cce:	2401      	movs	r4, #1
 8001cd0:	2200      	movs	r2, #0
 8001cd2:	60b3      	str	r3, [r6, #8]
 8001cd4:	f888 4035 	strb.w	r4, [r8, #53]	; 0x35
 8001cd8:	f888 2034 	strb.w	r2, [r8, #52]	; 0x34
 8001cdc:	2900      	cmp	r1, #0
 8001cde:	d0a7      	beq.n	8001c30 <HAL_DMA_IRQHandler+0xf8>
 8001ce0:	4640      	mov	r0, r8
 8001ce2:	b002      	add	sp, #8
 8001ce4:	e8bd 41f0 	ldmia.w	sp!, {r4, r5, r6, r7, r8, lr}
 8001ce8:	4708      	bx	r1
 8001cea:	f413 7380 	ands.w	r3, r3, #256	; 0x100
 8001cee:	f47f af6c 	bne.w	8001bca <HAL_DMA_IRQHandler+0x92>
 8001cf2:	680a      	ldr	r2, [r1, #0]
 8001cf4:	2401      	movs	r4, #1
 8001cf6:	f022 0210 	bic.w	r2, r2, #16
 8001cfa:	600a      	str	r2, [r1, #0]
 8001cfc:	f888 3034 	strb.w	r3, [r8, #52]	; 0x34
 8001d00:	f888 4035 	strb.w	r4, [r8, #53]	; 0x35
 8001d04:	e761      	b.n	8001bca <HAL_DMA_IRQHandler+0x92>
 8001d06:	f8d8 3044 	ldr.w	r3, [r8, #68]	; 0x44
 8001d0a:	2b00      	cmp	r3, #0
 8001d0c:	f47f af60 	bne.w	8001bd0 <HAL_DMA_IRQHandler+0x98>
 8001d10:	e760      	b.n	8001bd4 <HAL_DMA_IRQHandler+0x9c>
 8001d12:	f8d8 2048 	ldr.w	r2, [r8, #72]	; 0x48
 8001d16:	2a00      	cmp	r2, #0
 8001d18:	d1d0      	bne.n	8001cbc <HAL_DMA_IRQHandler+0x184>
 8001d1a:	e7d3      	b.n	8001cc4 <HAL_DMA_IRQHandler+0x18c>

08001d1c <HAL_DMA_RegisterCallback>:
 8001d1c:	4603      	mov	r3, r0
 8001d1e:	f890 0034 	ldrb.w	r0, [r0, #52]	; 0x34
 8001d22:	2801      	cmp	r0, #1
 8001d24:	d00f      	beq.n	8001d46 <HAL_DMA_RegisterCallback+0x2a>
 8001d26:	f893 0035 	ldrb.w	r0, [r3, #53]	; 0x35
 8001d2a:	2801      	cmp	r0, #1
 8001d2c:	d004      	beq.n	8001d38 <HAL_DMA_RegisterCallback+0x1c>
 8001d2e:	2001      	movs	r0, #1
 8001d30:	2200      	movs	r2, #0
 8001d32:	f883 2034 	strb.w	r2, [r3, #52]	; 0x34
 8001d36:	4770      	bx	lr
 8001d38:	2905      	cmp	r1, #5
 8001d3a:	d818      	bhi.n	8001d6e <HAL_DMA_RegisterCallback+0x52>
 8001d3c:	e8df f001 	tbb	[pc, r1]
 8001d40:	0b0e1114 	.word	0x0b0e1114
 8001d44:	0508      	.short	0x0508
 8001d46:	2002      	movs	r0, #2
 8001d48:	4770      	bx	lr
 8001d4a:	651a      	str	r2, [r3, #80]	; 0x50
 8001d4c:	2000      	movs	r0, #0
 8001d4e:	e7ef      	b.n	8001d30 <HAL_DMA_RegisterCallback+0x14>
 8001d50:	64da      	str	r2, [r3, #76]	; 0x4c
 8001d52:	2000      	movs	r0, #0
 8001d54:	e7ec      	b.n	8001d30 <HAL_DMA_RegisterCallback+0x14>
 8001d56:	649a      	str	r2, [r3, #72]	; 0x48
 8001d58:	2000      	movs	r0, #0
 8001d5a:	e7e9      	b.n	8001d30 <HAL_DMA_RegisterCallback+0x14>
 8001d5c:	645a      	str	r2, [r3, #68]	; 0x44
 8001d5e:	2000      	movs	r0, #0
 8001d60:	e7e6      	b.n	8001d30 <HAL_DMA_RegisterCallback+0x14>
 8001d62:	641a      	str	r2, [r3, #64]	; 0x40
 8001d64:	2000      	movs	r0, #0
 8001d66:	e7e3      	b.n	8001d30 <HAL_DMA_RegisterCallback+0x14>
 8001d68:	63da      	str	r2, [r3, #60]	; 0x3c
 8001d6a:	4608      	mov	r0, r1
 8001d6c:	e7e0      	b.n	8001d30 <HAL_DMA_RegisterCallback+0x14>
 8001d6e:	2000      	movs	r0, #0
 8001d70:	e7de      	b.n	8001d30 <HAL_DMA_RegisterCallback+0x14>
 8001d72:	bf00      	nop

08001d74 <HAL_DMA_UnRegisterCallback>:
 8001d74:	f890 3034 	ldrb.w	r3, [r0, #52]	; 0x34
 8001d78:	2b01      	cmp	r3, #1
 8001d7a:	d018      	beq.n	8001dae <HAL_DMA_UnRegisterCallback+0x3a>
 8001d7c:	b410      	push	{r4}
 8001d7e:	f890 2035 	ldrb.w	r2, [r0, #53]	; 0x35
 8001d82:	2401      	movs	r4, #1
 8001d84:	42a2      	cmp	r2, r4
 8001d86:	b2d3      	uxtb	r3, r2
 8001d88:	f880 4034 	strb.w	r4, [r0, #52]	; 0x34
 8001d8c:	d007      	beq.n	8001d9e <HAL_DMA_UnRegisterCallback+0x2a>
 8001d8e:	4623      	mov	r3, r4
 8001d90:	2200      	movs	r2, #0
 8001d92:	f880 2034 	strb.w	r2, [r0, #52]	; 0x34
 8001d96:	f85d 4b04 	ldr.w	r4, [sp], #4
 8001d9a:	4618      	mov	r0, r3
 8001d9c:	4770      	bx	lr
 8001d9e:	2906      	cmp	r1, #6
 8001da0:	d8f6      	bhi.n	8001d90 <HAL_DMA_UnRegisterCallback+0x1c>
 8001da2:	e8df f001 	tbb	[pc, r1]
 8001da6:	1b1e      	.short	0x1b1e
 8001da8:	0f121518 	.word	0x0f121518
 8001dac:	07          	.byte	0x07
 8001dad:	00          	.byte	0x00
 8001dae:	2302      	movs	r3, #2
 8001db0:	4618      	mov	r0, r3
 8001db2:	4770      	bx	lr
 8001db4:	2300      	movs	r3, #0
 8001db6:	e9c0 330f 	strd	r3, r3, [r0, #60]	; 0x3c
 8001dba:	e9c0 3311 	strd	r3, r3, [r0, #68]	; 0x44
 8001dbe:	e9c0 3313 	strd	r3, r3, [r0, #76]	; 0x4c
 8001dc2:	e7e5      	b.n	8001d90 <HAL_DMA_UnRegisterCallback+0x1c>
 8001dc4:	2300      	movs	r3, #0
 8001dc6:	6503      	str	r3, [r0, #80]	; 0x50
 8001dc8:	e7e2      	b.n	8001d90 <HAL_DMA_UnRegisterCallback+0x1c>
 8001dca:	2300      	movs	r3, #0
 8001dcc:	64c3      	str	r3, [r0, #76]	; 0x4c
 8001dce:	e7df      	b.n	8001d90 <HAL_DMA_UnRegisterCallback+0x1c>
 8001dd0:	2300      	movs	r3, #0
 8001dd2:	6483      	str	r3, [r0, #72]	; 0x48
 8001dd4:	e7dc      	b.n	8001d90 <HAL_DMA_UnRegisterCallback+0x1c>
 8001dd6:	2300      	movs	r3, #0
 8001dd8:	6443      	str	r3, [r0, #68]	; 0x44
 8001dda:	e7d9      	b.n	8001d90 <HAL_DMA_UnRegisterCallback+0x1c>
 8001ddc:	2300      	movs	r3, #0
 8001dde:	6403      	str	r3, [r0, #64]	; 0x40
 8001de0:	e7d6      	b.n	8001d90 <HAL_DMA_UnRegisterCallback+0x1c>
 8001de2:	2200      	movs	r2, #0
 8001de4:	460b      	mov	r3, r1
 8001de6:	63c2      	str	r2, [r0, #60]	; 0x3c
 8001de8:	e7d2      	b.n	8001d90 <HAL_DMA_UnRegisterCallback+0x1c>
 8001dea:	bf00      	nop

08001dec <HAL_DMA_GetState>:
 8001dec:	f890 0035 	ldrb.w	r0, [r0, #53]	; 0x35
 8001df0:	4770      	bx	lr
 8001df2:	bf00      	nop

08001df4 <HAL_DMA_GetError>:
 8001df4:	6d40      	ldr	r0, [r0, #84]	; 0x54
 8001df6:	4770      	bx	lr

08001df8 <HAL_GPIO_Init>:
 8001df8:	e92d 4ff0 	stmdb	sp!, {r4, r5, r6, r7, r8, r9, sl, fp, lr}
 8001dfc:	2300      	movs	r3, #0
 8001dfe:	b08b      	sub	sp, #44	; 0x2c
 8001e00:	f8d1 e000 	ldr.w	lr, [r1]
 8001e04:	468a      	mov	sl, r1
 8001e06:	f44f 6280 	mov.w	r2, #1024	; 0x400
 8001e0a:	f44f 6400 	mov.w	r4, #2048	; 0x800
 8001e0e:	f44f 6540 	mov.w	r5, #3072	; 0xc00
 8001e12:	f44f 5680 	mov.w	r6, #4096	; 0x1000
 8001e16:	f44f 57a0 	mov.w	r7, #5120	; 0x1400
 8001e1a:	f44f 51c0 	mov.w	r1, #6144	; 0x1800
 8001e1e:	f2c4 0302 	movt	r3, #16386	; 0x4002
 8001e22:	f2c4 0102 	movt	r1, #16386	; 0x4002
 8001e26:	f44f 5b60 	mov.w	fp, #14336	; 0x3800
 8001e2a:	f44f 5c70 	mov.w	ip, #15360	; 0x3c00
 8001e2e:	f2c4 0202 	movt	r2, #16386	; 0x4002
 8001e32:	f2c4 0402 	movt	r4, #16386	; 0x4002
 8001e36:	f2c4 0502 	movt	r5, #16386	; 0x4002
 8001e3a:	f2c4 0602 	movt	r6, #16386	; 0x4002
 8001e3e:	f2c4 0702 	movt	r7, #16386	; 0x4002
 8001e42:	9301      	str	r3, [sp, #4]
 8001e44:	9107      	str	r1, [sp, #28]
 8001e46:	f2c4 0b02 	movt	fp, #16386	; 0x4002
 8001e4a:	f2c4 0c01 	movt	ip, #16385	; 0x4001
 8001e4e:	9202      	str	r2, [sp, #8]
 8001e50:	9403      	str	r4, [sp, #12]
 8001e52:	9504      	str	r5, [sp, #16]
 8001e54:	9605      	str	r6, [sp, #20]
 8001e56:	9706      	str	r7, [sp, #24]
 8001e58:	2300      	movs	r3, #0
 8001e5a:	4671      	mov	r1, lr
 8001e5c:	e003      	b.n	8001e66 <HAL_GPIO_Init+0x6e>
 8001e5e:	3301      	adds	r3, #1
 8001e60:	2b10      	cmp	r3, #16
 8001e62:	f000 808a 	beq.w	8001f7a <HAL_GPIO_Init+0x182>
 8001e66:	2201      	movs	r2, #1
 8001e68:	409a      	lsls	r2, r3
 8001e6a:	ea02 0401 	and.w	r4, r2, r1
 8001e6e:	438a      	bics	r2, r1
 8001e70:	9400      	str	r4, [sp, #0]
 8001e72:	d1f4      	bne.n	8001e5e <HAL_GPIO_Init+0x66>
 8001e74:	f8da 5004 	ldr.w	r5, [sl, #4]
 8001e78:	f005 0203 	and.w	r2, r5, #3
 8001e7c:	1e54      	subs	r4, r2, #1
 8001e7e:	2c01      	cmp	r4, #1
 8001e80:	ea4f 0e43 	mov.w	lr, r3, lsl #1
 8001e84:	d97c      	bls.n	8001f80 <HAL_GPIO_Init+0x188>
 8001e86:	2a03      	cmp	r2, #3
 8001e88:	f040 80bb 	bne.w	8002002 <HAL_GPIO_Init+0x20a>
 8001e8c:	fa02 f20e 	lsl.w	r2, r2, lr
 8001e90:	43d4      	mvns	r4, r2
 8001e92:	6807      	ldr	r7, [r0, #0]
 8001e94:	403c      	ands	r4, r7
 8001e96:	4322      	orrs	r2, r4
 8001e98:	f415 3f40 	tst.w	r5, #196608	; 0x30000
 8001e9c:	6002      	str	r2, [r0, #0]
 8001e9e:	d0de      	beq.n	8001e5e <HAL_GPIO_Init+0x66>
 8001ea0:	2200      	movs	r2, #0
 8001ea2:	9209      	str	r2, [sp, #36]	; 0x24
 8001ea4:	f8db 2044 	ldr.w	r2, [fp, #68]	; 0x44
 8001ea8:	9e01      	ldr	r6, [sp, #4]
 8001eaa:	f442 4280 	orr.w	r2, r2, #16384	; 0x4000
 8001eae:	f8cb 2044 	str.w	r2, [fp, #68]	; 0x44
 8001eb2:	f8db 2044 	ldr.w	r2, [fp, #68]	; 0x44
 8001eb6:	f023 0403 	bic.w	r4, r3, #3
 8001eba:	f104 4480 	add.w	r4, r4, #1073741824	; 0x40000000
 8001ebe:	f402 4280 	and.w	r2, r2, #16384	; 0x4000
 8001ec2:	f504 349c 	add.w	r4, r4, #79872	; 0x13800
 8001ec6:	9209      	str	r2, [sp, #36]	; 0x24
 8001ec8:	f003 0703 	and.w	r7, r3, #3
 8001ecc:	9a09      	ldr	r2, [sp, #36]	; 0x24
 8001ece:	f8d4 e008 	ldr.w	lr, [r4, #8]
 8001ed2:	00bf      	lsls	r7, r7, #2
 8001ed4:	220f      	movs	r2, #15
 8001ed6:	40ba      	lsls	r2, r7
 8001ed8:	42b0      	cmp	r0, r6
 8001eda:	ea2e 0202 	bic.w	r2, lr, r2
 8001ede:	d01d      	beq.n	8001f1c <HAL_GPIO_Init+0x124>
 8001ee0:	9e02      	ldr	r6, [sp, #8]
 8001ee2:	42b0      	cmp	r0, r6
 8001ee4:	f000 8092 	beq.w	800200c <HAL_GPIO_Init+0x214>
 8001ee8:	9e03      	ldr	r6, [sp, #12]
 8001eea:	42b0      	cmp	r0, r6
 8001eec:	f000 8094 	beq.w	8002018 <HAL_GPIO_Init+0x220>
 8001ef0:	9e04      	ldr	r6, [sp, #16]
 8001ef2:	42b0      	cmp	r0, r6
 8001ef4:	f000 8096 	beq.w	8002024 <HAL_GPIO_Init+0x22c>
 8001ef8:	9e05      	ldr	r6, [sp, #20]
 8001efa:	42b0      	cmp	r0, r6
 8001efc:	f000 8098 	beq.w	8002030 <HAL_GPIO_Init+0x238>
 8001f00:	9e06      	ldr	r6, [sp, #24]
 8001f02:	42b0      	cmp	r0, r6
 8001f04:	f000 809a 	beq.w	800203c <HAL_GPIO_Init+0x244>
 8001f08:	9e07      	ldr	r6, [sp, #28]
 8001f0a:	42b0      	cmp	r0, r6
 8001f0c:	bf0c      	ite	eq
 8001f0e:	f04f 0e06 	moveq.w	lr, #6
 8001f12:	f04f 0e07 	movne.w	lr, #7
 8001f16:	fa0e f707 	lsl.w	r7, lr, r7
 8001f1a:	433a      	orrs	r2, r7
 8001f1c:	60a2      	str	r2, [r4, #8]
 8001f1e:	03ee      	lsls	r6, r5, #15
 8001f20:	9c00      	ldr	r4, [sp, #0]
 8001f22:	bf48      	it	mi
 8001f24:	9e00      	ldrmi	r6, [sp, #0]
 8001f26:	f8dc 2000 	ldr.w	r2, [ip]
 8001f2a:	ea6f 0404 	mvn.w	r4, r4
 8001f2e:	bf4c      	ite	mi
 8001f30:	4332      	orrmi	r2, r6
 8001f32:	4022      	andpl	r2, r4
 8001f34:	f8cc 2000 	str.w	r2, [ip]
 8001f38:	03af      	lsls	r7, r5, #14
 8001f3a:	f8dc 2004 	ldr.w	r2, [ip, #4]
 8001f3e:	bf4a      	itet	mi
 8001f40:	9e00      	ldrmi	r6, [sp, #0]
 8001f42:	4022      	andpl	r2, r4
 8001f44:	4332      	orrmi	r2, r6
 8001f46:	f8cc 2004 	str.w	r2, [ip, #4]
 8001f4a:	02ee      	lsls	r6, r5, #11
 8001f4c:	f8dc 2008 	ldr.w	r2, [ip, #8]
 8001f50:	bf4a      	itet	mi
 8001f52:	9e00      	ldrmi	r6, [sp, #0]
 8001f54:	4022      	andpl	r2, r4
 8001f56:	4332      	orrmi	r2, r6
 8001f58:	f8cc 2008 	str.w	r2, [ip, #8]
 8001f5c:	02ad      	lsls	r5, r5, #10
 8001f5e:	f8dc 200c 	ldr.w	r2, [ip, #12]
 8001f62:	bf48      	it	mi
 8001f64:	9c00      	ldrmi	r4, [sp, #0]
 8001f66:	f103 0301 	add.w	r3, r3, #1
 8001f6a:	bf54      	ite	pl
 8001f6c:	4022      	andpl	r2, r4
 8001f6e:	4322      	orrmi	r2, r4
 8001f70:	2b10      	cmp	r3, #16
 8001f72:	f8cc 200c 	str.w	r2, [ip, #12]
 8001f76:	f47f af76 	bne.w	8001e66 <HAL_GPIO_Init+0x6e>
 8001f7a:	b00b      	add	sp, #44	; 0x2c
 8001f7c:	e8bd 8ff0 	ldmia.w	sp!, {r4, r5, r6, r7, r8, r9, sl, fp, pc}
 8001f80:	6887      	ldr	r7, [r0, #8]
 8001f82:	f8da 600c 	ldr.w	r6, [sl, #12]
 8001f86:	2403      	movs	r4, #3
 8001f88:	fa04 f40e 	lsl.w	r4, r4, lr
 8001f8c:	ea27 0804 	bic.w	r8, r7, r4
 8001f90:	fa06 f70e 	lsl.w	r7, r6, lr
 8001f94:	ea47 0708 	orr.w	r7, r7, r8
 8001f98:	6087      	str	r7, [r0, #8]
 8001f9a:	f8d0 8004 	ldr.w	r8, [r0, #4]
 8001f9e:	9e00      	ldr	r6, [sp, #0]
 8001fa0:	f3c5 1700 	ubfx	r7, r5, #4, #1
 8001fa4:	ea28 0806 	bic.w	r8, r8, r6
 8001fa8:	409f      	lsls	r7, r3
 8001faa:	ea47 0708 	orr.w	r7, r7, r8
 8001fae:	43e4      	mvns	r4, r4
 8001fb0:	6047      	str	r7, [r0, #4]
 8001fb2:	68c7      	ldr	r7, [r0, #12]
 8001fb4:	ea07 0804 	and.w	r8, r7, r4
 8001fb8:	f8da 7008 	ldr.w	r7, [sl, #8]
 8001fbc:	fa07 f70e 	lsl.w	r7, r7, lr
 8001fc0:	ea47 0708 	orr.w	r7, r7, r8
 8001fc4:	2a02      	cmp	r2, #2
 8001fc6:	60c7      	str	r7, [r0, #12]
 8001fc8:	d002      	beq.n	8001fd0 <HAL_GPIO_Init+0x1d8>
 8001fca:	fa02 f20e 	lsl.w	r2, r2, lr
 8001fce:	e760      	b.n	8001e92 <HAL_GPIO_Init+0x9a>
 8001fd0:	ea4f 09d3 	mov.w	r9, r3, lsr #3
 8001fd4:	eb00 0989 	add.w	r9, r0, r9, lsl #2
 8001fd8:	f003 0807 	and.w	r8, r3, #7
 8001fdc:	f8d9 7020 	ldr.w	r7, [r9, #32]
 8001fe0:	ea4f 0888 	mov.w	r8, r8, lsl #2
 8001fe4:	260f      	movs	r6, #15
 8001fe6:	fa06 f608 	lsl.w	r6, r6, r8
 8001fea:	ea27 0606 	bic.w	r6, r7, r6
 8001fee:	f8da 7010 	ldr.w	r7, [sl, #16]
 8001ff2:	fa07 f708 	lsl.w	r7, r7, r8
 8001ff6:	4337      	orrs	r7, r6
 8001ff8:	fa02 f20e 	lsl.w	r2, r2, lr
 8001ffc:	f8c9 7020 	str.w	r7, [r9, #32]
 8002000:	e747      	b.n	8001e92 <HAL_GPIO_Init+0x9a>
 8002002:	2403      	movs	r4, #3
 8002004:	fa04 f40e 	lsl.w	r4, r4, lr
 8002008:	43e4      	mvns	r4, r4
 800200a:	e7d2      	b.n	8001fb2 <HAL_GPIO_Init+0x1ba>
 800200c:	f04f 0e01 	mov.w	lr, #1
 8002010:	fa0e f707 	lsl.w	r7, lr, r7
 8002014:	433a      	orrs	r2, r7
 8002016:	e781      	b.n	8001f1c <HAL_GPIO_Init+0x124>
 8002018:	f04f 0e02 	mov.w	lr, #2
 800201c:	fa0e f707 	lsl.w	r7, lr, r7
 8002020:	433a      	orrs	r2, r7
 8002022:	e77b      	b.n	8001f1c <HAL_GPIO_Init+0x124>
 8002024:	f04f 0e03 	mov.w	lr, #3
 8002028:	fa0e f707 	lsl.w	r7, lr, r7
 800202c:	433a      	orrs	r2, r7
 800202e:	e775      	b.n	8001f1c <HAL_GPIO_Init+0x124>
 8002030:	f04f 0e04 	mov.w	lr, #4
 8002034:	fa0e f707 	lsl.w	r7, lr, r7
 8002038:	433a      	orrs	r2, r7
 800203a:	e76f      	b.n	8001f1c <HAL_GPIO_Init+0x124>
 800203c:	f04f 0e05 	mov.w	lr, #5
 8002040:	fa0e f707 	lsl.w	r7, lr, r7
 8002044:	433a      	orrs	r2, r7
 8002046:	e769      	b.n	8001f1c <HAL_GPIO_Init+0x124>

08002048 <HAL_GPIO_DeInit>:
 8002048:	e92d 4ff0 	stmdb	sp!, {r4, r5, r6, r7, r8, r9, sl, fp, lr}
 800204c:	f44f 6340 	mov.w	r3, #3072	; 0xc00
 8002050:	b087      	sub	sp, #28
 8002052:	f44f 6b00 	mov.w	fp, #2048	; 0x800
 8002056:	f44f 5280 	mov.w	r2, #4096	; 0x1000
 800205a:	f44f 54a0 	mov.w	r4, #5120	; 0x1400
 800205e:	f44f 55c0 	mov.w	r5, #6144	; 0x1800
 8002062:	f2c4 0302 	movt	r3, #16386	; 0x4002
 8002066:	f04f 0900 	mov.w	r9, #0
 800206a:	f44f 5870 	mov.w	r8, #15360	; 0x3c00
 800206e:	f44f 6a80 	mov.w	sl, #1024	; 0x400
 8002072:	f2c4 0b02 	movt	fp, #16386	; 0x4002
 8002076:	f2c4 0202 	movt	r2, #16386	; 0x4002
 800207a:	f2c4 0402 	movt	r4, #16386	; 0x4002
 800207e:	f2c4 0502 	movt	r5, #16386	; 0x4002
 8002082:	9302      	str	r3, [sp, #8]
 8002084:	f2c4 0902 	movt	r9, #16386	; 0x4002
 8002088:	f2c4 0801 	movt	r8, #16385	; 0x4001
 800208c:	f2c4 0a02 	movt	sl, #16386	; 0x4002
 8002090:	9203      	str	r2, [sp, #12]
 8002092:	9404      	str	r4, [sp, #16]
 8002094:	9505      	str	r5, [sp, #20]
 8002096:	2300      	movs	r3, #0
 8002098:	f04f 0e01 	mov.w	lr, #1
 800209c:	f8cd b004 	str.w	fp, [sp, #4]
 80020a0:	e002      	b.n	80020a8 <HAL_GPIO_DeInit+0x60>
 80020a2:	3301      	adds	r3, #1
 80020a4:	2b10      	cmp	r3, #16
 80020a6:	d072      	beq.n	800218e <HAL_GPIO_DeInit+0x146>
 80020a8:	fa0e f203 	lsl.w	r2, lr, r3
 80020ac:	ea32 0401 	bics.w	r4, r2, r1
 80020b0:	ea02 0701 	and.w	r7, r2, r1
 80020b4:	d1f5      	bne.n	80020a2 <HAL_GPIO_DeInit+0x5a>
 80020b6:	f023 0503 	bic.w	r5, r3, #3
 80020ba:	f105 4580 	add.w	r5, r5, #1073741824	; 0x40000000
 80020be:	f505 359c 	add.w	r5, r5, #79872	; 0x13800
 80020c2:	f003 0403 	and.w	r4, r3, #3
 80020c6:	f8d5 c008 	ldr.w	ip, [r5, #8]
 80020ca:	00a4      	lsls	r4, r4, #2
 80020cc:	260f      	movs	r6, #15
 80020ce:	40a6      	lsls	r6, r4
 80020d0:	4548      	cmp	r0, r9
 80020d2:	9600      	str	r6, [sp, #0]
 80020d4:	ea06 0c0c 	and.w	ip, r6, ip
 80020d8:	d05c      	beq.n	8002194 <HAL_GPIO_DeInit+0x14c>
 80020da:	4550      	cmp	r0, sl
 80020dc:	d05c      	beq.n	8002198 <HAL_GPIO_DeInit+0x150>
 80020de:	9e01      	ldr	r6, [sp, #4]
 80020e0:	42b0      	cmp	r0, r6
 80020e2:	d05c      	beq.n	800219e <HAL_GPIO_DeInit+0x156>
 80020e4:	9e02      	ldr	r6, [sp, #8]
 80020e6:	42b0      	cmp	r0, r6
 80020e8:	d05e      	beq.n	80021a8 <HAL_GPIO_DeInit+0x160>
 80020ea:	9e03      	ldr	r6, [sp, #12]
 80020ec:	42b0      	cmp	r0, r6
 80020ee:	d060      	beq.n	80021b2 <HAL_GPIO_DeInit+0x16a>
 80020f0:	9e04      	ldr	r6, [sp, #16]
 80020f2:	42b0      	cmp	r0, r6
 80020f4:	d062      	beq.n	80021bc <HAL_GPIO_DeInit+0x174>
 80020f6:	9e05      	ldr	r6, [sp, #20]
 80020f8:	42b0      	cmp	r0, r6
 80020fa:	bf14      	ite	ne
 80020fc:	f04f 0b07 	movne.w	fp, #7
 8002100:	f04f 0b06 	moveq.w	fp, #6
 8002104:	fa0b f404 	lsl.w	r4, fp, r4
 8002108:	45a4      	cmp	ip, r4
 800210a:	d11c      	bne.n	8002146 <HAL_GPIO_DeInit+0xfe>
 800210c:	f8d8 4000 	ldr.w	r4, [r8]
 8002110:	9e00      	ldr	r6, [sp, #0]
 8002112:	ea24 0407 	bic.w	r4, r4, r7
 8002116:	f8c8 4000 	str.w	r4, [r8]
 800211a:	f8d8 4004 	ldr.w	r4, [r8, #4]
 800211e:	ea24 0407 	bic.w	r4, r4, r7
 8002122:	f8c8 4004 	str.w	r4, [r8, #4]
 8002126:	f8d8 4008 	ldr.w	r4, [r8, #8]
 800212a:	ea24 0407 	bic.w	r4, r4, r7
 800212e:	f8c8 4008 	str.w	r4, [r8, #8]
 8002132:	f8d8 400c 	ldr.w	r4, [r8, #12]
 8002136:	ea24 0707 	bic.w	r7, r4, r7
 800213a:	f8c8 700c 	str.w	r7, [r8, #12]
 800213e:	68ac      	ldr	r4, [r5, #8]
 8002140:	ea24 0606 	bic.w	r6, r4, r6
 8002144:	60ae      	str	r6, [r5, #8]
 8002146:	6806      	ldr	r6, [r0, #0]
 8002148:	005c      	lsls	r4, r3, #1
 800214a:	2503      	movs	r5, #3
 800214c:	40a5      	lsls	r5, r4
 800214e:	08dc      	lsrs	r4, r3, #3
 8002150:	ea26 0605 	bic.w	r6, r6, r5
 8002154:	eb00 0484 	add.w	r4, r0, r4, lsl #2
 8002158:	6006      	str	r6, [r0, #0]
 800215a:	f003 0607 	and.w	r6, r3, #7
 800215e:	6a27      	ldr	r7, [r4, #32]
 8002160:	00b6      	lsls	r6, r6, #2
 8002162:	f04f 0c0f 	mov.w	ip, #15
 8002166:	fa0c f606 	lsl.w	r6, ip, r6
 800216a:	ea27 0606 	bic.w	r6, r7, r6
 800216e:	6226      	str	r6, [r4, #32]
 8002170:	68c4      	ldr	r4, [r0, #12]
 8002172:	ea24 0405 	bic.w	r4, r4, r5
 8002176:	60c4      	str	r4, [r0, #12]
 8002178:	6844      	ldr	r4, [r0, #4]
 800217a:	ea24 0202 	bic.w	r2, r4, r2
 800217e:	6042      	str	r2, [r0, #4]
 8002180:	6882      	ldr	r2, [r0, #8]
 8002182:	3301      	adds	r3, #1
 8002184:	ea22 0505 	bic.w	r5, r2, r5
 8002188:	2b10      	cmp	r3, #16
 800218a:	6085      	str	r5, [r0, #8]
 800218c:	d18c      	bne.n	80020a8 <HAL_GPIO_DeInit+0x60>
 800218e:	b007      	add	sp, #28
 8002190:	e8bd 8ff0 	ldmia.w	sp!, {r4, r5, r6, r7, r8, r9, sl, fp, pc}
 8002194:	2400      	movs	r4, #0
 8002196:	e7b7      	b.n	8002108 <HAL_GPIO_DeInit+0xc0>
 8002198:	fa0e f404 	lsl.w	r4, lr, r4
 800219c:	e7b4      	b.n	8002108 <HAL_GPIO_DeInit+0xc0>
 800219e:	f04f 0b02 	mov.w	fp, #2
 80021a2:	fa0b f404 	lsl.w	r4, fp, r4
 80021a6:	e7af      	b.n	8002108 <HAL_GPIO_DeInit+0xc0>
 80021a8:	f04f 0b03 	mov.w	fp, #3
 80021ac:	fa0b f404 	lsl.w	r4, fp, r4
 80021b0:	e7aa      	b.n	8002108 <HAL_GPIO_DeInit+0xc0>
 80021b2:	f04f 0b04 	mov.w	fp, #4
 80021b6:	fa0b f404 	lsl.w	r4, fp, r4
 80021ba:	e7a5      	b.n	8002108 <HAL_GPIO_DeInit+0xc0>
 80021bc:	f04f 0b05 	mov.w	fp, #5
 80021c0:	fa0b f404 	lsl.w	r4, fp, r4
 80021c4:	e7a0      	b.n	8002108 <HAL_GPIO_DeInit+0xc0>
 80021c6:	bf00      	nop

080021c8 <HAL_GPIO_ReadPin>:
 80021c8:	6903      	ldr	r3, [r0, #16]
 80021ca:	4219      	tst	r1, r3
 80021cc:	bf14      	ite	ne
 80021ce:	2001      	movne	r0, #1
 80021d0:	2000      	moveq	r0, #0
 80021d2:	4770      	bx	lr

080021d4 <HAL_GPIO_WritePin>:
 80021d4:	b902      	cbnz	r2, 80021d8 <HAL_GPIO_WritePin+0x4>
 80021d6:	0409      	lsls	r1, r1, #16
 80021d8:	6181      	str	r1, [r0, #24]
 80021da:	4770      	bx	lr

080021dc <HAL_GPIO_TogglePin>:
 80021dc:	6943      	ldr	r3, [r0, #20]
 80021de:	ea01 0203 	and.w	r2, r1, r3
 80021e2:	ea21 0103 	bic.w	r1, r1, r3
 80021e6:	ea41 4102 	orr.w	r1, r1, r2, lsl #16
 80021ea:	6181      	str	r1, [r0, #24]
 80021ec:	4770      	bx	lr
 80021ee:	bf00      	nop

080021f0 <HAL_GPIO_LockPin>:
 80021f0:	b082      	sub	sp, #8
 80021f2:	f44f 3380 	mov.w	r3, #65536	; 0x10000
 80021f6:	9301      	str	r3, [sp, #4]
 80021f8:	9b01      	ldr	r3, [sp, #4]
 80021fa:	430b      	orrs	r3, r1
 80021fc:	9301      	str	r3, [sp, #4]
 80021fe:	9b01      	ldr	r3, [sp, #4]
 8002200:	61c3      	str	r3, [r0, #28]
 8002202:	61c1      	str	r1, [r0, #28]
 8002204:	9b01      	ldr	r3, [sp, #4]
 8002206:	61c3      	str	r3, [r0, #28]
 8002208:	69c3      	ldr	r3, [r0, #28]
 800220a:	9301      	str	r3, [sp, #4]
 800220c:	69c0      	ldr	r0, [r0, #28]
 800220e:	f480 3080 	eor.w	r0, r0, #65536	; 0x10000
 8002212:	f3c0 4000 	ubfx	r0, r0, #16, #1
 8002216:	b002      	add	sp, #8
 8002218:	4770      	bx	lr
 800221a:	bf00      	nop

0800221c <HAL_GPIO_EXTI_Callback>:
 800221c:	4770      	bx	lr
 800221e:	bf00      	nop

08002220 <HAL_GPIO_EXTI_IRQHandler>:
 8002220:	f44f 5270 	mov.w	r2, #15360	; 0x3c00
 8002224:	f2c4 0201 	movt	r2, #16385	; 0x4001
 8002228:	6951      	ldr	r1, [r2, #20]
 800222a:	4201      	tst	r1, r0
 800222c:	d100      	bne.n	8002230 <HAL_GPIO_EXTI_IRQHandler+0x10>
 800222e:	4770      	bx	lr
 8002230:	b508      	push	{r3, lr}
 8002232:	6150      	str	r0, [r2, #20]
 8002234:	f7ff fff2 	bl	800221c <HAL_GPIO_EXTI_Callback>
 8002238:	bd08      	pop	{r3, pc}
 800223a:	bf00      	nop
 800223c:	2000      	movs	r0, #0
 800223e:	4770      	bx	lr
 8002240:	2800      	cmp	r0, #0
 8002242:	f000 81eb 	beq.w	800261c <HAL_GPIO_EXTI_IRQHandler+0x3fc>
 8002246:	e92d 41f0 	stmdb	sp!, {r4, r5, r6, r7, r8, lr}
 800224a:	6803      	ldr	r3, [r0, #0]
 800224c:	07dd      	lsls	r5, r3, #31
 800224e:	b082      	sub	sp, #8
 8002250:	4604      	mov	r4, r0
 8002252:	d535      	bpl.n	80022c0 <HAL_GPIO_EXTI_IRQHandler+0xa0>
 8002254:	f44f 5160 	mov.w	r1, #14336	; 0x3800
 8002258:	f2c4 0102 	movt	r1, #16386	; 0x4002
 800225c:	688a      	ldr	r2, [r1, #8]
 800225e:	f002 020c 	and.w	r2, r2, #12
 8002262:	2a04      	cmp	r2, #4
 8002264:	f000 8116 	beq.w	8002494 <HAL_GPIO_EXTI_IRQHandler+0x274>
 8002268:	688a      	ldr	r2, [r1, #8]
 800226a:	f002 020c 	and.w	r2, r2, #12
 800226e:	2a08      	cmp	r2, #8
 8002270:	f000 810c 	beq.w	800248c <HAL_GPIO_EXTI_IRQHandler+0x26c>
 8002274:	6863      	ldr	r3, [r4, #4]
 8002276:	f5b3 3f80 	cmp.w	r3, #65536	; 0x10000
 800227a:	f000 8118 	beq.w	80024ae <HAL_GPIO_EXTI_IRQHandler+0x28e>
 800227e:	f5b3 2fa0 	cmp.w	r3, #327680	; 0x50000
 8002282:	f000 81b5 	beq.w	80025f0 <HAL_GPIO_EXTI_IRQHandler+0x3d0>
 8002286:	f44f 5560 	mov.w	r5, #14336	; 0x3800
 800228a:	f2c4 0502 	movt	r5, #16386	; 0x4002
 800228e:	682a      	ldr	r2, [r5, #0]
 8002290:	f422 3280 	bic.w	r2, r2, #65536	; 0x10000
 8002294:	602a      	str	r2, [r5, #0]
 8002296:	682a      	ldr	r2, [r5, #0]
 8002298:	f422 2280 	bic.w	r2, r2, #262144	; 0x40000
 800229c:	602a      	str	r2, [r5, #0]
 800229e:	2b00      	cmp	r3, #0
 80022a0:	f040 810d 	bne.w	80024be <HAL_GPIO_EXTI_IRQHandler+0x29e>
 80022a4:	f7fe ff24 	bl	80010f0 <HAL_GetTick>
 80022a8:	4606      	mov	r6, r0
 80022aa:	e005      	b.n	80022b8 <HAL_GPIO_EXTI_IRQHandler+0x98>
 80022ac:	f7fe ff20 	bl	80010f0 <HAL_GetTick>
 80022b0:	1b80      	subs	r0, r0, r6
 80022b2:	2864      	cmp	r0, #100	; 0x64
 80022b4:	f200 8133 	bhi.w	800251e <HAL_GPIO_EXTI_IRQHandler+0x2fe>
 80022b8:	682b      	ldr	r3, [r5, #0]
 80022ba:	039b      	lsls	r3, r3, #14
 80022bc:	d4f6      	bmi.n	80022ac <HAL_GPIO_EXTI_IRQHandler+0x8c>
 80022be:	6823      	ldr	r3, [r4, #0]
 80022c0:	079f      	lsls	r7, r3, #30
 80022c2:	d530      	bpl.n	8002326 <HAL_GPIO_EXTI_IRQHandler+0x106>
 80022c4:	f44f 5260 	mov.w	r2, #14336	; 0x3800
 80022c8:	f2c4 0202 	movt	r2, #16386	; 0x4002
 80022cc:	6891      	ldr	r1, [r2, #8]
 80022ce:	f011 0f0c 	tst.w	r1, #12
 80022d2:	f000 80ab 	beq.w	800242c <HAL_GPIO_EXTI_IRQHandler+0x20c>
 80022d6:	6891      	ldr	r1, [r2, #8]
 80022d8:	f001 010c 	and.w	r1, r1, #12
 80022dc:	2908      	cmp	r1, #8
 80022de:	f000 80a1 	beq.w	8002424 <HAL_GPIO_EXTI_IRQHandler+0x204>
 80022e2:	68e3      	ldr	r3, [r4, #12]
 80022e4:	2b00      	cmp	r3, #0
 80022e6:	f000 813c 	beq.w	8002562 <HAL_GPIO_EXTI_IRQHandler+0x342>
 80022ea:	2300      	movs	r3, #0
 80022ec:	f2c4 2347 	movt	r3, #16967	; 0x4247
 80022f0:	2201      	movs	r2, #1
 80022f2:	601a      	str	r2, [r3, #0]
 80022f4:	f7fe fefc 	bl	80010f0 <HAL_GetTick>
 80022f8:	f44f 5560 	mov.w	r5, #14336	; 0x3800
 80022fc:	4606      	mov	r6, r0
 80022fe:	f2c4 0502 	movt	r5, #16386	; 0x4002
 8002302:	e005      	b.n	8002310 <HAL_GPIO_EXTI_IRQHandler+0xf0>
 8002304:	f7fe fef4 	bl	80010f0 <HAL_GetTick>
 8002308:	1b80      	subs	r0, r0, r6
 800230a:	2802      	cmp	r0, #2
 800230c:	f200 8107 	bhi.w	800251e <HAL_GPIO_EXTI_IRQHandler+0x2fe>
 8002310:	682b      	ldr	r3, [r5, #0]
 8002312:	0798      	lsls	r0, r3, #30
 8002314:	d5f6      	bpl.n	8002304 <HAL_GPIO_EXTI_IRQHandler+0xe4>
 8002316:	682b      	ldr	r3, [r5, #0]
 8002318:	6922      	ldr	r2, [r4, #16]
 800231a:	f023 03f8 	bic.w	r3, r3, #248	; 0xf8
 800231e:	ea43 03c2 	orr.w	r3, r3, r2, lsl #3
 8002322:	602b      	str	r3, [r5, #0]
 8002324:	6823      	ldr	r3, [r4, #0]
 8002326:	071a      	lsls	r2, r3, #28
 8002328:	d461      	bmi.n	80023ee <HAL_GPIO_EXTI_IRQHandler+0x1ce>
 800232a:	0758      	lsls	r0, r3, #29
 800232c:	d539      	bpl.n	80023a2 <HAL_GPIO_EXTI_IRQHandler+0x182>
 800232e:	f44f 5360 	mov.w	r3, #14336	; 0x3800
 8002332:	f2c4 0302 	movt	r3, #16386	; 0x4002
 8002336:	6c1a      	ldr	r2, [r3, #64]	; 0x40
 8002338:	f012 5280 	ands.w	r2, r2, #268435456	; 0x10000000
 800233c:	f000 809a 	beq.w	8002474 <HAL_GPIO_EXTI_IRQHandler+0x254>
 8002340:	2500      	movs	r5, #0
 8002342:	f44f 46e0 	mov.w	r6, #28672	; 0x7000
 8002346:	f2c4 0600 	movt	r6, #16384	; 0x4000
 800234a:	6833      	ldr	r3, [r6, #0]
 800234c:	05d9      	lsls	r1, r3, #23
 800234e:	f140 80d6 	bpl.w	80024fe <HAL_GPIO_EXTI_IRQHandler+0x2de>
 8002352:	68a3      	ldr	r3, [r4, #8]
 8002354:	2b01      	cmp	r3, #1
 8002356:	f000 80e6 	beq.w	8002526 <HAL_GPIO_EXTI_IRQHandler+0x306>
 800235a:	2b05      	cmp	r3, #5
 800235c:	f000 8160 	beq.w	8002620 <HAL_GPIO_EXTI_IRQHandler+0x400>
 8002360:	f44f 5660 	mov.w	r6, #14336	; 0x3800
 8002364:	f2c4 0602 	movt	r6, #16386	; 0x4002
 8002368:	6f32      	ldr	r2, [r6, #112]	; 0x70
 800236a:	f022 0201 	bic.w	r2, r2, #1
 800236e:	6732      	str	r2, [r6, #112]	; 0x70
 8002370:	6f32      	ldr	r2, [r6, #112]	; 0x70
 8002372:	f022 0204 	bic.w	r2, r2, #4
 8002376:	6732      	str	r2, [r6, #112]	; 0x70
 8002378:	2b00      	cmp	r3, #0
 800237a:	f040 80dc 	bne.w	8002536 <HAL_GPIO_EXTI_IRQHandler+0x316>
 800237e:	f7fe feb7 	bl	80010f0 <HAL_GetTick>
 8002382:	f241 3888 	movw	r8, #5000	; 0x1388
 8002386:	4607      	mov	r7, r0
 8002388:	e005      	b.n	8002396 <HAL_GPIO_EXTI_IRQHandler+0x176>
 800238a:	f7fe feb1 	bl	80010f0 <HAL_GetTick>
 800238e:	1bc0      	subs	r0, r0, r7
 8002390:	4540      	cmp	r0, r8
 8002392:	f200 80c4 	bhi.w	800251e <HAL_GPIO_EXTI_IRQHandler+0x2fe>
 8002396:	6f33      	ldr	r3, [r6, #112]	; 0x70
 8002398:	0798      	lsls	r0, r3, #30
 800239a:	d4f6      	bmi.n	800238a <HAL_GPIO_EXTI_IRQHandler+0x16a>
 800239c:	2d00      	cmp	r5, #0
 800239e:	f040 8134 	bne.w	800260a <HAL_GPIO_EXTI_IRQHandler+0x3ea>
 80023a2:	69a0      	ldr	r0, [r4, #24]
 80023a4:	b1f8      	cbz	r0, 80023e6 <HAL_GPIO_EXTI_IRQHandler+0x1c6>
 80023a6:	f44f 5560 	mov.w	r5, #14336	; 0x3800
 80023aa:	f2c4 0502 	movt	r5, #16386	; 0x4002
 80023ae:	68ab      	ldr	r3, [r5, #8]
 80023b0:	f003 030c 	and.w	r3, r3, #12
 80023b4:	2b08      	cmp	r3, #8
 80023b6:	f000 80ea 	beq.w	800258e <HAL_GPIO_EXTI_IRQHandler+0x36e>
 80023ba:	2360      	movs	r3, #96	; 0x60
 80023bc:	f2c4 2347 	movt	r3, #16967	; 0x4247
 80023c0:	2200      	movs	r2, #0
 80023c2:	2802      	cmp	r0, #2
 80023c4:	601a      	str	r2, [r3, #0]
 80023c6:	f000 8138 	beq.w	800263a <HAL_GPIO_EXTI_IRQHandler+0x41a>
 80023ca:	f7fe fe91 	bl	80010f0 <HAL_GetTick>
 80023ce:	462c      	mov	r4, r5
 80023d0:	4605      	mov	r5, r0
 80023d2:	e005      	b.n	80023e0 <HAL_GPIO_EXTI_IRQHandler+0x1c0>
 80023d4:	f7fe fe8c 	bl	80010f0 <HAL_GetTick>
 80023d8:	1b40      	subs	r0, r0, r5
 80023da:	2802      	cmp	r0, #2
 80023dc:	f200 809f 	bhi.w	800251e <HAL_GPIO_EXTI_IRQHandler+0x2fe>
 80023e0:	6823      	ldr	r3, [r4, #0]
 80023e2:	019b      	lsls	r3, r3, #6
 80023e4:	d4f6      	bmi.n	80023d4 <HAL_GPIO_EXTI_IRQHandler+0x1b4>
 80023e6:	2000      	movs	r0, #0
 80023e8:	b002      	add	sp, #8
 80023ea:	e8bd 81f0 	ldmia.w	sp!, {r4, r5, r6, r7, r8, pc}
 80023ee:	6963      	ldr	r3, [r4, #20]
 80023f0:	b353      	cbz	r3, 8002448 <HAL_GPIO_EXTI_IRQHandler+0x228>
 80023f2:	f44f 6368 	mov.w	r3, #3712	; 0xe80
 80023f6:	f2c4 2347 	movt	r3, #16967	; 0x4247
 80023fa:	2201      	movs	r2, #1
 80023fc:	601a      	str	r2, [r3, #0]
 80023fe:	f7fe fe77 	bl	80010f0 <HAL_GetTick>
 8002402:	f44f 5660 	mov.w	r6, #14336	; 0x3800
 8002406:	4605      	mov	r5, r0
 8002408:	f2c4 0602 	movt	r6, #16386	; 0x4002
 800240c:	e005      	b.n	800241a <HAL_GPIO_EXTI_IRQHandler+0x1fa>
 800240e:	f7fe fe6f 	bl	80010f0 <HAL_GetTick>
 8002412:	1b40      	subs	r0, r0, r5
 8002414:	2802      	cmp	r0, #2
 8002416:	f200 8082 	bhi.w	800251e <HAL_GPIO_EXTI_IRQHandler+0x2fe>
 800241a:	6f73      	ldr	r3, [r6, #116]	; 0x74
 800241c:	079b      	lsls	r3, r3, #30
 800241e:	d5f6      	bpl.n	800240e <HAL_GPIO_EXTI_IRQHandler+0x1ee>
 8002420:	6823      	ldr	r3, [r4, #0]
 8002422:	e782      	b.n	800232a <HAL_GPIO_EXTI_IRQHandler+0x10a>
 8002424:	6852      	ldr	r2, [r2, #4]
 8002426:	0256      	lsls	r6, r2, #9
 8002428:	f53f af5b 	bmi.w	80022e2 <HAL_GPIO_EXTI_IRQHandler+0xc2>
 800242c:	f44f 5260 	mov.w	r2, #14336	; 0x3800
 8002430:	f2c4 0202 	movt	r2, #16386	; 0x4002
 8002434:	6812      	ldr	r2, [r2, #0]
 8002436:	0795      	lsls	r5, r2, #30
 8002438:	d552      	bpl.n	80024e0 <HAL_GPIO_EXTI_IRQHandler+0x2c0>
 800243a:	68e2      	ldr	r2, [r4, #12]
 800243c:	2a01      	cmp	r2, #1
 800243e:	d04f      	beq.n	80024e0 <HAL_GPIO_EXTI_IRQHandler+0x2c0>
 8002440:	2001      	movs	r0, #1
 8002442:	b002      	add	sp, #8
 8002444:	e8bd 81f0 	ldmia.w	sp!, {r4, r5, r6, r7, r8, pc}
 8002448:	f44f 6268 	mov.w	r2, #3712	; 0xe80
 800244c:	f2c4 2247 	movt	r2, #16967	; 0x4247
 8002450:	f44f 5660 	mov.w	r6, #14336	; 0x3800
 8002454:	6013      	str	r3, [r2, #0]
 8002456:	f7fe fe4b 	bl	80010f0 <HAL_GetTick>
 800245a:	f2c4 0602 	movt	r6, #16386	; 0x4002
 800245e:	4605      	mov	r5, r0
 8002460:	e004      	b.n	800246c <HAL_GPIO_EXTI_IRQHandler+0x24c>
 8002462:	f7fe fe45 	bl	80010f0 <HAL_GetTick>
 8002466:	1b40      	subs	r0, r0, r5
 8002468:	2802      	cmp	r0, #2
 800246a:	d858      	bhi.n	800251e <HAL_GPIO_EXTI_IRQHandler+0x2fe>
 800246c:	6f73      	ldr	r3, [r6, #116]	; 0x74
 800246e:	079f      	lsls	r7, r3, #30
 8002470:	d4f7      	bmi.n	8002462 <HAL_GPIO_EXTI_IRQHandler+0x242>
 8002472:	e7d5      	b.n	8002420 <HAL_GPIO_EXTI_IRQHandler+0x200>
 8002474:	9201      	str	r2, [sp, #4]
 8002476:	6c1a      	ldr	r2, [r3, #64]	; 0x40
 8002478:	f042 5280 	orr.w	r2, r2, #268435456	; 0x10000000
 800247c:	641a      	str	r2, [r3, #64]	; 0x40
 800247e:	6c1b      	ldr	r3, [r3, #64]	; 0x40
 8002480:	f003 5380 	and.w	r3, r3, #268435456	; 0x10000000
 8002484:	9301      	str	r3, [sp, #4]
 8002486:	9b01      	ldr	r3, [sp, #4]
 8002488:	2501      	movs	r5, #1
 800248a:	e75a      	b.n	8002342 <HAL_GPIO_EXTI_IRQHandler+0x122>
 800248c:	684a      	ldr	r2, [r1, #4]
 800248e:	0250      	lsls	r0, r2, #9
 8002490:	f57f aef0 	bpl.w	8002274 <HAL_GPIO_EXTI_IRQHandler+0x54>
 8002494:	f44f 5260 	mov.w	r2, #14336	; 0x3800
 8002498:	f2c4 0202 	movt	r2, #16386	; 0x4002
 800249c:	6812      	ldr	r2, [r2, #0]
 800249e:	0391      	lsls	r1, r2, #14
 80024a0:	f57f af0e 	bpl.w	80022c0 <HAL_GPIO_EXTI_IRQHandler+0xa0>
 80024a4:	6862      	ldr	r2, [r4, #4]
 80024a6:	2a00      	cmp	r2, #0
 80024a8:	f47f af0a 	bne.w	80022c0 <HAL_GPIO_EXTI_IRQHandler+0xa0>
 80024ac:	e7c8      	b.n	8002440 <HAL_GPIO_EXTI_IRQHandler+0x220>
 80024ae:	f44f 5360 	mov.w	r3, #14336	; 0x3800
 80024b2:	f2c4 0302 	movt	r3, #16386	; 0x4002
 80024b6:	681a      	ldr	r2, [r3, #0]
 80024b8:	f442 3280 	orr.w	r2, r2, #65536	; 0x10000
 80024bc:	601a      	str	r2, [r3, #0]
 80024be:	f7fe fe17 	bl	80010f0 <HAL_GetTick>
 80024c2:	f44f 5660 	mov.w	r6, #14336	; 0x3800
 80024c6:	4605      	mov	r5, r0
 80024c8:	f2c4 0602 	movt	r6, #16386	; 0x4002
 80024cc:	e004      	b.n	80024d8 <HAL_GPIO_EXTI_IRQHandler+0x2b8>
 80024ce:	f7fe fe0f 	bl	80010f0 <HAL_GetTick>
 80024d2:	1b40      	subs	r0, r0, r5
 80024d4:	2864      	cmp	r0, #100	; 0x64
 80024d6:	d822      	bhi.n	800251e <HAL_GPIO_EXTI_IRQHandler+0x2fe>
 80024d8:	6833      	ldr	r3, [r6, #0]
 80024da:	039a      	lsls	r2, r3, #14
 80024dc:	d5f7      	bpl.n	80024ce <HAL_GPIO_EXTI_IRQHandler+0x2ae>
 80024de:	e6ee      	b.n	80022be <HAL_GPIO_EXTI_IRQHandler+0x9e>
 80024e0:	f44f 5160 	mov.w	r1, #14336	; 0x3800
 80024e4:	f2c4 0102 	movt	r1, #16386	; 0x4002
 80024e8:	6920      	ldr	r0, [r4, #16]
 80024ea:	680a      	ldr	r2, [r1, #0]
 80024ec:	f022 02f8 	bic.w	r2, r2, #248	; 0xf8
 80024f0:	ea42 02c0 	orr.w	r2, r2, r0, lsl #3
 80024f4:	600a      	str	r2, [r1, #0]
 80024f6:	071a      	lsls	r2, r3, #28
 80024f8:	f57f af17 	bpl.w	800232a <HAL_GPIO_EXTI_IRQHandler+0x10a>
 80024fc:	e777      	b.n	80023ee <HAL_GPIO_EXTI_IRQHandler+0x1ce>
 80024fe:	6833      	ldr	r3, [r6, #0]
 8002500:	f443 7380 	orr.w	r3, r3, #256	; 0x100
 8002504:	6033      	str	r3, [r6, #0]
 8002506:	f7fe fdf3 	bl	80010f0 <HAL_GetTick>
 800250a:	4607      	mov	r7, r0
 800250c:	6833      	ldr	r3, [r6, #0]
 800250e:	05da      	lsls	r2, r3, #23
 8002510:	f53f af1f 	bmi.w	8002352 <HAL_GPIO_EXTI_IRQHandler+0x132>
 8002514:	f7fe fdec 	bl	80010f0 <HAL_GetTick>
 8002518:	1bc0      	subs	r0, r0, r7
 800251a:	2802      	cmp	r0, #2
 800251c:	d9f6      	bls.n	800250c <HAL_GPIO_EXTI_IRQHandler+0x2ec>
 800251e:	2003      	movs	r0, #3
 8002520:	b002      	add	sp, #8
 8002522:	e8bd 81f0 	ldmia.w	sp!, {r4, r5, r6, r7, r8, pc}
 8002526:	f44f 5360 	mov.w	r3, #14336	; 0x3800
 800252a:	f2c4 0302 	movt	r3, #16386	; 0x4002
 800252e:	6f1a      	ldr	r2, [r3, #112]	; 0x70
 8002530:	f042 0201 	orr.w	r2, r2, #1
 8002534:	671a      	str	r2, [r3, #112]	; 0x70
 8002536:	f7fe fddb 	bl	80010f0 <HAL_GetTick>
 800253a:	f44f 5760 	mov.w	r7, #14336	; 0x3800
 800253e:	4606      	mov	r6, r0
 8002540:	f2c4 0702 	movt	r7, #16386	; 0x4002
 8002544:	f241 3888 	movw	r8, #5000	; 0x1388
 8002548:	e004      	b.n	8002554 <HAL_GPIO_EXTI_IRQHandler+0x334>
 800254a:	f7fe fdd1 	bl	80010f0 <HAL_GetTick>
 800254e:	1b80      	subs	r0, r0, r6
 8002550:	4540      	cmp	r0, r8
 8002552:	d8e4      	bhi.n	800251e <HAL_GPIO_EXTI_IRQHandler+0x2fe>
 8002554:	6f3b      	ldr	r3, [r7, #112]	; 0x70
 8002556:	079b      	lsls	r3, r3, #30
 8002558:	d5f7      	bpl.n	800254a <HAL_GPIO_EXTI_IRQHandler+0x32a>
 800255a:	2d00      	cmp	r5, #0
 800255c:	f43f af21 	beq.w	80023a2 <HAL_GPIO_EXTI_IRQHandler+0x182>
 8002560:	e053      	b.n	800260a <HAL_GPIO_EXTI_IRQHandler+0x3ea>
 8002562:	2200      	movs	r2, #0
 8002564:	f2c4 2247 	movt	r2, #16967	; 0x4247
 8002568:	f44f 5660 	mov.w	r6, #14336	; 0x3800
 800256c:	6013      	str	r3, [r2, #0]
 800256e:	f7fe fdbf 	bl	80010f0 <HAL_GetTick>
 8002572:	f2c4 0602 	movt	r6, #16386	; 0x4002
 8002576:	4605      	mov	r5, r0
 8002578:	e004      	b.n	8002584 <HAL_GPIO_EXTI_IRQHandler+0x364>
 800257a:	f7fe fdb9 	bl	80010f0 <HAL_GetTick>
 800257e:	1b40      	subs	r0, r0, r5
 8002580:	2802      	cmp	r0, #2
 8002582:	d8cc      	bhi.n	800251e <HAL_GPIO_EXTI_IRQHandler+0x2fe>
 8002584:	6833      	ldr	r3, [r6, #0]
 8002586:	0799      	lsls	r1, r3, #30
 8002588:	d4f7      	bmi.n	800257a <HAL_GPIO_EXTI_IRQHandler+0x35a>
 800258a:	6823      	ldr	r3, [r4, #0]
 800258c:	e6cb      	b.n	8002326 <HAL_GPIO_EXTI_IRQHandler+0x106>
 800258e:	2801      	cmp	r0, #1
 8002590:	f43f af2a 	beq.w	80023e8 <HAL_GPIO_EXTI_IRQHandler+0x1c8>
 8002594:	686b      	ldr	r3, [r5, #4]
 8002596:	69e2      	ldr	r2, [r4, #28]
 8002598:	f403 0180 	and.w	r1, r3, #4194304	; 0x400000
 800259c:	4291      	cmp	r1, r2
 800259e:	f47f af4f 	bne.w	8002440 <HAL_GPIO_EXTI_IRQHandler+0x220>
 80025a2:	6a22      	ldr	r2, [r4, #32]
 80025a4:	f003 013f 	and.w	r1, r3, #63	; 0x3f
 80025a8:	4291      	cmp	r1, r2
 80025aa:	f47f af49 	bne.w	8002440 <HAL_GPIO_EXTI_IRQHandler+0x220>
 80025ae:	6a61      	ldr	r1, [r4, #36]	; 0x24
 80025b0:	f647 72c0 	movw	r2, #32704	; 0x7fc0
 80025b4:	401a      	ands	r2, r3
 80025b6:	ebb2 1f81 	cmp.w	r2, r1, lsl #6
 80025ba:	f47f af41 	bne.w	8002440 <HAL_GPIO_EXTI_IRQHandler+0x220>
 80025be:	6aa2      	ldr	r2, [r4, #40]	; 0x28
 80025c0:	0852      	lsrs	r2, r2, #1
 80025c2:	3a01      	subs	r2, #1
 80025c4:	f403 3140 	and.w	r1, r3, #196608	; 0x30000
 80025c8:	ebb1 4f02 	cmp.w	r1, r2, lsl #16
 80025cc:	f47f af38 	bne.w	8002440 <HAL_GPIO_EXTI_IRQHandler+0x220>
 80025d0:	6ae1      	ldr	r1, [r4, #44]	; 0x2c
 80025d2:	f003 6270 	and.w	r2, r3, #251658240	; 0xf000000
 80025d6:	ebb2 6f01 	cmp.w	r2, r1, lsl #24
 80025da:	f47f af31 	bne.w	8002440 <HAL_GPIO_EXTI_IRQHandler+0x220>
 80025de:	6b22      	ldr	r2, [r4, #48]	; 0x30
 80025e0:	f003 43e0 	and.w	r3, r3, #1879048192	; 0x70000000
 80025e4:	ebb3 7f02 	cmp.w	r3, r2, lsl #28
 80025e8:	bf14      	ite	ne
 80025ea:	2001      	movne	r0, #1
 80025ec:	2000      	moveq	r0, #0
 80025ee:	e6fb      	b.n	80023e8 <HAL_GPIO_EXTI_IRQHandler+0x1c8>
 80025f0:	f44f 5360 	mov.w	r3, #14336	; 0x3800
 80025f4:	f2c4 0302 	movt	r3, #16386	; 0x4002
 80025f8:	681a      	ldr	r2, [r3, #0]
 80025fa:	f442 2280 	orr.w	r2, r2, #262144	; 0x40000
 80025fe:	601a      	str	r2, [r3, #0]
 8002600:	681a      	ldr	r2, [r3, #0]
 8002602:	f442 3280 	orr.w	r2, r2, #65536	; 0x10000
 8002606:	601a      	str	r2, [r3, #0]
 8002608:	e759      	b.n	80024be <HAL_GPIO_EXTI_IRQHandler+0x29e>
 800260a:	f44f 5360 	mov.w	r3, #14336	; 0x3800
 800260e:	f2c4 0302 	movt	r3, #16386	; 0x4002
 8002612:	6c1a      	ldr	r2, [r3, #64]	; 0x40
 8002614:	f022 5280 	bic.w	r2, r2, #268435456	; 0x10000000
 8002618:	641a      	str	r2, [r3, #64]	; 0x40
 800261a:	e6c2      	b.n	80023a2 <HAL_GPIO_EXTI_IRQHandler+0x182>
 800261c:	2001      	movs	r0, #1
 800261e:	4770      	bx	lr
 8002620:	f44f 5360 	mov.w	r3, #14336	; 0x3800
 8002624:	f2c4 0302 	movt	r3, #16386	; 0x4002
 8002628:	6f1a      	ldr	r2, [r3, #112]	; 0x70
 800262a:	f042 0204 	orr.w	r2, r2, #4
 800262e:	671a      	str	r2, [r3, #112]	; 0x70
 8002630:	6f1a      	ldr	r2, [r3, #112]	; 0x70
 8002632:	f042 0201 	orr.w	r2, r2, #1
 8002636:	671a      	str	r2, [r3, #112]	; 0x70
 8002638:	e77d      	b.n	8002536 <HAL_GPIO_EXTI_IRQHandler+0x316>
 800263a:	f7fe fd59 	bl	80010f0 <HAL_GetTick>
 800263e:	4606      	mov	r6, r0
 8002640:	e005      	b.n	800264e <HAL_GPIO_EXTI_IRQHandler+0x42e>
 8002642:	f7fe fd55 	bl	80010f0 <HAL_GetTick>
 8002646:	1b80      	subs	r0, r0, r6
 8002648:	2802      	cmp	r0, #2
 800264a:	f63f af68 	bhi.w	800251e <HAL_GPIO_EXTI_IRQHandler+0x2fe>
 800264e:	682b      	ldr	r3, [r5, #0]
 8002650:	0199      	lsls	r1, r3, #6
 8002652:	d4f6      	bmi.n	8002642 <HAL_GPIO_EXTI_IRQHandler+0x422>
 8002654:	e9d4 3607 	ldrd	r3, r6, [r4, #28]
 8002658:	e9d4 1209 	ldrd	r1, r2, [r4, #36]	; 0x24
 800265c:	6ae0      	ldr	r0, [r4, #44]	; 0x2c
 800265e:	4333      	orrs	r3, r6
 8002660:	ea43 1381 	orr.w	r3, r3, r1, lsl #6
 8002664:	0852      	lsrs	r2, r2, #1
 8002666:	2160      	movs	r1, #96	; 0x60
 8002668:	ea43 6300 	orr.w	r3, r3, r0, lsl #24
 800266c:	3a01      	subs	r2, #1
 800266e:	f2c4 2147 	movt	r1, #16967	; 0x4247
 8002672:	ea43 4302 	orr.w	r3, r3, r2, lsl #16
 8002676:	2201      	movs	r2, #1
 8002678:	606b      	str	r3, [r5, #4]
 800267a:	600a      	str	r2, [r1, #0]
 800267c:	f7fe fd38 	bl	80010f0 <HAL_GetTick>
 8002680:	f44f 5560 	mov.w	r5, #14336	; 0x3800
 8002684:	4604      	mov	r4, r0
 8002686:	f2c4 0502 	movt	r5, #16386	; 0x4002
 800268a:	e005      	b.n	8002698 <HAL_GPIO_EXTI_IRQHandler+0x478>
 800268c:	f7fe fd30 	bl	80010f0 <HAL_GetTick>
 8002690:	1b00      	subs	r0, r0, r4
 8002692:	2802      	cmp	r0, #2
 8002694:	f63f af43 	bhi.w	800251e <HAL_GPIO_EXTI_IRQHandler+0x2fe>
 8002698:	682b      	ldr	r3, [r5, #0]
 800269a:	019a      	lsls	r2, r3, #6
 800269c:	d5f6      	bpl.n	800268c <HAL_GPIO_EXTI_IRQHandler+0x46c>
 800269e:	e6a2      	b.n	80023e6 <HAL_GPIO_EXTI_IRQHandler+0x1c6>

080026a0 <HAL_RCC_MCOConfig>:
 80026a0:	b5f0      	push	{r4, r5, r6, r7, lr}
 80026a2:	f44f 5660 	mov.w	r6, #14336	; 0x3800
 80026a6:	b089      	sub	sp, #36	; 0x24
 80026a8:	460d      	mov	r5, r1
 80026aa:	4614      	mov	r4, r2
 80026ac:	f2c4 0602 	movt	r6, #16386	; 0x4002
 80026b0:	bb00      	cbnz	r0, 80026f4 <HAL_RCC_MCOConfig+0x54>
 80026b2:	9000      	str	r0, [sp, #0]
 80026b4:	6b33      	ldr	r3, [r6, #48]	; 0x30
 80026b6:	f043 0301 	orr.w	r3, r3, #1
 80026ba:	6333      	str	r3, [r6, #48]	; 0x30
 80026bc:	6b33      	ldr	r3, [r6, #48]	; 0x30
 80026be:	9006      	str	r0, [sp, #24]
 80026c0:	f003 0301 	and.w	r3, r3, #1
 80026c4:	9300      	str	r3, [sp, #0]
 80026c6:	f44f 7280 	mov.w	r2, #256	; 0x100
 80026ca:	2302      	movs	r3, #2
 80026cc:	e9cd 2302 	strd	r2, r3, [sp, #8]
 80026d0:	f2c4 0002 	movt	r0, #16386	; 0x4002
 80026d4:	2200      	movs	r2, #0
 80026d6:	2303      	movs	r3, #3
 80026d8:	a902      	add	r1, sp, #8
 80026da:	e9cd 2304 	strd	r2, r3, [sp, #16]
 80026de:	9f00      	ldr	r7, [sp, #0]
 80026e0:	f7ff fb8a 	bl	8001df8 <HAL_GPIO_Init>
 80026e4:	68b2      	ldr	r2, [r6, #8]
 80026e6:	f022 62ec 	bic.w	r2, r2, #123731968	; 0x7600000
 80026ea:	432a      	orrs	r2, r5
 80026ec:	4322      	orrs	r2, r4
 80026ee:	60b2      	str	r2, [r6, #8]
 80026f0:	b009      	add	sp, #36	; 0x24
 80026f2:	bdf0      	pop	{r4, r5, r6, r7, pc}
 80026f4:	2200      	movs	r2, #0
 80026f6:	9201      	str	r2, [sp, #4]
 80026f8:	6b33      	ldr	r3, [r6, #48]	; 0x30
 80026fa:	f043 0304 	orr.w	r3, r3, #4
 80026fe:	6333      	str	r3, [r6, #48]	; 0x30
 8002700:	6b33      	ldr	r3, [r6, #48]	; 0x30
 8002702:	9206      	str	r2, [sp, #24]
 8002704:	f003 0304 	and.w	r3, r3, #4
 8002708:	9301      	str	r3, [sp, #4]
 800270a:	f44f 7200 	mov.w	r2, #512	; 0x200
 800270e:	2302      	movs	r3, #2
 8002710:	f44f 6000 	mov.w	r0, #2048	; 0x800
 8002714:	e9cd 2302 	strd	r2, r3, [sp, #8]
 8002718:	a902      	add	r1, sp, #8
 800271a:	2200      	movs	r2, #0
 800271c:	2303      	movs	r3, #3
 800271e:	f2c4 0002 	movt	r0, #16386	; 0x4002
 8002722:	e9cd 2304 	strd	r2, r3, [sp, #16]
 8002726:	9f01      	ldr	r7, [sp, #4]
 8002728:	f7ff fb66 	bl	8001df8 <HAL_GPIO_Init>
 800272c:	68b3      	ldr	r3, [r6, #8]
 800272e:	f023 4378 	bic.w	r3, r3, #4160749568	; 0xf8000000
 8002732:	ea43 0105 	orr.w	r1, r3, r5
 8002736:	ea41 01c4 	orr.w	r1, r1, r4, lsl #3
 800273a:	60b1      	str	r1, [r6, #8]
 800273c:	b009      	add	sp, #36	; 0x24
 800273e:	bdf0      	pop	{r4, r5, r6, r7, pc}

08002740 <HAL_RCC_EnableCSS>:
 8002740:	234c      	movs	r3, #76	; 0x4c
 8002742:	f2c4 2347 	movt	r3, #16967	; 0x4247
 8002746:	2201      	movs	r2, #1
 8002748:	601a      	str	r2, [r3, #0]
 800274a:	4770      	bx	lr

0800274c <HAL_RCC_DisableCSS>:
 800274c:	234c      	movs	r3, #76	; 0x4c
 800274e:	f2c4 2347 	movt	r3, #16967	; 0x4247
 8002752:	2200      	movs	r2, #0
 8002754:	601a      	str	r2, [r3, #0]
 8002756:	4770      	bx	lr
 8002758:	f44f 5160 	mov.w	r1, #14336	; 0x3800
 800275c:	f2c4 0102 	movt	r1, #16386	; 0x4002
 8002760:	b508      	push	{r3, lr}
 8002762:	688b      	ldr	r3, [r1, #8]
 8002764:	f003 030c 	and.w	r3, r3, #12
 8002768:	2b04      	cmp	r3, #4
 800276a:	d024      	beq.n	80027b6 <HAL_RCC_DisableCSS+0x6a>
 800276c:	2b08      	cmp	r3, #8
 800276e:	d11d      	bne.n	80027ac <HAL_RCC_DisableCSS+0x60>
 8002770:	684a      	ldr	r2, [r1, #4]
 8002772:	684b      	ldr	r3, [r1, #4]
 8002774:	f413 0380 	ands.w	r3, r3, #4194304	; 0x400000
 8002778:	f002 023f 	and.w	r2, r2, #63	; 0x3f
 800277c:	d120      	bne.n	80027c0 <HAL_RCC_DisableCSS+0x74>
 800277e:	6849      	ldr	r1, [r1, #4]
 8002780:	f44f 5010 	mov.w	r0, #9216	; 0x2400
 8002784:	f3c1 1188 	ubfx	r1, r1, #6, #9
 8002788:	f2c0 00f4 	movt	r0, #244	; 0xf4
 800278c:	fba1 0100 	umull	r0, r1, r1, r0
 8002790:	f008 fd9e 	bl	800b2d0 <__aeabi_uldivmod>
 8002794:	f44f 5360 	mov.w	r3, #14336	; 0x3800
 8002798:	f2c4 0302 	movt	r3, #16386	; 0x4002
 800279c:	685b      	ldr	r3, [r3, #4]
 800279e:	f3c3 4301 	ubfx	r3, r3, #16, #2
 80027a2:	3301      	adds	r3, #1
 80027a4:	005b      	lsls	r3, r3, #1
 80027a6:	fbb0 f0f3 	udiv	r0, r0, r3
 80027aa:	bd08      	pop	{r3, pc}
 80027ac:	f44f 5010 	mov.w	r0, #9216	; 0x2400
 80027b0:	f2c0 00f4 	movt	r0, #244	; 0xf4
 80027b4:	bd08      	pop	{r3, pc}
 80027b6:	f44f 5090 	mov.w	r0, #4608	; 0x1200
 80027ba:	f2c0 007a 	movt	r0, #122	; 0x7a
 80027be:	bd08      	pop	{r3, pc}
 80027c0:	684b      	ldr	r3, [r1, #4]
 80027c2:	f44f 5090 	mov.w	r0, #4608	; 0x1200
 80027c6:	f3c3 1388 	ubfx	r3, r3, #6, #9
 80027ca:	f2c0 007a 	movt	r0, #122	; 0x7a
 80027ce:	fba3 0100 	umull	r0, r1, r3, r0
 80027d2:	2300      	movs	r3, #0
 80027d4:	f008 fd7c 	bl	800b2d0 <__aeabi_uldivmod>
 80027d8:	e7dc      	b.n	8002794 <HAL_RCC_DisableCSS+0x48>
 80027da:	bf00      	nop

080027dc <HAL_RCC_ClockConfig>:
 80027dc:	2800      	cmp	r0, #0
 80027de:	f000 80af 	beq.w	8002940 <HAL_RCC_ClockConfig+0x164>
 80027e2:	f44f 5370 	mov.w	r3, #15360	; 0x3c00
 80027e6:	f2c4 0302 	movt	r3, #16386	; 0x4002
 80027ea:	e92d 41f0 	stmdb	sp!, {r4, r5, r6, r7, r8, lr}
 80027ee:	681a      	ldr	r2, [r3, #0]
 80027f0:	f002 020f 	and.w	r2, r2, #15
 80027f4:	428a      	cmp	r2, r1
 80027f6:	460d      	mov	r5, r1
 80027f8:	4604      	mov	r4, r0
 80027fa:	d209      	bcs.n	8002810 <HAL_RCC_ClockConfig+0x34>
 80027fc:	b2ca      	uxtb	r2, r1
 80027fe:	701a      	strb	r2, [r3, #0]
 8002800:	681b      	ldr	r3, [r3, #0]
 8002802:	f003 030f 	and.w	r3, r3, #15
 8002806:	428b      	cmp	r3, r1
 8002808:	d002      	beq.n	8002810 <HAL_RCC_ClockConfig+0x34>
 800280a:	2001      	movs	r0, #1
 800280c:	e8bd 81f0 	ldmia.w	sp!, {r4, r5, r6, r7, r8, pc}
 8002810:	6823      	ldr	r3, [r4, #0]
 8002812:	0798      	lsls	r0, r3, #30
 8002814:	d51d      	bpl.n	8002852 <HAL_RCC_ClockConfig+0x76>
 8002816:	0759      	lsls	r1, r3, #29
 8002818:	d507      	bpl.n	800282a <HAL_RCC_ClockConfig+0x4e>
 800281a:	f44f 5260 	mov.w	r2, #14336	; 0x3800
 800281e:	f2c4 0202 	movt	r2, #16386	; 0x4002
 8002822:	6891      	ldr	r1, [r2, #8]
 8002824:	f441 51e0 	orr.w	r1, r1, #7168	; 0x1c00
 8002828:	6091      	str	r1, [r2, #8]
 800282a:	071a      	lsls	r2, r3, #28
 800282c:	d507      	bpl.n	800283e <HAL_RCC_ClockConfig+0x62>
 800282e:	f44f 5260 	mov.w	r2, #14336	; 0x3800
 8002832:	f2c4 0202 	movt	r2, #16386	; 0x4002
 8002836:	6891      	ldr	r1, [r2, #8]
 8002838:	f441 4160 	orr.w	r1, r1, #57344	; 0xe000
 800283c:	6091      	str	r1, [r2, #8]
 800283e:	f44f 5160 	mov.w	r1, #14336	; 0x3800
 8002842:	f2c4 0102 	movt	r1, #16386	; 0x4002
 8002846:	68a0      	ldr	r0, [r4, #8]
 8002848:	688a      	ldr	r2, [r1, #8]
 800284a:	f022 02f0 	bic.w	r2, r2, #240	; 0xf0
 800284e:	4302      	orrs	r2, r0
 8002850:	608a      	str	r2, [r1, #8]
 8002852:	07df      	lsls	r7, r3, #31
 8002854:	d528      	bpl.n	80028a8 <HAL_RCC_ClockConfig+0xcc>
 8002856:	6862      	ldr	r2, [r4, #4]
 8002858:	2a01      	cmp	r2, #1
 800285a:	d073      	beq.n	8002944 <HAL_RCC_ClockConfig+0x168>
 800285c:	1e93      	subs	r3, r2, #2
 800285e:	2b01      	cmp	r3, #1
 8002860:	f44f 5360 	mov.w	r3, #14336	; 0x3800
 8002864:	f2c4 0302 	movt	r3, #16386	; 0x4002
 8002868:	681b      	ldr	r3, [r3, #0]
 800286a:	d966      	bls.n	800293a <HAL_RCC_ClockConfig+0x15e>
 800286c:	0799      	lsls	r1, r3, #30
 800286e:	d5cc      	bpl.n	800280a <HAL_RCC_ClockConfig+0x2e>
 8002870:	f44f 5160 	mov.w	r1, #14336	; 0x3800
 8002874:	f2c4 0102 	movt	r1, #16386	; 0x4002
 8002878:	460f      	mov	r7, r1
 800287a:	688b      	ldr	r3, [r1, #8]
 800287c:	f023 0303 	bic.w	r3, r3, #3
 8002880:	4313      	orrs	r3, r2
 8002882:	608b      	str	r3, [r1, #8]
 8002884:	f7fe fc34 	bl	80010f0 <HAL_GetTick>
 8002888:	f241 3888 	movw	r8, #5000	; 0x1388
 800288c:	4606      	mov	r6, r0
 800288e:	e004      	b.n	800289a <HAL_RCC_ClockConfig+0xbe>
 8002890:	f7fe fc2e 	bl	80010f0 <HAL_GetTick>
 8002894:	1b80      	subs	r0, r0, r6
 8002896:	4540      	cmp	r0, r8
 8002898:	d85c      	bhi.n	8002954 <HAL_RCC_ClockConfig+0x178>
 800289a:	68bb      	ldr	r3, [r7, #8]
 800289c:	6862      	ldr	r2, [r4, #4]
 800289e:	f003 030c 	and.w	r3, r3, #12
 80028a2:	ebb3 0f82 	cmp.w	r3, r2, lsl #2
 80028a6:	d1f3      	bne.n	8002890 <HAL_RCC_ClockConfig+0xb4>
 80028a8:	f44f 5270 	mov.w	r2, #15360	; 0x3c00
 80028ac:	f2c4 0202 	movt	r2, #16386	; 0x4002
 80028b0:	6813      	ldr	r3, [r2, #0]
 80028b2:	f003 030f 	and.w	r3, r3, #15
 80028b6:	42ab      	cmp	r3, r5
 80028b8:	d906      	bls.n	80028c8 <HAL_RCC_ClockConfig+0xec>
 80028ba:	b2eb      	uxtb	r3, r5
 80028bc:	7013      	strb	r3, [r2, #0]
 80028be:	6813      	ldr	r3, [r2, #0]
 80028c0:	f003 030f 	and.w	r3, r3, #15
 80028c4:	42ab      	cmp	r3, r5
 80028c6:	d1a0      	bne.n	800280a <HAL_RCC_ClockConfig+0x2e>
 80028c8:	6823      	ldr	r3, [r4, #0]
 80028ca:	075a      	lsls	r2, r3, #29
 80028cc:	d509      	bpl.n	80028e2 <HAL_RCC_ClockConfig+0x106>
 80028ce:	f44f 5160 	mov.w	r1, #14336	; 0x3800
 80028d2:	f2c4 0102 	movt	r1, #16386	; 0x4002
 80028d6:	68e0      	ldr	r0, [r4, #12]
 80028d8:	688a      	ldr	r2, [r1, #8]
 80028da:	f422 52e0 	bic.w	r2, r2, #7168	; 0x1c00
 80028de:	4302      	orrs	r2, r0
 80028e0:	608a      	str	r2, [r1, #8]
 80028e2:	071b      	lsls	r3, r3, #28
 80028e4:	d50a      	bpl.n	80028fc <HAL_RCC_ClockConfig+0x120>
 80028e6:	f44f 5260 	mov.w	r2, #14336	; 0x3800
 80028ea:	f2c4 0202 	movt	r2, #16386	; 0x4002
 80028ee:	6921      	ldr	r1, [r4, #16]
 80028f0:	6893      	ldr	r3, [r2, #8]
 80028f2:	f423 4360 	bic.w	r3, r3, #57344	; 0xe000
 80028f6:	ea43 03c1 	orr.w	r3, r3, r1, lsl #3
 80028fa:	6093      	str	r3, [r2, #8]
 80028fc:	f000 fddc 	bl	80034b8 <HAL_RCC_GetSysClockFreq>
 8002900:	f44f 5360 	mov.w	r3, #14336	; 0x3800
 8002904:	f2c4 0302 	movt	r3, #16386	; 0x4002
 8002908:	f24c 72f4 	movw	r2, #51188	; 0xc7f4
 800290c:	689b      	ldr	r3, [r3, #8]
 800290e:	f6c0 0200 	movt	r2, #2048	; 0x800
 8002912:	f3c3 1303 	ubfx	r3, r3, #4, #4
 8002916:	f240 0108 	movw	r1, #8
 800291a:	5cd2      	ldrb	r2, [r2, r3]
 800291c:	f2c2 0100 	movt	r1, #8192	; 0x2000
 8002920:	f240 0300 	movw	r3, #0
 8002924:	f2c2 0300 	movt	r3, #8192	; 0x2000
 8002928:	fa20 f202 	lsr.w	r2, r0, r2
 800292c:	6808      	ldr	r0, [r1, #0]
 800292e:	601a      	str	r2, [r3, #0]
 8002930:	f7fe fb90 	bl	8001054 <HAL_InitTick>
 8002934:	2000      	movs	r0, #0
 8002936:	e8bd 81f0 	ldmia.w	sp!, {r4, r5, r6, r7, r8, pc}
 800293a:	0198      	lsls	r0, r3, #6
 800293c:	d498      	bmi.n	8002870 <HAL_RCC_ClockConfig+0x94>
 800293e:	e764      	b.n	800280a <HAL_RCC_ClockConfig+0x2e>
 8002940:	2001      	movs	r0, #1
 8002942:	4770      	bx	lr
 8002944:	f44f 5360 	mov.w	r3, #14336	; 0x3800
 8002948:	f2c4 0302 	movt	r3, #16386	; 0x4002
 800294c:	681b      	ldr	r3, [r3, #0]
 800294e:	039e      	lsls	r6, r3, #14
 8002950:	d48e      	bmi.n	8002870 <HAL_RCC_ClockConfig+0x94>
 8002952:	e75a      	b.n	800280a <HAL_RCC_ClockConfig+0x2e>
 8002954:	2003      	movs	r0, #3
 8002956:	e759      	b.n	800280c <HAL_RCC_ClockConfig+0x30>

08002958 <HAL_RCC_GetHCLKFreq>:
 8002958:	f240 0300 	movw	r3, #0
 800295c:	f2c2 0300 	movt	r3, #8192	; 0x2000
 8002960:	6818      	ldr	r0, [r3, #0]
 8002962:	4770      	bx	lr

08002964 <HAL_RCC_GetPCLK1Freq>:
 8002964:	f44f 5360 	mov.w	r3, #14336	; 0x3800
 8002968:	f2c4 0302 	movt	r3, #16386	; 0x4002
 800296c:	f64c 0104 	movw	r1, #51204	; 0xc804
 8002970:	689a      	ldr	r2, [r3, #8]
 8002972:	f240 0300 	movw	r3, #0
 8002976:	f6c0 0100 	movt	r1, #2048	; 0x800
 800297a:	f2c2 0300 	movt	r3, #8192	; 0x2000
 800297e:	f3c2 2282 	ubfx	r2, r2, #10, #3
 8002982:	6818      	ldr	r0, [r3, #0]
 8002984:	5c8a      	ldrb	r2, [r1, r2]
 8002986:	40d0      	lsrs	r0, r2
 8002988:	4770      	bx	lr
 800298a:	bf00      	nop

0800298c <HAL_RCC_GetPCLK2Freq>:
 800298c:	f44f 5360 	mov.w	r3, #14336	; 0x3800
 8002990:	f2c4 0302 	movt	r3, #16386	; 0x4002
 8002994:	f64c 0104 	movw	r1, #51204	; 0xc804
 8002998:	689a      	ldr	r2, [r3, #8]
 800299a:	f240 0300 	movw	r3, #0
 800299e:	f6c0 0100 	movt	r1, #2048	; 0x800
 80029a2:	f2c2 0300 	movt	r3, #8192	; 0x2000
 80029a6:	f3c2 3242 	ubfx	r2, r2, #13, #3
 80029aa:	6818      	ldr	r0, [r3, #0]
 80029ac:	5c8a      	ldrb	r2, [r1, r2]
 80029ae:	40d0      	lsrs	r0, r2
 80029b0:	4770      	bx	lr
 80029b2:	bf00      	nop
 80029b4:	f44f 5360 	mov.w	r3, #14336	; 0x3800
 80029b8:	220f      	movs	r2, #15
 80029ba:	f2c4 0302 	movt	r3, #16386	; 0x4002
 80029be:	6002      	str	r2, [r0, #0]
 80029c0:	681a      	ldr	r2, [r3, #0]
 80029c2:	0351      	lsls	r1, r2, #13
 80029c4:	d53a      	bpl.n	8002a3c <HAL_RCC_GetPCLK2Freq+0xb0>
 80029c6:	f44f 23a0 	mov.w	r3, #327680	; 0x50000
 80029ca:	6043      	str	r3, [r0, #4]
 80029cc:	f44f 5360 	mov.w	r3, #14336	; 0x3800
 80029d0:	f2c4 0302 	movt	r3, #16386	; 0x4002
 80029d4:	681a      	ldr	r2, [r3, #0]
 80029d6:	f002 0201 	and.w	r2, r2, #1
 80029da:	60c2      	str	r2, [r0, #12]
 80029dc:	681a      	ldr	r2, [r3, #0]
 80029de:	f3c2 02c4 	ubfx	r2, r2, #3, #5
 80029e2:	6102      	str	r2, [r0, #16]
 80029e4:	6f1a      	ldr	r2, [r3, #112]	; 0x70
 80029e6:	0752      	lsls	r2, r2, #29
 80029e8:	d530      	bpl.n	8002a4c <HAL_RCC_GetPCLK2Freq+0xc0>
 80029ea:	2305      	movs	r3, #5
 80029ec:	6083      	str	r3, [r0, #8]
 80029ee:	f44f 5360 	mov.w	r3, #14336	; 0x3800
 80029f2:	f2c4 0302 	movt	r3, #16386	; 0x4002
 80029f6:	6f5a      	ldr	r2, [r3, #116]	; 0x74
 80029f8:	f002 0201 	and.w	r2, r2, #1
 80029fc:	6142      	str	r2, [r0, #20]
 80029fe:	681a      	ldr	r2, [r3, #0]
 8002a00:	f012 7f80 	tst.w	r2, #16777216	; 0x1000000
 8002a04:	bf14      	ite	ne
 8002a06:	2202      	movne	r2, #2
 8002a08:	2201      	moveq	r2, #1
 8002a0a:	6182      	str	r2, [r0, #24]
 8002a0c:	685a      	ldr	r2, [r3, #4]
 8002a0e:	f402 0280 	and.w	r2, r2, #4194304	; 0x400000
 8002a12:	61c2      	str	r2, [r0, #28]
 8002a14:	685a      	ldr	r2, [r3, #4]
 8002a16:	f002 023f 	and.w	r2, r2, #63	; 0x3f
 8002a1a:	6202      	str	r2, [r0, #32]
 8002a1c:	685a      	ldr	r2, [r3, #4]
 8002a1e:	f3c2 1288 	ubfx	r2, r2, #6, #9
 8002a22:	6242      	str	r2, [r0, #36]	; 0x24
 8002a24:	685a      	ldr	r2, [r3, #4]
 8002a26:	f402 3240 	and.w	r2, r2, #196608	; 0x30000
 8002a2a:	f502 3280 	add.w	r2, r2, #65536	; 0x10000
 8002a2e:	0bd2      	lsrs	r2, r2, #15
 8002a30:	6282      	str	r2, [r0, #40]	; 0x28
 8002a32:	685b      	ldr	r3, [r3, #4]
 8002a34:	f3c3 6303 	ubfx	r3, r3, #24, #4
 8002a38:	62c3      	str	r3, [r0, #44]	; 0x2c
 8002a3a:	4770      	bx	lr
 8002a3c:	681b      	ldr	r3, [r3, #0]
 8002a3e:	f413 3380 	ands.w	r3, r3, #65536	; 0x10000
 8002a42:	bf18      	it	ne
 8002a44:	f44f 3380 	movne.w	r3, #65536	; 0x10000
 8002a48:	6043      	str	r3, [r0, #4]
 8002a4a:	e7bf      	b.n	80029cc <HAL_RCC_GetPCLK2Freq+0x40>
 8002a4c:	6f1b      	ldr	r3, [r3, #112]	; 0x70
 8002a4e:	f013 0301 	ands.w	r3, r3, #1
 8002a52:	bf18      	it	ne
 8002a54:	2301      	movne	r3, #1
 8002a56:	6083      	str	r3, [r0, #8]
 8002a58:	e7c9      	b.n	80029ee <HAL_RCC_GetPCLK2Freq+0x62>
 8002a5a:	bf00      	nop

08002a5c <HAL_RCC_GetClockConfig>:
 8002a5c:	f44f 5360 	mov.w	r3, #14336	; 0x3800
 8002a60:	f2c4 0302 	movt	r3, #16386	; 0x4002
 8002a64:	220f      	movs	r2, #15
 8002a66:	6002      	str	r2, [r0, #0]
 8002a68:	689a      	ldr	r2, [r3, #8]
 8002a6a:	f002 0203 	and.w	r2, r2, #3
 8002a6e:	6042      	str	r2, [r0, #4]
 8002a70:	689a      	ldr	r2, [r3, #8]
 8002a72:	f002 02f0 	and.w	r2, r2, #240	; 0xf0
 8002a76:	6082      	str	r2, [r0, #8]
 8002a78:	689a      	ldr	r2, [r3, #8]
 8002a7a:	f402 52e0 	and.w	r2, r2, #7168	; 0x1c00
 8002a7e:	60c2      	str	r2, [r0, #12]
 8002a80:	689b      	ldr	r3, [r3, #8]
 8002a82:	f44f 5270 	mov.w	r2, #15360	; 0x3c00
 8002a86:	08db      	lsrs	r3, r3, #3
 8002a88:	f403 53e0 	and.w	r3, r3, #7168	; 0x1c00
 8002a8c:	f2c4 0202 	movt	r2, #16386	; 0x4002
 8002a90:	6103      	str	r3, [r0, #16]
 8002a92:	6813      	ldr	r3, [r2, #0]
 8002a94:	f003 030f 	and.w	r3, r3, #15
 8002a98:	600b      	str	r3, [r1, #0]
 8002a9a:	4770      	bx	lr

08002a9c <HAL_RCC_CSSCallback>:
 8002a9c:	4770      	bx	lr
 8002a9e:	bf00      	nop

08002aa0 <HAL_RCC_NMI_IRQHandler>:
 8002aa0:	b508      	push	{r3, lr}
 8002aa2:	f44f 5360 	mov.w	r3, #14336	; 0x3800
 8002aa6:	f2c4 0302 	movt	r3, #16386	; 0x4002
 8002aaa:	68db      	ldr	r3, [r3, #12]
 8002aac:	061b      	lsls	r3, r3, #24
 8002aae:	d400      	bmi.n	8002ab2 <HAL_RCC_NMI_IRQHandler+0x12>
 8002ab0:	bd08      	pop	{r3, pc}
 8002ab2:	f7ff fff3 	bl	8002a9c <HAL_RCC_CSSCallback>
 8002ab6:	f643 030e 	movw	r3, #14350	; 0x380e
 8002aba:	f2c4 0302 	movt	r3, #16386	; 0x4002
 8002abe:	2280      	movs	r2, #128	; 0x80
 8002ac0:	701a      	strb	r2, [r3, #0]
 8002ac2:	bd08      	pop	{r3, pc}

08002ac4 <HAL_RCCEx_PeriphCLKConfig>:
 8002ac4:	e92d 43f0 	stmdb	sp!, {r4, r5, r6, r7, r8, r9, lr}
 8002ac8:	6803      	ldr	r3, [r0, #0]
 8002aca:	f013 0601 	ands.w	r6, r3, #1
 8002ace:	b083      	sub	sp, #12
 8002ad0:	4604      	mov	r4, r0
 8002ad2:	d00e      	beq.n	8002af2 <HAL_RCCEx_PeriphCLKConfig+0x2e>
 8002ad4:	f44f 5160 	mov.w	r1, #14336	; 0x3800
 8002ad8:	f2c4 0102 	movt	r1, #16386	; 0x4002
 8002adc:	6b86      	ldr	r6, [r0, #56]	; 0x38
 8002ade:	f8d1 208c 	ldr.w	r2, [r1, #140]	; 0x8c
 8002ae2:	f022 62c0 	bic.w	r2, r2, #100663296	; 0x6000000
 8002ae6:	4332      	orrs	r2, r6
 8002ae8:	fab6 f686 	clz	r6, r6
 8002aec:	f8c1 208c 	str.w	r2, [r1, #140]	; 0x8c
 8002af0:	0976      	lsrs	r6, r6, #5
 8002af2:	079a      	lsls	r2, r3, #30
 8002af4:	d50e      	bpl.n	8002b14 <HAL_RCCEx_PeriphCLKConfig+0x50>
 8002af6:	f44f 5160 	mov.w	r1, #14336	; 0x3800
 8002afa:	f2c4 0102 	movt	r1, #16386	; 0x4002
 8002afe:	6be0      	ldr	r0, [r4, #60]	; 0x3c
 8002b00:	f8d1 208c 	ldr.w	r2, [r1, #140]	; 0x8c
 8002b04:	f022 52c0 	bic.w	r2, r2, #402653184	; 0x18000000
 8002b08:	4302      	orrs	r2, r0
 8002b0a:	2800      	cmp	r0, #0
 8002b0c:	f8c1 208c 	str.w	r2, [r1, #140]	; 0x8c
 8002b10:	bf08      	it	eq
 8002b12:	2601      	moveq	r6, #1
 8002b14:	f013 0504 	ands.w	r5, r3, #4
 8002b18:	d015      	beq.n	8002b46 <HAL_RCCEx_PeriphCLKConfig+0x82>
 8002b1a:	f44f 5160 	mov.w	r1, #14336	; 0x3800
 8002b1e:	f2c4 0102 	movt	r1, #16386	; 0x4002
 8002b22:	6b25      	ldr	r5, [r4, #48]	; 0x30
 8002b24:	f8d1 208c 	ldr.w	r2, [r1, #140]	; 0x8c
 8002b28:	f5b5 1f80 	cmp.w	r5, #1048576	; 0x100000
 8002b2c:	f422 1240 	bic.w	r2, r2, #3145728	; 0x300000
 8002b30:	ea42 0205 	orr.w	r2, r2, r5
 8002b34:	bf18      	it	ne
 8002b36:	fab5 f585 	clzne	r5, r5
 8002b3a:	f8c1 208c 	str.w	r2, [r1, #140]	; 0x8c
 8002b3e:	bf12      	itee	ne
 8002b40:	096d      	lsrne	r5, r5, #5
 8002b42:	2500      	moveq	r5, #0
 8002b44:	2601      	moveq	r6, #1
 8002b46:	071f      	lsls	r7, r3, #28
 8002b48:	d512      	bpl.n	8002b70 <HAL_RCCEx_PeriphCLKConfig+0xac>
 8002b4a:	f44f 5160 	mov.w	r1, #14336	; 0x3800
 8002b4e:	f2c4 0102 	movt	r1, #16386	; 0x4002
 8002b52:	6b60      	ldr	r0, [r4, #52]	; 0x34
 8002b54:	f8d1 208c 	ldr.w	r2, [r1, #140]	; 0x8c
 8002b58:	f422 0240 	bic.w	r2, r2, #12582912	; 0xc00000
 8002b5c:	4302      	orrs	r2, r0
 8002b5e:	f5b0 0f80 	cmp.w	r0, #4194304	; 0x400000
 8002b62:	f8c1 208c 	str.w	r2, [r1, #140]	; 0x8c
 8002b66:	f000 812b 	beq.w	8002dc0 <HAL_RCCEx_PeriphCLKConfig+0x2fc>
 8002b6a:	2800      	cmp	r0, #0
 8002b6c:	bf08      	it	eq
 8002b6e:	2501      	moveq	r5, #1
 8002b70:	0698      	lsls	r0, r3, #26
 8002b72:	f100 80ca 	bmi.w	8002d0a <HAL_RCCEx_PeriphCLKConfig+0x246>
 8002b76:	06df      	lsls	r7, r3, #27
 8002b78:	d507      	bpl.n	8002b8a <HAL_RCCEx_PeriphCLKConfig+0xc6>
 8002b7a:	f44f 538f 	mov.w	r3, #4576	; 0x11e0
 8002b7e:	f2c4 2347 	movt	r3, #16967	; 0x4247
 8002b82:	f894 2058 	ldrb.w	r2, [r4, #88]	; 0x58
 8002b86:	601a      	str	r2, [r3, #0]
 8002b88:	6823      	ldr	r3, [r4, #0]
 8002b8a:	0618      	lsls	r0, r3, #24
 8002b8c:	d50b      	bpl.n	8002ba6 <HAL_RCCEx_PeriphCLKConfig+0xe2>
 8002b8e:	f44f 5160 	mov.w	r1, #14336	; 0x3800
 8002b92:	f2c4 0102 	movt	r1, #16386	; 0x4002
 8002b96:	6ce0      	ldr	r0, [r4, #76]	; 0x4c
 8002b98:	f8d1 2094 	ldr.w	r2, [r1, #148]	; 0x94
 8002b9c:	f422 0240 	bic.w	r2, r2, #12582912	; 0xc00000
 8002ba0:	4302      	orrs	r2, r0
 8002ba2:	f8c1 2094 	str.w	r2, [r1, #148]	; 0x94
 8002ba6:	0659      	lsls	r1, r3, #25
 8002ba8:	d50b      	bpl.n	8002bc2 <HAL_RCCEx_PeriphCLKConfig+0xfe>
 8002baa:	f44f 5160 	mov.w	r1, #14336	; 0x3800
 8002bae:	f2c4 0102 	movt	r1, #16386	; 0x4002
 8002bb2:	6ca0      	ldr	r0, [r4, #72]	; 0x48
 8002bb4:	f8d1 2094 	ldr.w	r2, [r1, #148]	; 0x94
 8002bb8:	f022 6280 	bic.w	r2, r2, #67108864	; 0x4000000
 8002bbc:	4302      	orrs	r2, r0
 8002bbe:	f8c1 2094 	str.w	r2, [r1, #148]	; 0x94
 8002bc2:	05da      	lsls	r2, r3, #23
 8002bc4:	d50f      	bpl.n	8002be6 <HAL_RCCEx_PeriphCLKConfig+0x122>
 8002bc6:	f44f 5160 	mov.w	r1, #14336	; 0x3800
 8002bca:	f2c4 0102 	movt	r1, #16386	; 0x4002
 8002bce:	6d60      	ldr	r0, [r4, #84]	; 0x54
 8002bd0:	f8d1 2094 	ldr.w	r2, [r1, #148]	; 0x94
 8002bd4:	f022 6200 	bic.w	r2, r2, #134217728	; 0x8000000
 8002bd8:	4302      	orrs	r2, r0
 8002bda:	f1b0 6f00 	cmp.w	r0, #134217728	; 0x8000000
 8002bde:	f8c1 2094 	str.w	r2, [r1, #148]	; 0x94
 8002be2:	bf08      	it	eq
 8002be4:	2501      	moveq	r5, #1
 8002be6:	059f      	lsls	r7, r3, #22
 8002be8:	d50b      	bpl.n	8002c02 <HAL_RCCEx_PeriphCLKConfig+0x13e>
 8002bea:	f44f 5160 	mov.w	r1, #14336	; 0x3800
 8002bee:	f2c4 0102 	movt	r1, #16386	; 0x4002
 8002bf2:	6c60      	ldr	r0, [r4, #68]	; 0x44
 8002bf4:	f8d1 2094 	ldr.w	r2, [r1, #148]	; 0x94
 8002bf8:	f022 5280 	bic.w	r2, r2, #268435456	; 0x10000000
 8002bfc:	4302      	orrs	r2, r0
 8002bfe:	f8c1 2094 	str.w	r2, [r1, #148]	; 0x94
 8002c02:	0558      	lsls	r0, r3, #21
 8002c04:	d50e      	bpl.n	8002c24 <HAL_RCCEx_PeriphCLKConfig+0x160>
 8002c06:	f44f 5160 	mov.w	r1, #14336	; 0x3800
 8002c0a:	f2c4 0102 	movt	r1, #16386	; 0x4002
 8002c0e:	6d20      	ldr	r0, [r4, #80]	; 0x50
 8002c10:	f8d1 2094 	ldr.w	r2, [r1, #148]	; 0x94
 8002c14:	f022 5200 	bic.w	r2, r2, #536870912	; 0x20000000
 8002c18:	4302      	orrs	r2, r0
 8002c1a:	f1b0 5f00 	cmp.w	r0, #536870912	; 0x20000000
 8002c1e:	f8c1 2094 	str.w	r2, [r1, #148]	; 0x94
 8002c22:	d00b      	beq.n	8002c3c <HAL_RCCEx_PeriphCLKConfig+0x178>
 8002c24:	2e01      	cmp	r6, #1
 8002c26:	d009      	beq.n	8002c3c <HAL_RCCEx_PeriphCLKConfig+0x178>
 8002c28:	f5b3 6f00 	cmp.w	r3, #2048	; 0x800
 8002c2c:	d006      	beq.n	8002c3c <HAL_RCCEx_PeriphCLKConfig+0x178>
 8002c2e:	2d01      	cmp	r5, #1
 8002c30:	f000 80ff 	beq.w	8002e32 <HAL_RCCEx_PeriphCLKConfig+0x36e>
 8002c34:	2000      	movs	r0, #0
 8002c36:	b003      	add	sp, #12
 8002c38:	e8bd 83f0 	ldmia.w	sp!, {r4, r5, r6, r7, r8, r9, pc}
 8002c3c:	2368      	movs	r3, #104	; 0x68
 8002c3e:	f2c4 2347 	movt	r3, #16967	; 0x4247
 8002c42:	2200      	movs	r2, #0
 8002c44:	601a      	str	r2, [r3, #0]
 8002c46:	f7fe fa53 	bl	80010f0 <HAL_GetTick>
 8002c4a:	f44f 5760 	mov.w	r7, #14336	; 0x3800
 8002c4e:	4606      	mov	r6, r0
 8002c50:	f2c4 0702 	movt	r7, #16386	; 0x4002
 8002c54:	e004      	b.n	8002c60 <HAL_RCCEx_PeriphCLKConfig+0x19c>
 8002c56:	f7fe fa4b 	bl	80010f0 <HAL_GetTick>
 8002c5a:	1b83      	subs	r3, r0, r6
 8002c5c:	2b02      	cmp	r3, #2
 8002c5e:	d84a      	bhi.n	8002cf6 <HAL_RCCEx_PeriphCLKConfig+0x232>
 8002c60:	683b      	ldr	r3, [r7, #0]
 8002c62:	0119      	lsls	r1, r3, #4
 8002c64:	d4f7      	bmi.n	8002c56 <HAL_RCCEx_PeriphCLKConfig+0x192>
 8002c66:	6823      	ldr	r3, [r4, #0]
 8002c68:	07da      	lsls	r2, r3, #31
 8002c6a:	d548      	bpl.n	8002cfe <HAL_RCCEx_PeriphCLKConfig+0x23a>
 8002c6c:	6ba2      	ldr	r2, [r4, #56]	; 0x38
 8002c6e:	2a00      	cmp	r2, #0
 8002c70:	d145      	bne.n	8002cfe <HAL_RCCEx_PeriphCLKConfig+0x23a>
 8002c72:	f44f 5160 	mov.w	r1, #14336	; 0x3800
 8002c76:	f2c4 0102 	movt	r1, #16386	; 0x4002
 8002c7a:	6860      	ldr	r0, [r4, #4]
 8002c7c:	f8d1 2084 	ldr.w	r2, [r1, #132]	; 0x84
 8002c80:	f8d1 6084 	ldr.w	r6, [r1, #132]	; 0x84
 8002c84:	f402 3240 	and.w	r2, r2, #196608	; 0x30000
 8002c88:	f006 6670 	and.w	r6, r6, #251658240	; 0xf000000
 8002c8c:	4332      	orrs	r2, r6
 8002c8e:	68a6      	ldr	r6, [r4, #8]
 8002c90:	4302      	orrs	r2, r0
 8002c92:	6960      	ldr	r0, [r4, #20]
 8002c94:	ea42 1286 	orr.w	r2, r2, r6, lsl #6
 8002c98:	ea42 7200 	orr.w	r2, r2, r0, lsl #28
 8002c9c:	f8c1 2084 	str.w	r2, [r1, #132]	; 0x84
 8002ca0:	075e      	lsls	r6, r3, #29
 8002ca2:	d504      	bpl.n	8002cae <HAL_RCCEx_PeriphCLKConfig+0x1ea>
 8002ca4:	6b22      	ldr	r2, [r4, #48]	; 0x30
 8002ca6:	f5b2 1f80 	cmp.w	r2, #1048576	; 0x100000
 8002caa:	f000 80a1 	beq.w	8002df0 <HAL_RCCEx_PeriphCLKConfig+0x32c>
 8002cae:	0718      	lsls	r0, r3, #28
 8002cb0:	d504      	bpl.n	8002cbc <HAL_RCCEx_PeriphCLKConfig+0x1f8>
 8002cb2:	6b62      	ldr	r2, [r4, #52]	; 0x34
 8002cb4:	f5b2 0f80 	cmp.w	r2, #4194304	; 0x400000
 8002cb8:	f000 809a 	beq.w	8002df0 <HAL_RCCEx_PeriphCLKConfig+0x32c>
 8002cbc:	0559      	lsls	r1, r3, #21
 8002cbe:	d504      	bpl.n	8002cca <HAL_RCCEx_PeriphCLKConfig+0x206>
 8002cc0:	6d22      	ldr	r2, [r4, #80]	; 0x50
 8002cc2:	f1b2 5f00 	cmp.w	r2, #536870912	; 0x20000000
 8002cc6:	f000 812c 	beq.w	8002f22 <HAL_RCCEx_PeriphCLKConfig+0x45e>
 8002cca:	051a      	lsls	r2, r3, #20
 8002ccc:	d47a      	bmi.n	8002dc4 <HAL_RCCEx_PeriphCLKConfig+0x300>
 8002cce:	2368      	movs	r3, #104	; 0x68
 8002cd0:	f2c4 2347 	movt	r3, #16967	; 0x4247
 8002cd4:	2201      	movs	r2, #1
 8002cd6:	601a      	str	r2, [r3, #0]
 8002cd8:	f7fe fa0a 	bl	80010f0 <HAL_GetTick>
 8002cdc:	f44f 5760 	mov.w	r7, #14336	; 0x3800
 8002ce0:	4606      	mov	r6, r0
 8002ce2:	f2c4 0702 	movt	r7, #16386	; 0x4002
 8002ce6:	683b      	ldr	r3, [r7, #0]
 8002ce8:	011b      	lsls	r3, r3, #4
 8002cea:	d4a0      	bmi.n	8002c2e <HAL_RCCEx_PeriphCLKConfig+0x16a>
 8002cec:	f7fe fa00 	bl	80010f0 <HAL_GetTick>
 8002cf0:	1b80      	subs	r0, r0, r6
 8002cf2:	2802      	cmp	r0, #2
 8002cf4:	d9f7      	bls.n	8002ce6 <HAL_RCCEx_PeriphCLKConfig+0x222>
 8002cf6:	2003      	movs	r0, #3
 8002cf8:	b003      	add	sp, #12
 8002cfa:	e8bd 83f0 	ldmia.w	sp!, {r4, r5, r6, r7, r8, r9, pc}
 8002cfe:	079f      	lsls	r7, r3, #30
 8002d00:	d5ce      	bpl.n	8002ca0 <HAL_RCCEx_PeriphCLKConfig+0x1dc>
 8002d02:	6be2      	ldr	r2, [r4, #60]	; 0x3c
 8002d04:	2a00      	cmp	r2, #0
 8002d06:	d1cb      	bne.n	8002ca0 <HAL_RCCEx_PeriphCLKConfig+0x1dc>
 8002d08:	e7b3      	b.n	8002c72 <HAL_RCCEx_PeriphCLKConfig+0x1ae>
 8002d0a:	f44f 5360 	mov.w	r3, #14336	; 0x3800
 8002d0e:	f2c4 0302 	movt	r3, #16386	; 0x4002
 8002d12:	2200      	movs	r2, #0
 8002d14:	9201      	str	r2, [sp, #4]
 8002d16:	6c1a      	ldr	r2, [r3, #64]	; 0x40
 8002d18:	f042 5280 	orr.w	r2, r2, #268435456	; 0x10000000
 8002d1c:	641a      	str	r2, [r3, #64]	; 0x40
 8002d1e:	6c1b      	ldr	r3, [r3, #64]	; 0x40
 8002d20:	f44f 47e0 	mov.w	r7, #28672	; 0x7000
 8002d24:	f003 5380 	and.w	r3, r3, #268435456	; 0x10000000
 8002d28:	f2c4 0700 	movt	r7, #16384	; 0x4000
 8002d2c:	9301      	str	r3, [sp, #4]
 8002d2e:	9b01      	ldr	r3, [sp, #4]
 8002d30:	683b      	ldr	r3, [r7, #0]
 8002d32:	f443 7380 	orr.w	r3, r3, #256	; 0x100
 8002d36:	603b      	str	r3, [r7, #0]
 8002d38:	f7fe f9da 	bl	80010f0 <HAL_GetTick>
 8002d3c:	4680      	mov	r8, r0
 8002d3e:	e005      	b.n	8002d4c <HAL_RCCEx_PeriphCLKConfig+0x288>
 8002d40:	f7fe f9d6 	bl	80010f0 <HAL_GetTick>
 8002d44:	eba0 0008 	sub.w	r0, r0, r8
 8002d48:	2802      	cmp	r0, #2
 8002d4a:	d8d4      	bhi.n	8002cf6 <HAL_RCCEx_PeriphCLKConfig+0x232>
 8002d4c:	683b      	ldr	r3, [r7, #0]
 8002d4e:	05d9      	lsls	r1, r3, #23
 8002d50:	d5f6      	bpl.n	8002d40 <HAL_RCCEx_PeriphCLKConfig+0x27c>
 8002d52:	f44f 5760 	mov.w	r7, #14336	; 0x3800
 8002d56:	f2c4 0702 	movt	r7, #16386	; 0x4002
 8002d5a:	6c23      	ldr	r3, [r4, #64]	; 0x40
 8002d5c:	6f3a      	ldr	r2, [r7, #112]	; 0x70
 8002d5e:	f412 7240 	ands.w	r2, r2, #768	; 0x300
 8002d62:	d014      	beq.n	8002d8e <HAL_RCCEx_PeriphCLKConfig+0x2ca>
 8002d64:	f403 7140 	and.w	r1, r3, #768	; 0x300
 8002d68:	4291      	cmp	r1, r2
 8002d6a:	d012      	beq.n	8002d92 <HAL_RCCEx_PeriphCLKConfig+0x2ce>
 8002d6c:	6f3b      	ldr	r3, [r7, #112]	; 0x70
 8002d6e:	f44f 6264 	mov.w	r2, #3648	; 0xe40
 8002d72:	f2c4 2247 	movt	r2, #16967	; 0x4247
 8002d76:	f423 7340 	bic.w	r3, r3, #768	; 0x300
 8002d7a:	2001      	movs	r0, #1
 8002d7c:	2100      	movs	r1, #0
 8002d7e:	6010      	str	r0, [r2, #0]
 8002d80:	6011      	str	r1, [r2, #0]
 8002d82:	673b      	str	r3, [r7, #112]	; 0x70
 8002d84:	6f3b      	ldr	r3, [r7, #112]	; 0x70
 8002d86:	07da      	lsls	r2, r3, #31
 8002d88:	f100 80e8 	bmi.w	8002f5c <HAL_RCCEx_PeriphCLKConfig+0x498>
 8002d8c:	6c23      	ldr	r3, [r4, #64]	; 0x40
 8002d8e:	f403 7240 	and.w	r2, r3, #768	; 0x300
 8002d92:	f5b2 7f40 	cmp.w	r2, #768	; 0x300
 8002d96:	f000 80b6 	beq.w	8002f06 <HAL_RCCEx_PeriphCLKConfig+0x442>
 8002d9a:	f44f 5260 	mov.w	r2, #14336	; 0x3800
 8002d9e:	f2c4 0202 	movt	r2, #16386	; 0x4002
 8002da2:	6891      	ldr	r1, [r2, #8]
 8002da4:	f421 11f8 	bic.w	r1, r1, #2031616	; 0x1f0000
 8002da8:	6091      	str	r1, [r2, #8]
 8002daa:	f44f 5260 	mov.w	r2, #14336	; 0x3800
 8002dae:	f2c4 0202 	movt	r2, #16386	; 0x4002
 8002db2:	f3c3 030b 	ubfx	r3, r3, #0, #12
 8002db6:	6f11      	ldr	r1, [r2, #112]	; 0x70
 8002db8:	430b      	orrs	r3, r1
 8002dba:	6713      	str	r3, [r2, #112]	; 0x70
 8002dbc:	6823      	ldr	r3, [r4, #0]
 8002dbe:	e6da      	b.n	8002b76 <HAL_RCCEx_PeriphCLKConfig+0xb2>
 8002dc0:	2601      	movs	r6, #1
 8002dc2:	e6d5      	b.n	8002b70 <HAL_RCCEx_PeriphCLKConfig+0xac>
 8002dc4:	e9d4 1001 	ldrd	r1, r0, [r4, #4]
 8002dc8:	6923      	ldr	r3, [r4, #16]
 8002dca:	68e2      	ldr	r2, [r4, #12]
 8002dcc:	061b      	lsls	r3, r3, #24
 8002dce:	ea43 1380 	orr.w	r3, r3, r0, lsl #6
 8002dd2:	6960      	ldr	r0, [r4, #20]
 8002dd4:	430b      	orrs	r3, r1
 8002dd6:	0852      	lsrs	r2, r2, #1
 8002dd8:	f44f 5160 	mov.w	r1, #14336	; 0x3800
 8002ddc:	ea43 7300 	orr.w	r3, r3, r0, lsl #28
 8002de0:	3a01      	subs	r2, #1
 8002de2:	f2c4 0102 	movt	r1, #16386	; 0x4002
 8002de6:	ea43 4302 	orr.w	r3, r3, r2, lsl #16
 8002dea:	f8c1 3084 	str.w	r3, [r1, #132]	; 0x84
 8002dee:	e76e      	b.n	8002cce <HAL_RCCEx_PeriphCLKConfig+0x20a>
 8002df0:	f44f 5160 	mov.w	r1, #14336	; 0x3800
 8002df4:	f2c4 0102 	movt	r1, #16386	; 0x4002
 8002df8:	6860      	ldr	r0, [r4, #4]
 8002dfa:	f8d1 2084 	ldr.w	r2, [r1, #132]	; 0x84
 8002dfe:	f8d1 6084 	ldr.w	r6, [r1, #132]	; 0x84
 8002e02:	f402 3240 	and.w	r2, r2, #196608	; 0x30000
 8002e06:	f006 46e0 	and.w	r6, r6, #1879048192	; 0x70000000
 8002e0a:	4332      	orrs	r2, r6
 8002e0c:	68a6      	ldr	r6, [r4, #8]
 8002e0e:	4302      	orrs	r2, r0
 8002e10:	6920      	ldr	r0, [r4, #16]
 8002e12:	ea42 1286 	orr.w	r2, r2, r6, lsl #6
 8002e16:	ea42 6200 	orr.w	r2, r2, r0, lsl #24
 8002e1a:	f8c1 2084 	str.w	r2, [r1, #132]	; 0x84
 8002e1e:	f8d1 008c 	ldr.w	r0, [r1, #140]	; 0x8c
 8002e22:	6aa2      	ldr	r2, [r4, #40]	; 0x28
 8002e24:	f020 001f 	bic.w	r0, r0, #31
 8002e28:	3a01      	subs	r2, #1
 8002e2a:	4302      	orrs	r2, r0
 8002e2c:	f8c1 208c 	str.w	r2, [r1, #140]	; 0x8c
 8002e30:	e744      	b.n	8002cbc <HAL_RCCEx_PeriphCLKConfig+0x1f8>
 8002e32:	2370      	movs	r3, #112	; 0x70
 8002e34:	f2c4 2347 	movt	r3, #16967	; 0x4247
 8002e38:	2200      	movs	r2, #0
 8002e3a:	601a      	str	r2, [r3, #0]
 8002e3c:	f7fe f958 	bl	80010f0 <HAL_GetTick>
 8002e40:	f44f 5660 	mov.w	r6, #14336	; 0x3800
 8002e44:	4605      	mov	r5, r0
 8002e46:	f2c4 0602 	movt	r6, #16386	; 0x4002
 8002e4a:	e005      	b.n	8002e58 <HAL_RCCEx_PeriphCLKConfig+0x394>
 8002e4c:	f7fe f950 	bl	80010f0 <HAL_GetTick>
 8002e50:	1b40      	subs	r0, r0, r5
 8002e52:	2802      	cmp	r0, #2
 8002e54:	f63f af4f 	bhi.w	8002cf6 <HAL_RCCEx_PeriphCLKConfig+0x232>
 8002e58:	6833      	ldr	r3, [r6, #0]
 8002e5a:	009f      	lsls	r7, r3, #2
 8002e5c:	d4f6      	bmi.n	8002e4c <HAL_RCCEx_PeriphCLKConfig+0x388>
 8002e5e:	6822      	ldr	r2, [r4, #0]
 8002e60:	0750      	lsls	r0, r2, #29
 8002e62:	f140 808c 	bpl.w	8002f7e <HAL_RCCEx_PeriphCLKConfig+0x4ba>
 8002e66:	6b23      	ldr	r3, [r4, #48]	; 0x30
 8002e68:	2b00      	cmp	r3, #0
 8002e6a:	f040 8088 	bne.w	8002f7e <HAL_RCCEx_PeriphCLKConfig+0x4ba>
 8002e6e:	f44f 5160 	mov.w	r1, #14336	; 0x3800
 8002e72:	f2c4 0102 	movt	r1, #16386	; 0x4002
 8002e76:	69a0      	ldr	r0, [r4, #24]
 8002e78:	f8d1 3088 	ldr.w	r3, [r1, #136]	; 0x88
 8002e7c:	69e5      	ldr	r5, [r4, #28]
 8002e7e:	f403 3340 	and.w	r3, r3, #196608	; 0x30000
 8002e82:	4303      	orrs	r3, r0
 8002e84:	6a60      	ldr	r0, [r4, #36]	; 0x24
 8002e86:	ea43 1385 	orr.w	r3, r3, r5, lsl #6
 8002e8a:	ea43 6300 	orr.w	r3, r3, r0, lsl #24
 8002e8e:	f8c1 3088 	str.w	r3, [r1, #136]	; 0x88
 8002e92:	f8d1 308c 	ldr.w	r3, [r1, #140]	; 0x8c
 8002e96:	6ae0      	ldr	r0, [r4, #44]	; 0x2c
 8002e98:	f423 53f8 	bic.w	r3, r3, #7936	; 0x1f00
 8002e9c:	3801      	subs	r0, #1
 8002e9e:	ea43 2300 	orr.w	r3, r3, r0, lsl #8
 8002ea2:	f8c1 308c 	str.w	r3, [r1, #140]	; 0x8c
 8002ea6:	05d2      	lsls	r2, r2, #23
 8002ea8:	d517      	bpl.n	8002eda <HAL_RCCEx_PeriphCLKConfig+0x416>
 8002eaa:	6d63      	ldr	r3, [r4, #84]	; 0x54
 8002eac:	f1b3 6f00 	cmp.w	r3, #134217728	; 0x8000000
 8002eb0:	d113      	bne.n	8002eda <HAL_RCCEx_PeriphCLKConfig+0x416>
 8002eb2:	f44f 5160 	mov.w	r1, #14336	; 0x3800
 8002eb6:	f2c4 0102 	movt	r1, #16386	; 0x4002
 8002eba:	e9d4 0207 	ldrd	r0, r2, [r4, #28]
 8002ebe:	f8d1 3088 	ldr.w	r3, [r1, #136]	; 0x88
 8002ec2:	69a5      	ldr	r5, [r4, #24]
 8002ec4:	f003 6370 	and.w	r3, r3, #251658240	; 0xf000000
 8002ec8:	432b      	orrs	r3, r5
 8002eca:	0852      	lsrs	r2, r2, #1
 8002ecc:	ea43 1380 	orr.w	r3, r3, r0, lsl #6
 8002ed0:	3a01      	subs	r2, #1
 8002ed2:	ea43 4302 	orr.w	r3, r3, r2, lsl #16
 8002ed6:	f8c1 3088 	str.w	r3, [r1, #136]	; 0x88
 8002eda:	2370      	movs	r3, #112	; 0x70
 8002edc:	f2c4 2347 	movt	r3, #16967	; 0x4247
 8002ee0:	2201      	movs	r2, #1
 8002ee2:	601a      	str	r2, [r3, #0]
 8002ee4:	f7fe f904 	bl	80010f0 <HAL_GetTick>
 8002ee8:	f44f 5560 	mov.w	r5, #14336	; 0x3800
 8002eec:	4604      	mov	r4, r0
 8002eee:	f2c4 0502 	movt	r5, #16386	; 0x4002
 8002ef2:	682b      	ldr	r3, [r5, #0]
 8002ef4:	009b      	lsls	r3, r3, #2
 8002ef6:	f53f ae9d 	bmi.w	8002c34 <HAL_RCCEx_PeriphCLKConfig+0x170>
 8002efa:	f7fe f8f9 	bl	80010f0 <HAL_GetTick>
 8002efe:	1b00      	subs	r0, r0, r4
 8002f00:	2802      	cmp	r0, #2
 8002f02:	d9f6      	bls.n	8002ef2 <HAL_RCCEx_PeriphCLKConfig+0x42e>
 8002f04:	e6f7      	b.n	8002cf6 <HAL_RCCEx_PeriphCLKConfig+0x232>
 8002f06:	f44f 5160 	mov.w	r1, #14336	; 0x3800
 8002f0a:	f2c4 0102 	movt	r1, #16386	; 0x4002
 8002f0e:	f023 4070 	bic.w	r0, r3, #4026531840	; 0xf0000000
 8002f12:	688a      	ldr	r2, [r1, #8]
 8002f14:	f420 7040 	bic.w	r0, r0, #768	; 0x300
 8002f18:	f422 12f8 	bic.w	r2, r2, #2031616	; 0x1f0000
 8002f1c:	4302      	orrs	r2, r0
 8002f1e:	608a      	str	r2, [r1, #8]
 8002f20:	e743      	b.n	8002daa <HAL_RCCEx_PeriphCLKConfig+0x2e6>
 8002f22:	f44f 5760 	mov.w	r7, #14336	; 0x3800
 8002f26:	f2c4 0702 	movt	r7, #16386	; 0x4002
 8002f2a:	6866      	ldr	r6, [r4, #4]
 8002f2c:	f8d7 0084 	ldr.w	r0, [r7, #132]	; 0x84
 8002f30:	f8d7 2084 	ldr.w	r2, [r7, #132]	; 0x84
 8002f34:	68e1      	ldr	r1, [r4, #12]
 8002f36:	f3c0 4c01 	ubfx	ip, r0, #16, #2
 8002f3a:	f002 42e0 	and.w	r2, r2, #1879048192	; 0x70000000
 8002f3e:	68a0      	ldr	r0, [r4, #8]
 8002f40:	4332      	orrs	r2, r6
 8002f42:	ea42 1280 	orr.w	r2, r2, r0, lsl #6
 8002f46:	f10c 0601 	add.w	r6, ip, #1
 8002f4a:	0849      	lsrs	r1, r1, #1
 8002f4c:	ea42 6246 	orr.w	r2, r2, r6, lsl #25
 8002f50:	3901      	subs	r1, #1
 8002f52:	ea42 4201 	orr.w	r2, r2, r1, lsl #16
 8002f56:	f8c7 2084 	str.w	r2, [r7, #132]	; 0x84
 8002f5a:	e6b6      	b.n	8002cca <HAL_RCCEx_PeriphCLKConfig+0x206>
 8002f5c:	f7fe f8c8 	bl	80010f0 <HAL_GetTick>
 8002f60:	f241 3988 	movw	r9, #5000	; 0x1388
 8002f64:	4680      	mov	r8, r0
 8002f66:	e006      	b.n	8002f76 <HAL_RCCEx_PeriphCLKConfig+0x4b2>
 8002f68:	f7fe f8c2 	bl	80010f0 <HAL_GetTick>
 8002f6c:	eba0 0008 	sub.w	r0, r0, r8
 8002f70:	4548      	cmp	r0, r9
 8002f72:	f63f aec0 	bhi.w	8002cf6 <HAL_RCCEx_PeriphCLKConfig+0x232>
 8002f76:	6f3b      	ldr	r3, [r7, #112]	; 0x70
 8002f78:	079b      	lsls	r3, r3, #30
 8002f7a:	d5f5      	bpl.n	8002f68 <HAL_RCCEx_PeriphCLKConfig+0x4a4>
 8002f7c:	e706      	b.n	8002d8c <HAL_RCCEx_PeriphCLKConfig+0x2c8>
 8002f7e:	0711      	lsls	r1, r2, #28
 8002f80:	d591      	bpl.n	8002ea6 <HAL_RCCEx_PeriphCLKConfig+0x3e2>
 8002f82:	6b63      	ldr	r3, [r4, #52]	; 0x34
 8002f84:	2b00      	cmp	r3, #0
 8002f86:	d18e      	bne.n	8002ea6 <HAL_RCCEx_PeriphCLKConfig+0x3e2>
 8002f88:	e771      	b.n	8002e6e <HAL_RCCEx_PeriphCLKConfig+0x3aa>
 8002f8a:	bf00      	nop

08002f8c <HAL_RCCEx_GetPeriphCLKConfig>:
 8002f8c:	f44f 5360 	mov.w	r3, #14336	; 0x3800
 8002f90:	f2c4 0302 	movt	r3, #16386	; 0x4002
 8002f94:	f240 72ff 	movw	r2, #2047	; 0x7ff
 8002f98:	6002      	str	r2, [r0, #0]
 8002f9a:	f8d3 2084 	ldr.w	r2, [r3, #132]	; 0x84
 8002f9e:	f002 023f 	and.w	r2, r2, #63	; 0x3f
 8002fa2:	6042      	str	r2, [r0, #4]
 8002fa4:	f8d3 2084 	ldr.w	r2, [r3, #132]	; 0x84
 8002fa8:	f3c2 1288 	ubfx	r2, r2, #6, #9
 8002fac:	6082      	str	r2, [r0, #8]
 8002fae:	f8d3 2084 	ldr.w	r2, [r3, #132]	; 0x84
 8002fb2:	f3c2 4201 	ubfx	r2, r2, #16, #2
 8002fb6:	3201      	adds	r2, #1
 8002fb8:	0052      	lsls	r2, r2, #1
 8002fba:	60c2      	str	r2, [r0, #12]
 8002fbc:	f8d3 2084 	ldr.w	r2, [r3, #132]	; 0x84
 8002fc0:	f3c2 6203 	ubfx	r2, r2, #24, #4
 8002fc4:	6102      	str	r2, [r0, #16]
 8002fc6:	f8d3 2084 	ldr.w	r2, [r3, #132]	; 0x84
 8002fca:	f3c2 7202 	ubfx	r2, r2, #28, #3
 8002fce:	6142      	str	r2, [r0, #20]
 8002fd0:	f8d3 2088 	ldr.w	r2, [r3, #136]	; 0x88
 8002fd4:	f002 023f 	and.w	r2, r2, #63	; 0x3f
 8002fd8:	6182      	str	r2, [r0, #24]
 8002fda:	f8d3 2088 	ldr.w	r2, [r3, #136]	; 0x88
 8002fde:	f3c2 1288 	ubfx	r2, r2, #6, #9
 8002fe2:	61c2      	str	r2, [r0, #28]
 8002fe4:	f8d3 2088 	ldr.w	r2, [r3, #136]	; 0x88
 8002fe8:	f3c2 4201 	ubfx	r2, r2, #16, #2
 8002fec:	3201      	adds	r2, #1
 8002fee:	0052      	lsls	r2, r2, #1
 8002ff0:	6202      	str	r2, [r0, #32]
 8002ff2:	f8d3 2088 	ldr.w	r2, [r3, #136]	; 0x88
 8002ff6:	f3c2 6203 	ubfx	r2, r2, #24, #4
 8002ffa:	6242      	str	r2, [r0, #36]	; 0x24
 8002ffc:	f8d3 208c 	ldr.w	r2, [r3, #140]	; 0x8c
 8003000:	f002 021f 	and.w	r2, r2, #31
 8003004:	6282      	str	r2, [r0, #40]	; 0x28
 8003006:	f8d3 208c 	ldr.w	r2, [r3, #140]	; 0x8c
 800300a:	f3c2 2204 	ubfx	r2, r2, #8, #5
 800300e:	62c2      	str	r2, [r0, #44]	; 0x2c
 8003010:	f8d3 208c 	ldr.w	r2, [r3, #140]	; 0x8c
 8003014:	f402 1240 	and.w	r2, r2, #3145728	; 0x300000
 8003018:	6302      	str	r2, [r0, #48]	; 0x30
 800301a:	f8d3 208c 	ldr.w	r2, [r3, #140]	; 0x8c
 800301e:	f402 0240 	and.w	r2, r2, #12582912	; 0xc00000
 8003022:	6342      	str	r2, [r0, #52]	; 0x34
 8003024:	f8d3 208c 	ldr.w	r2, [r3, #140]	; 0x8c
 8003028:	f002 62c0 	and.w	r2, r2, #100663296	; 0x6000000
 800302c:	6382      	str	r2, [r0, #56]	; 0x38
 800302e:	f8d3 208c 	ldr.w	r2, [r3, #140]	; 0x8c
 8003032:	f002 52c0 	and.w	r2, r2, #402653184	; 0x18000000
 8003036:	63c2      	str	r2, [r0, #60]	; 0x3c
 8003038:	6899      	ldr	r1, [r3, #8]
 800303a:	6f1a      	ldr	r2, [r3, #112]	; 0x70
 800303c:	f401 11f8 	and.w	r1, r1, #2031616	; 0x1f0000
 8003040:	f402 7240 	and.w	r2, r2, #768	; 0x300
 8003044:	430a      	orrs	r2, r1
 8003046:	6402      	str	r2, [r0, #64]	; 0x40
 8003048:	f8d3 2094 	ldr.w	r2, [r3, #148]	; 0x94
 800304c:	f002 6280 	and.w	r2, r2, #67108864	; 0x4000000
 8003050:	6482      	str	r2, [r0, #72]	; 0x48
 8003052:	f8d3 2094 	ldr.w	r2, [r3, #148]	; 0x94
 8003056:	f402 0240 	and.w	r2, r2, #12582912	; 0xc00000
 800305a:	64c2      	str	r2, [r0, #76]	; 0x4c
 800305c:	f8d3 2094 	ldr.w	r2, [r3, #148]	; 0x94
 8003060:	f002 6200 	and.w	r2, r2, #134217728	; 0x8000000
 8003064:	6542      	str	r2, [r0, #84]	; 0x54
 8003066:	f8d3 2094 	ldr.w	r2, [r3, #148]	; 0x94
 800306a:	f002 5280 	and.w	r2, r2, #268435456	; 0x10000000
 800306e:	6442      	str	r2, [r0, #68]	; 0x44
 8003070:	f8d3 2094 	ldr.w	r2, [r3, #148]	; 0x94
 8003074:	f002 5200 	and.w	r2, r2, #536870912	; 0x20000000
 8003078:	6502      	str	r2, [r0, #80]	; 0x50
 800307a:	f8d3 308c 	ldr.w	r3, [r3, #140]	; 0x8c
 800307e:	f3c3 6300 	ubfx	r3, r3, #24, #1
 8003082:	f880 3058 	strb.w	r3, [r0, #88]	; 0x58
 8003086:	4770      	bx	lr

08003088 <HAL_RCCEx_GetPeriphCLKFreq>:
 8003088:	3801      	subs	r0, #1
 800308a:	2807      	cmp	r0, #7
 800308c:	d81e      	bhi.n	80030cc <HAL_RCCEx_GetPeriphCLKFreq+0x44>
 800308e:	e8df f000 	tbb	[pc, r0]
 8003092:	1f37      	.short	0x1f37
 8003094:	1d1d041d 	.word	0x1d1d041d
 8003098:	041d      	.short	0x041d
 800309a:	f44f 5260 	mov.w	r2, #14336	; 0x3800
 800309e:	f2c4 0202 	movt	r2, #16386	; 0x4002
 80030a2:	f8d2 308c 	ldr.w	r3, [r2, #140]	; 0x8c
 80030a6:	f403 0370 	and.w	r3, r3, #15728640	; 0xf00000
 80030aa:	f5b3 1f40 	cmp.w	r3, #3145728	; 0x300000
 80030ae:	f000 811f 	beq.w	80032f0 <HAL_RCCEx_GetPeriphCLKFreq+0x268>
 80030b2:	d93c      	bls.n	800312e <HAL_RCCEx_GetPeriphCLKFreq+0xa6>
 80030b4:	f5b3 0f00 	cmp.w	r3, #8388608	; 0x800000
 80030b8:	f000 80c9 	beq.w	800324e <HAL_RCCEx_GetPeriphCLKFreq+0x1c6>
 80030bc:	f5b3 0f40 	cmp.w	r3, #12582912	; 0xc00000
 80030c0:	f000 80b7 	beq.w	8003232 <HAL_RCCEx_GetPeriphCLKFreq+0x1aa>
 80030c4:	f5b3 0f80 	cmp.w	r3, #4194304	; 0x400000
 80030c8:	f000 80e0 	beq.w	800328c <HAL_RCCEx_GetPeriphCLKFreq+0x204>
 80030cc:	2000      	movs	r0, #0
 80030ce:	4770      	bx	lr
 80030d0:	f44f 5260 	mov.w	r2, #14336	; 0x3800
 80030d4:	f2c4 0202 	movt	r2, #16386	; 0x4002
 80030d8:	f8d2 308c 	ldr.w	r3, [r2, #140]	; 0x8c
 80030dc:	f003 53c0 	and.w	r3, r3, #402653184	; 0x18000000
 80030e0:	f1b3 5f80 	cmp.w	r3, #268435456	; 0x10000000
 80030e4:	f000 8089 	beq.w	80031fa <HAL_RCCEx_GetPeriphCLKFreq+0x172>
 80030e8:	d863      	bhi.n	80031b2 <HAL_RCCEx_GetPeriphCLKFreq+0x12a>
 80030ea:	2b00      	cmp	r3, #0
 80030ec:	d065      	beq.n	80031ba <HAL_RCCEx_GetPeriphCLKFreq+0x132>
 80030ee:	f1b3 6f00 	cmp.w	r3, #134217728	; 0x8000000
 80030f2:	f44f 4000 	mov.w	r0, #32768	; 0x8000
 80030f6:	f2c0 00bb 	movt	r0, #187	; 0xbb
 80030fa:	bf18      	it	ne
 80030fc:	2000      	movne	r0, #0
 80030fe:	4770      	bx	lr
 8003100:	f44f 5260 	mov.w	r2, #14336	; 0x3800
 8003104:	f2c4 0202 	movt	r2, #16386	; 0x4002
 8003108:	f8d2 308c 	ldr.w	r3, [r2, #140]	; 0x8c
 800310c:	f003 63c0 	and.w	r3, r3, #100663296	; 0x6000000
 8003110:	f1b3 6f80 	cmp.w	r3, #67108864	; 0x4000000
 8003114:	d071      	beq.n	80031fa <HAL_RCCEx_GetPeriphCLKFreq+0x172>
 8003116:	d83b      	bhi.n	8003190 <HAL_RCCEx_GetPeriphCLKFreq+0x108>
 8003118:	2b00      	cmp	r3, #0
 800311a:	d04e      	beq.n	80031ba <HAL_RCCEx_GetPeriphCLKFreq+0x132>
 800311c:	f1b3 7f00 	cmp.w	r3, #33554432	; 0x2000000
 8003120:	f44f 4000 	mov.w	r0, #32768	; 0x8000
 8003124:	f2c0 00bb 	movt	r0, #187	; 0xbb
 8003128:	bf18      	it	ne
 800312a:	2000      	movne	r0, #0
 800312c:	4770      	bx	lr
 800312e:	f5b3 1f80 	cmp.w	r3, #1048576	; 0x100000
 8003132:	f000 80ab 	beq.w	800328c <HAL_RCCEx_GetPeriphCLKFreq+0x204>
 8003136:	f5b3 1f00 	cmp.w	r3, #2097152	; 0x200000
 800313a:	f000 8088 	beq.w	800324e <HAL_RCCEx_GetPeriphCLKFreq+0x1c6>
 800313e:	2b00      	cmp	r3, #0
 8003140:	d1c4      	bne.n	80030cc <HAL_RCCEx_GetPeriphCLKFreq+0x44>
 8003142:	6853      	ldr	r3, [r2, #4]
 8003144:	f413 0f80 	tst.w	r3, #4194304	; 0x400000
 8003148:	f8d2 3088 	ldr.w	r3, [r2, #136]	; 0x88
 800314c:	f040 80de 	bne.w	800330c <HAL_RCCEx_GetPeriphCLKFreq+0x284>
 8003150:	f44f 5010 	mov.w	r0, #9216	; 0x2400
 8003154:	f003 033f 	and.w	r3, r3, #63	; 0x3f
 8003158:	f2c0 00f4 	movt	r0, #244	; 0xf4
 800315c:	fbb0 f0f3 	udiv	r0, r0, r3
 8003160:	f44f 5360 	mov.w	r3, #14336	; 0x3800
 8003164:	f2c4 0302 	movt	r3, #16386	; 0x4002
 8003168:	f8d3 2088 	ldr.w	r2, [r3, #136]	; 0x88
 800316c:	f8d3 1088 	ldr.w	r1, [r3, #136]	; 0x88
 8003170:	f8d3 308c 	ldr.w	r3, [r3, #140]	; 0x8c
 8003174:	f3c1 1188 	ubfx	r1, r1, #6, #9
 8003178:	f3c3 2304 	ubfx	r3, r3, #8, #5
 800317c:	f3c2 6203 	ubfx	r2, r2, #24, #4
 8003180:	fb00 f001 	mul.w	r0, r0, r1
 8003184:	3301      	adds	r3, #1
 8003186:	fbb0 f0f2 	udiv	r0, r0, r2
 800318a:	fbb0 f0f3 	udiv	r0, r0, r3
 800318e:	4770      	bx	lr
 8003190:	f1b3 6fc0 	cmp.w	r3, #100663296	; 0x6000000
 8003194:	d19a      	bne.n	80030cc <HAL_RCCEx_GetPeriphCLKFreq+0x44>
 8003196:	6852      	ldr	r2, [r2, #4]
 8003198:	f44f 5390 	mov.w	r3, #4608	; 0x1200
 800319c:	f412 0f80 	tst.w	r2, #4194304	; 0x400000
 80031a0:	f2c0 037a 	movt	r3, #122	; 0x7a
 80031a4:	f44f 5010 	mov.w	r0, #9216	; 0x2400
 80031a8:	f2c0 00f4 	movt	r0, #244	; 0xf4
 80031ac:	bf18      	it	ne
 80031ae:	4618      	movne	r0, r3
 80031b0:	4770      	bx	lr
 80031b2:	f1b3 5fc0 	cmp.w	r3, #402653184	; 0x18000000
 80031b6:	d0ee      	beq.n	8003196 <HAL_RCCEx_GetPeriphCLKFreq+0x10e>
 80031b8:	e788      	b.n	80030cc <HAL_RCCEx_GetPeriphCLKFreq+0x44>
 80031ba:	6853      	ldr	r3, [r2, #4]
 80031bc:	f413 0f80 	tst.w	r3, #4194304	; 0x400000
 80031c0:	f8d2 3084 	ldr.w	r3, [r2, #132]	; 0x84
 80031c4:	f000 8082 	beq.w	80032cc <HAL_RCCEx_GetPeriphCLKFreq+0x244>
 80031c8:	f44f 5090 	mov.w	r0, #4608	; 0x1200
 80031cc:	f003 033f 	and.w	r3, r3, #63	; 0x3f
 80031d0:	f2c0 007a 	movt	r0, #122	; 0x7a
 80031d4:	fbb0 f0f3 	udiv	r0, r0, r3
 80031d8:	f44f 5360 	mov.w	r3, #14336	; 0x3800
 80031dc:	f2c4 0302 	movt	r3, #16386	; 0x4002
 80031e0:	f8d3 2084 	ldr.w	r2, [r3, #132]	; 0x84
 80031e4:	f8d3 3084 	ldr.w	r3, [r3, #132]	; 0x84
 80031e8:	f3c2 1288 	ubfx	r2, r2, #6, #9
 80031ec:	fb00 f002 	mul.w	r0, r0, r2
 80031f0:	f3c3 7302 	ubfx	r3, r3, #28, #3
 80031f4:	fbb0 f0f3 	udiv	r0, r0, r3
 80031f8:	4770      	bx	lr
 80031fa:	6853      	ldr	r3, [r2, #4]
 80031fc:	f413 0f80 	tst.w	r3, #4194304	; 0x400000
 8003200:	6853      	ldr	r3, [r2, #4]
 8003202:	d06c      	beq.n	80032de <HAL_RCCEx_GetPeriphCLKFreq+0x256>
 8003204:	f44f 5090 	mov.w	r0, #4608	; 0x1200
 8003208:	f003 033f 	and.w	r3, r3, #63	; 0x3f
 800320c:	f2c0 007a 	movt	r0, #122	; 0x7a
 8003210:	fbb0 f0f3 	udiv	r0, r0, r3
 8003214:	f44f 5360 	mov.w	r3, #14336	; 0x3800
 8003218:	f2c4 0302 	movt	r3, #16386	; 0x4002
 800321c:	685a      	ldr	r2, [r3, #4]
 800321e:	685b      	ldr	r3, [r3, #4]
 8003220:	f3c2 1288 	ubfx	r2, r2, #6, #9
 8003224:	fb00 f002 	mul.w	r0, r0, r2
 8003228:	f3c3 7302 	ubfx	r3, r3, #28, #3
 800322c:	fbb0 f0f3 	udiv	r0, r0, r3
 8003230:	4770      	bx	lr
 8003232:	6852      	ldr	r2, [r2, #4]
 8003234:	f44f 5310 	mov.w	r3, #9216	; 0x2400
 8003238:	f412 0f80 	tst.w	r2, #4194304	; 0x400000
 800323c:	f2c0 03f4 	movt	r3, #244	; 0xf4
 8003240:	f44f 5090 	mov.w	r0, #4608	; 0x1200
 8003244:	f2c0 007a 	movt	r0, #122	; 0x7a
 8003248:	bf08      	it	eq
 800324a:	4618      	moveq	r0, r3
 800324c:	4770      	bx	lr
 800324e:	f44f 5360 	mov.w	r3, #14336	; 0x3800
 8003252:	f2c4 0302 	movt	r3, #16386	; 0x4002
 8003256:	685a      	ldr	r2, [r3, #4]
 8003258:	685b      	ldr	r3, [r3, #4]
 800325a:	0252      	lsls	r2, r2, #9
 800325c:	d45f      	bmi.n	800331e <HAL_RCCEx_GetPeriphCLKFreq+0x296>
 800325e:	f44f 5010 	mov.w	r0, #9216	; 0x2400
 8003262:	f003 033f 	and.w	r3, r3, #63	; 0x3f
 8003266:	f2c0 00f4 	movt	r0, #244	; 0xf4
 800326a:	fbb0 f0f3 	udiv	r0, r0, r3
 800326e:	f44f 5260 	mov.w	r2, #14336	; 0x3800
 8003272:	f2c4 0202 	movt	r2, #16386	; 0x4002
 8003276:	6853      	ldr	r3, [r2, #4]
 8003278:	6852      	ldr	r2, [r2, #4]
 800327a:	f3c2 1288 	ubfx	r2, r2, #6, #9
 800327e:	fb00 f002 	mul.w	r0, r0, r2
 8003282:	f3c3 7302 	ubfx	r3, r3, #28, #3
 8003286:	fbb0 f0f3 	udiv	r0, r0, r3
 800328a:	4770      	bx	lr
 800328c:	f44f 5360 	mov.w	r3, #14336	; 0x3800
 8003290:	f2c4 0302 	movt	r3, #16386	; 0x4002
 8003294:	685a      	ldr	r2, [r3, #4]
 8003296:	f8d3 3084 	ldr.w	r3, [r3, #132]	; 0x84
 800329a:	0251      	lsls	r1, r2, #9
 800329c:	d42d      	bmi.n	80032fa <HAL_RCCEx_GetPeriphCLKFreq+0x272>
 800329e:	f44f 5010 	mov.w	r0, #9216	; 0x2400
 80032a2:	f003 033f 	and.w	r3, r3, #63	; 0x3f
 80032a6:	f2c0 00f4 	movt	r0, #244	; 0xf4
 80032aa:	fbb0 f0f3 	udiv	r0, r0, r3
 80032ae:	f44f 5360 	mov.w	r3, #14336	; 0x3800
 80032b2:	f2c4 0302 	movt	r3, #16386	; 0x4002
 80032b6:	f8d3 2084 	ldr.w	r2, [r3, #132]	; 0x84
 80032ba:	f8d3 1084 	ldr.w	r1, [r3, #132]	; 0x84
 80032be:	f8d3 308c 	ldr.w	r3, [r3, #140]	; 0x8c
 80032c2:	f3c1 1188 	ubfx	r1, r1, #6, #9
 80032c6:	f003 031f 	and.w	r3, r3, #31
 80032ca:	e757      	b.n	800317c <HAL_RCCEx_GetPeriphCLKFreq+0xf4>
 80032cc:	f44f 5010 	mov.w	r0, #9216	; 0x2400
 80032d0:	f003 033f 	and.w	r3, r3, #63	; 0x3f
 80032d4:	f2c0 00f4 	movt	r0, #244	; 0xf4
 80032d8:	fbb0 f0f3 	udiv	r0, r0, r3
 80032dc:	e77c      	b.n	80031d8 <HAL_RCCEx_GetPeriphCLKFreq+0x150>
 80032de:	f44f 5010 	mov.w	r0, #9216	; 0x2400
 80032e2:	f003 033f 	and.w	r3, r3, #63	; 0x3f
 80032e6:	f2c0 00f4 	movt	r0, #244	; 0xf4
 80032ea:	fbb0 f0f3 	udiv	r0, r0, r3
 80032ee:	e791      	b.n	8003214 <HAL_RCCEx_GetPeriphCLKFreq+0x18c>
 80032f0:	f44f 4000 	mov.w	r0, #32768	; 0x8000
 80032f4:	f2c0 00bb 	movt	r0, #187	; 0xbb
 80032f8:	4770      	bx	lr
 80032fa:	f44f 5090 	mov.w	r0, #4608	; 0x1200
 80032fe:	f003 033f 	and.w	r3, r3, #63	; 0x3f
 8003302:	f2c0 007a 	movt	r0, #122	; 0x7a
 8003306:	fbb0 f0f3 	udiv	r0, r0, r3
 800330a:	e7d0      	b.n	80032ae <HAL_RCCEx_GetPeriphCLKFreq+0x226>
 800330c:	f44f 5090 	mov.w	r0, #4608	; 0x1200
 8003310:	f003 033f 	and.w	r3, r3, #63	; 0x3f
 8003314:	f2c0 007a 	movt	r0, #122	; 0x7a
 8003318:	fbb0 f0f3 	udiv	r0, r0, r3
 800331c:	e720      	b.n	8003160 <HAL_RCCEx_GetPeriphCLKFreq+0xd8>
 800331e:	f44f 5090 	mov.w	r0, #4608	; 0x1200
 8003322:	f003 033f 	and.w	r3, r3, #63	; 0x3f
 8003326:	f2c0 007a 	movt	r0, #122	; 0x7a
 800332a:	fbb0 f0f3 	udiv	r0, r0, r3
 800332e:	e79e      	b.n	800326e <HAL_RCCEx_GetPeriphCLKFreq+0x1e6>

08003330 <HAL_RCCEx_SelectLSEMode>:
 8003330:	f44f 5360 	mov.w	r3, #14336	; 0x3800
 8003334:	f2c4 0302 	movt	r3, #16386	; 0x4002
 8003338:	2801      	cmp	r0, #1
 800333a:	6f1a      	ldr	r2, [r3, #112]	; 0x70
 800333c:	bf0c      	ite	eq
 800333e:	f042 0208 	orreq.w	r2, r2, #8
 8003342:	f022 0208 	bicne.w	r2, r2, #8
 8003346:	671a      	str	r2, [r3, #112]	; 0x70
 8003348:	4770      	bx	lr
 800334a:	bf00      	nop

0800334c <HAL_RCCEx_EnablePLLI2S>:
 800334c:	2368      	movs	r3, #104	; 0x68
 800334e:	f2c4 2347 	movt	r3, #16967	; 0x4247
 8003352:	2200      	movs	r2, #0
 8003354:	b570      	push	{r4, r5, r6, lr}
 8003356:	601a      	str	r2, [r3, #0]
 8003358:	4606      	mov	r6, r0
 800335a:	f7fd fec9 	bl	80010f0 <HAL_GetTick>
 800335e:	f44f 5460 	mov.w	r4, #14336	; 0x3800
 8003362:	4605      	mov	r5, r0
 8003364:	f2c4 0402 	movt	r4, #16386	; 0x4002
 8003368:	e004      	b.n	8003374 <HAL_RCCEx_EnablePLLI2S+0x28>
 800336a:	f7fd fec1 	bl	80010f0 <HAL_GetTick>
 800336e:	1b43      	subs	r3, r0, r5
 8003370:	2b02      	cmp	r3, #2
 8003372:	d82a      	bhi.n	80033ca <HAL_RCCEx_EnablePLLI2S+0x7e>
 8003374:	6823      	ldr	r3, [r4, #0]
 8003376:	011a      	lsls	r2, r3, #4
 8003378:	d4f7      	bmi.n	800336a <HAL_RCCEx_EnablePLLI2S+0x1e>
 800337a:	e9d6 1500 	ldrd	r1, r5, [r6]
 800337e:	68f3      	ldr	r3, [r6, #12]
 8003380:	68b2      	ldr	r2, [r6, #8]
 8003382:	6930      	ldr	r0, [r6, #16]
 8003384:	061b      	lsls	r3, r3, #24
 8003386:	ea43 1385 	orr.w	r3, r3, r5, lsl #6
 800338a:	430b      	orrs	r3, r1
 800338c:	0852      	lsrs	r2, r2, #1
 800338e:	2168      	movs	r1, #104	; 0x68
 8003390:	ea43 7300 	orr.w	r3, r3, r0, lsl #28
 8003394:	3a01      	subs	r2, #1
 8003396:	f2c4 2147 	movt	r1, #16967	; 0x4247
 800339a:	ea43 4302 	orr.w	r3, r3, r2, lsl #16
 800339e:	2201      	movs	r2, #1
 80033a0:	f8c4 3084 	str.w	r3, [r4, #132]	; 0x84
 80033a4:	600a      	str	r2, [r1, #0]
 80033a6:	f7fd fea3 	bl	80010f0 <HAL_GetTick>
 80033aa:	f44f 5560 	mov.w	r5, #14336	; 0x3800
 80033ae:	4604      	mov	r4, r0
 80033b0:	f2c4 0502 	movt	r5, #16386	; 0x4002
 80033b4:	e004      	b.n	80033c0 <HAL_RCCEx_EnablePLLI2S+0x74>
 80033b6:	f7fd fe9b 	bl	80010f0 <HAL_GetTick>
 80033ba:	1b00      	subs	r0, r0, r4
 80033bc:	2802      	cmp	r0, #2
 80033be:	d804      	bhi.n	80033ca <HAL_RCCEx_EnablePLLI2S+0x7e>
 80033c0:	682b      	ldr	r3, [r5, #0]
 80033c2:	011b      	lsls	r3, r3, #4
 80033c4:	d5f7      	bpl.n	80033b6 <HAL_RCCEx_EnablePLLI2S+0x6a>
 80033c6:	2000      	movs	r0, #0
 80033c8:	bd70      	pop	{r4, r5, r6, pc}
 80033ca:	2003      	movs	r0, #3
 80033cc:	bd70      	pop	{r4, r5, r6, pc}
 80033ce:	bf00      	nop

080033d0 <HAL_RCCEx_DisablePLLI2S>:
 80033d0:	b538      	push	{r3, r4, r5, lr}
 80033d2:	2368      	movs	r3, #104	; 0x68
 80033d4:	f2c4 2347 	movt	r3, #16967	; 0x4247
 80033d8:	2200      	movs	r2, #0
 80033da:	601a      	str	r2, [r3, #0]
 80033dc:	f7fd fe88 	bl	80010f0 <HAL_GetTick>
 80033e0:	f44f 5560 	mov.w	r5, #14336	; 0x3800
 80033e4:	4604      	mov	r4, r0
 80033e6:	f2c4 0502 	movt	r5, #16386	; 0x4002
 80033ea:	e004      	b.n	80033f6 <HAL_RCCEx_DisablePLLI2S+0x26>
 80033ec:	f7fd fe80 	bl	80010f0 <HAL_GetTick>
 80033f0:	1b00      	subs	r0, r0, r4
 80033f2:	2802      	cmp	r0, #2
 80033f4:	d805      	bhi.n	8003402 <HAL_RCCEx_DisablePLLI2S+0x32>
 80033f6:	682b      	ldr	r3, [r5, #0]
 80033f8:	f013 6300 	ands.w	r3, r3, #134217728	; 0x8000000
 80033fc:	d1f6      	bne.n	80033ec <HAL_RCCEx_DisablePLLI2S+0x1c>
 80033fe:	4618      	mov	r0, r3
 8003400:	bd38      	pop	{r3, r4, r5, pc}
 8003402:	2003      	movs	r0, #3
 8003404:	bd38      	pop	{r3, r4, r5, pc}
 8003406:	bf00      	nop

08003408 <HAL_RCCEx_EnablePLLSAI>:
 8003408:	2370      	movs	r3, #112	; 0x70
 800340a:	f2c4 2347 	movt	r3, #16967	; 0x4247
 800340e:	2200      	movs	r2, #0
 8003410:	b570      	push	{r4, r5, r6, lr}
 8003412:	601a      	str	r2, [r3, #0]
 8003414:	4606      	mov	r6, r0
 8003416:	f7fd fe6b 	bl	80010f0 <HAL_GetTick>
 800341a:	f44f 5460 	mov.w	r4, #14336	; 0x3800
 800341e:	4605      	mov	r5, r0
 8003420:	f2c4 0402 	movt	r4, #16386	; 0x4002
 8003424:	e004      	b.n	8003430 <HAL_RCCEx_EnablePLLSAI+0x28>
 8003426:	f7fd fe63 	bl	80010f0 <HAL_GetTick>
 800342a:	1b43      	subs	r3, r0, r5
 800342c:	2b02      	cmp	r3, #2
 800342e:	d825      	bhi.n	800347c <HAL_RCCEx_EnablePLLSAI+0x74>
 8003430:	6823      	ldr	r3, [r4, #0]
 8003432:	009a      	lsls	r2, r3, #2
 8003434:	d4f7      	bmi.n	8003426 <HAL_RCCEx_EnablePLLSAI+0x1e>
 8003436:	e896 000f 	ldmia.w	r6, {r0, r1, r2, r3}
 800343a:	061b      	lsls	r3, r3, #24
 800343c:	ea43 1381 	orr.w	r3, r3, r1, lsl #6
 8003440:	0852      	lsrs	r2, r2, #1
 8003442:	2170      	movs	r1, #112	; 0x70
 8003444:	4303      	orrs	r3, r0
 8003446:	3a01      	subs	r2, #1
 8003448:	f2c4 2147 	movt	r1, #16967	; 0x4247
 800344c:	ea43 4302 	orr.w	r3, r3, r2, lsl #16
 8003450:	2201      	movs	r2, #1
 8003452:	f8c4 3088 	str.w	r3, [r4, #136]	; 0x88
 8003456:	600a      	str	r2, [r1, #0]
 8003458:	f7fd fe4a 	bl	80010f0 <HAL_GetTick>
 800345c:	f44f 5560 	mov.w	r5, #14336	; 0x3800
 8003460:	4604      	mov	r4, r0
 8003462:	f2c4 0502 	movt	r5, #16386	; 0x4002
 8003466:	e004      	b.n	8003472 <HAL_RCCEx_EnablePLLSAI+0x6a>
 8003468:	f7fd fe42 	bl	80010f0 <HAL_GetTick>
 800346c:	1b00      	subs	r0, r0, r4
 800346e:	2802      	cmp	r0, #2
 8003470:	d804      	bhi.n	800347c <HAL_RCCEx_EnablePLLSAI+0x74>
 8003472:	682b      	ldr	r3, [r5, #0]
 8003474:	009b      	lsls	r3, r3, #2
 8003476:	d5f7      	bpl.n	8003468 <HAL_RCCEx_EnablePLLSAI+0x60>
 8003478:	2000      	movs	r0, #0
 800347a:	bd70      	pop	{r4, r5, r6, pc}
 800347c:	2003      	movs	r0, #3
 800347e:	bd70      	pop	{r4, r5, r6, pc}

08003480 <HAL_RCCEx_DisablePLLSAI>:
 8003480:	b538      	push	{r3, r4, r5, lr}
 8003482:	2370      	movs	r3, #112	; 0x70
 8003484:	f2c4 2347 	movt	r3, #16967	; 0x4247
 8003488:	2200      	movs	r2, #0
 800348a:	601a      	str	r2, [r3, #0]
 800348c:	f7fd fe30 	bl	80010f0 <HAL_GetTick>
 8003490:	f44f 5560 	mov.w	r5, #14336	; 0x3800
 8003494:	4604      	mov	r4, r0
 8003496:	f2c4 0502 	movt	r5, #16386	; 0x4002
 800349a:	e004      	b.n	80034a6 <HAL_RCCEx_DisablePLLSAI+0x26>
 800349c:	f7fd fe28 	bl	80010f0 <HAL_GetTick>
 80034a0:	1b00      	subs	r0, r0, r4
 80034a2:	2802      	cmp	r0, #2
 80034a4:	d805      	bhi.n	80034b2 <HAL_RCCEx_DisablePLLSAI+0x32>
 80034a6:	682b      	ldr	r3, [r5, #0]
 80034a8:	f013 5300 	ands.w	r3, r3, #536870912	; 0x20000000
 80034ac:	d1f6      	bne.n	800349c <HAL_RCCEx_DisablePLLSAI+0x1c>
 80034ae:	4618      	mov	r0, r3
 80034b0:	bd38      	pop	{r3, r4, r5, pc}
 80034b2:	2003      	movs	r0, #3
 80034b4:	bd38      	pop	{r3, r4, r5, pc}
 80034b6:	bf00      	nop

080034b8 <HAL_RCC_GetSysClockFreq>:
 80034b8:	f44f 5160 	mov.w	r1, #14336	; 0x3800
 80034bc:	f2c4 0102 	movt	r1, #16386	; 0x4002
 80034c0:	b508      	push	{r3, lr}
 80034c2:	6888      	ldr	r0, [r1, #8]
 80034c4:	f000 000c 	and.w	r0, r0, #12
 80034c8:	2808      	cmp	r0, #8
 80034ca:	d00e      	beq.n	80034ea <HAL_RCC_GetSysClockFreq+0x32>
 80034cc:	280c      	cmp	r0, #12
 80034ce:	d02a      	beq.n	8003526 <HAL_RCC_GetSysClockFreq+0x6e>
 80034d0:	f44f 5310 	mov.w	r3, #9216	; 0x2400
 80034d4:	f44f 5290 	mov.w	r2, #4608	; 0x1200
 80034d8:	f2c0 03f4 	movt	r3, #244	; 0xf4
 80034dc:	f2c0 027a 	movt	r2, #122	; 0x7a
 80034e0:	2804      	cmp	r0, #4
 80034e2:	bf14      	ite	ne
 80034e4:	4618      	movne	r0, r3
 80034e6:	4610      	moveq	r0, r2
 80034e8:	bd08      	pop	{r3, pc}
 80034ea:	684a      	ldr	r2, [r1, #4]
 80034ec:	684b      	ldr	r3, [r1, #4]
 80034ee:	f413 0380 	ands.w	r3, r3, #4194304	; 0x400000
 80034f2:	f002 023f 	and.w	r2, r2, #63	; 0x3f
 80034f6:	d13f      	bne.n	8003578 <HAL_RCC_GetSysClockFreq+0xc0>
 80034f8:	6849      	ldr	r1, [r1, #4]
 80034fa:	f44f 5010 	mov.w	r0, #9216	; 0x2400
 80034fe:	f3c1 1188 	ubfx	r1, r1, #6, #9
 8003502:	f2c0 00f4 	movt	r0, #244	; 0xf4
 8003506:	fba1 0100 	umull	r0, r1, r1, r0
 800350a:	f007 fee1 	bl	800b2d0 <__aeabi_uldivmod>
 800350e:	f44f 5360 	mov.w	r3, #14336	; 0x3800
 8003512:	f2c4 0302 	movt	r3, #16386	; 0x4002
 8003516:	685b      	ldr	r3, [r3, #4]
 8003518:	f3c3 4301 	ubfx	r3, r3, #16, #2
 800351c:	3301      	adds	r3, #1
 800351e:	005b      	lsls	r3, r3, #1
 8003520:	fbb0 f0f3 	udiv	r0, r0, r3
 8003524:	bd08      	pop	{r3, pc}
 8003526:	684a      	ldr	r2, [r1, #4]
 8003528:	684b      	ldr	r3, [r1, #4]
 800352a:	f413 0380 	ands.w	r3, r3, #4194304	; 0x400000
 800352e:	f002 023f 	and.w	r2, r2, #63	; 0x3f
 8003532:	d114      	bne.n	800355e <HAL_RCC_GetSysClockFreq+0xa6>
 8003534:	6849      	ldr	r1, [r1, #4]
 8003536:	f44f 5010 	mov.w	r0, #9216	; 0x2400
 800353a:	f3c1 1188 	ubfx	r1, r1, #6, #9
 800353e:	f2c0 00f4 	movt	r0, #244	; 0xf4
 8003542:	fba1 0100 	umull	r0, r1, r1, r0
 8003546:	f007 fec3 	bl	800b2d0 <__aeabi_uldivmod>
 800354a:	f44f 5360 	mov.w	r3, #14336	; 0x3800
 800354e:	f2c4 0302 	movt	r3, #16386	; 0x4002
 8003552:	685b      	ldr	r3, [r3, #4]
 8003554:	f3c3 7302 	ubfx	r3, r3, #28, #3
 8003558:	fbb0 f0f3 	udiv	r0, r0, r3
 800355c:	bd08      	pop	{r3, pc}
 800355e:	684b      	ldr	r3, [r1, #4]
 8003560:	f44f 5090 	mov.w	r0, #4608	; 0x1200
 8003564:	f3c3 1388 	ubfx	r3, r3, #6, #9
 8003568:	f2c0 007a 	movt	r0, #122	; 0x7a
 800356c:	fba3 0100 	umull	r0, r1, r3, r0
 8003570:	2300      	movs	r3, #0
 8003572:	f007 fead 	bl	800b2d0 <__aeabi_uldivmod>
 8003576:	e7e8      	b.n	800354a <HAL_RCC_GetSysClockFreq+0x92>
 8003578:	684b      	ldr	r3, [r1, #4]
 800357a:	f44f 5090 	mov.w	r0, #4608	; 0x1200
 800357e:	f3c3 1388 	ubfx	r3, r3, #6, #9
 8003582:	f2c0 007a 	movt	r0, #122	; 0x7a
 8003586:	fba3 0100 	umull	r0, r1, r3, r0
 800358a:	2300      	movs	r3, #0
 800358c:	f007 fea0 	bl	800b2d0 <__aeabi_uldivmod>
 8003590:	e7bd      	b.n	800350e <HAL_RCC_GetSysClockFreq+0x56>
 8003592:	bf00      	nop

08003594 <HAL_RCC_DeInit>:
 8003594:	b570      	push	{r4, r5, r6, lr}
 8003596:	f44f 5460 	mov.w	r4, #14336	; 0x3800
 800359a:	f2c4 0402 	movt	r4, #16386	; 0x4002
 800359e:	f7fd fda7 	bl	80010f0 <HAL_GetTick>
 80035a2:	6823      	ldr	r3, [r4, #0]
 80035a4:	f043 0301 	orr.w	r3, r3, #1
 80035a8:	4605      	mov	r5, r0
 80035aa:	6023      	str	r3, [r4, #0]
 80035ac:	e005      	b.n	80035ba <HAL_RCC_DeInit+0x26>
 80035ae:	f7fd fd9f 	bl	80010f0 <HAL_GetTick>
 80035b2:	1b40      	subs	r0, r0, r5
 80035b4:	2802      	cmp	r0, #2
 80035b6:	f200 80ad 	bhi.w	8003714 <HAL_RCC_DeInit+0x180>
 80035ba:	6823      	ldr	r3, [r4, #0]
 80035bc:	079e      	lsls	r6, r3, #30
 80035be:	d5f6      	bpl.n	80035ae <HAL_RCC_DeInit+0x1a>
 80035c0:	6823      	ldr	r3, [r4, #0]
 80035c2:	f043 0380 	orr.w	r3, r3, #128	; 0x80
 80035c6:	6023      	str	r3, [r4, #0]
 80035c8:	f7fd fd92 	bl	80010f0 <HAL_GetTick>
 80035cc:	f44f 5660 	mov.w	r6, #14336	; 0x3800
 80035d0:	2300      	movs	r3, #0
 80035d2:	60a3      	str	r3, [r4, #8]
 80035d4:	4605      	mov	r5, r0
 80035d6:	f2c4 0602 	movt	r6, #16386	; 0x4002
 80035da:	f241 3488 	movw	r4, #5000	; 0x1388
 80035de:	e005      	b.n	80035ec <HAL_RCC_DeInit+0x58>
 80035e0:	f7fd fd86 	bl	80010f0 <HAL_GetTick>
 80035e4:	1b40      	subs	r0, r0, r5
 80035e6:	42a0      	cmp	r0, r4
 80035e8:	f200 8094 	bhi.w	8003714 <HAL_RCC_DeInit+0x180>
 80035ec:	68b3      	ldr	r3, [r6, #8]
 80035ee:	f013 0f0c 	tst.w	r3, #12
 80035f2:	d1f5      	bne.n	80035e0 <HAL_RCC_DeInit+0x4c>
 80035f4:	f7fd fd7c 	bl	80010f0 <HAL_GetTick>
 80035f8:	6833      	ldr	r3, [r6, #0]
 80035fa:	f44f 5460 	mov.w	r4, #14336	; 0x3800
 80035fe:	f423 2350 	bic.w	r3, r3, #851968	; 0xd0000
 8003602:	4605      	mov	r5, r0
 8003604:	6033      	str	r3, [r6, #0]
 8003606:	f2c4 0402 	movt	r4, #16386	; 0x4002
 800360a:	e004      	b.n	8003616 <HAL_RCC_DeInit+0x82>
 800360c:	f7fd fd70 	bl	80010f0 <HAL_GetTick>
 8003610:	1b40      	subs	r0, r0, r5
 8003612:	2864      	cmp	r0, #100	; 0x64
 8003614:	d87e      	bhi.n	8003714 <HAL_RCC_DeInit+0x180>
 8003616:	6823      	ldr	r3, [r4, #0]
 8003618:	0398      	lsls	r0, r3, #14
 800361a:	d4f7      	bmi.n	800360c <HAL_RCC_DeInit+0x78>
 800361c:	f7fd fd68 	bl	80010f0 <HAL_GetTick>
 8003620:	6823      	ldr	r3, [r4, #0]
 8003622:	f44f 5560 	mov.w	r5, #14336	; 0x3800
 8003626:	f023 7380 	bic.w	r3, r3, #16777216	; 0x1000000
 800362a:	4606      	mov	r6, r0
 800362c:	6023      	str	r3, [r4, #0]
 800362e:	f2c4 0502 	movt	r5, #16386	; 0x4002
 8003632:	e004      	b.n	800363e <HAL_RCC_DeInit+0xaa>
 8003634:	f7fd fd5c 	bl	80010f0 <HAL_GetTick>
 8003638:	1b80      	subs	r0, r0, r6
 800363a:	2802      	cmp	r0, #2
 800363c:	d86a      	bhi.n	8003714 <HAL_RCC_DeInit+0x180>
 800363e:	682b      	ldr	r3, [r5, #0]
 8003640:	0199      	lsls	r1, r3, #6
 8003642:	d4f7      	bmi.n	8003634 <HAL_RCC_DeInit+0xa0>
 8003644:	f7fd fd54 	bl	80010f0 <HAL_GetTick>
 8003648:	682b      	ldr	r3, [r5, #0]
 800364a:	f44f 5460 	mov.w	r4, #14336	; 0x3800
 800364e:	f023 6380 	bic.w	r3, r3, #67108864	; 0x4000000
 8003652:	4606      	mov	r6, r0
 8003654:	602b      	str	r3, [r5, #0]
 8003656:	f2c4 0402 	movt	r4, #16386	; 0x4002
 800365a:	e004      	b.n	8003666 <HAL_RCC_DeInit+0xd2>
 800365c:	f7fd fd48 	bl	80010f0 <HAL_GetTick>
 8003660:	1b80      	subs	r0, r0, r6
 8003662:	2802      	cmp	r0, #2
 8003664:	d856      	bhi.n	8003714 <HAL_RCC_DeInit+0x180>
 8003666:	6823      	ldr	r3, [r4, #0]
 8003668:	011a      	lsls	r2, r3, #4
 800366a:	d4f7      	bmi.n	800365c <HAL_RCC_DeInit+0xc8>
 800366c:	f7fd fd40 	bl	80010f0 <HAL_GetTick>
 8003670:	6823      	ldr	r3, [r4, #0]
 8003672:	f44f 5560 	mov.w	r5, #14336	; 0x3800
 8003676:	f023 5380 	bic.w	r3, r3, #268435456	; 0x10000000
 800367a:	4606      	mov	r6, r0
 800367c:	6023      	str	r3, [r4, #0]
 800367e:	f2c4 0502 	movt	r5, #16386	; 0x4002
 8003682:	e004      	b.n	800368e <HAL_RCC_DeInit+0xfa>
 8003684:	f7fd fd34 	bl	80010f0 <HAL_GetTick>
 8003688:	1b80      	subs	r0, r0, r6
 800368a:	2802      	cmp	r0, #2
 800368c:	d842      	bhi.n	8003714 <HAL_RCC_DeInit+0x180>
 800368e:	682b      	ldr	r3, [r5, #0]
 8003690:	009b      	lsls	r3, r3, #2
 8003692:	d4f7      	bmi.n	8003684 <HAL_RCC_DeInit+0xf0>
 8003694:	f243 0310 	movw	r3, #12304	; 0x3010
 8003698:	461a      	mov	r2, r3
 800369a:	f2c0 4200 	movt	r2, #1024	; 0x400
 800369e:	f2c2 4300 	movt	r3, #9216	; 0x2400
 80036a2:	606b      	str	r3, [r5, #4]
 80036a4:	f8c5 3084 	str.w	r3, [r5, #132]	; 0x84
 80036a8:	f8c5 2088 	str.w	r2, [r5, #136]	; 0x88
 80036ac:	68eb      	ldr	r3, [r5, #12]
 80036ae:	f423 53f8 	bic.w	r3, r3, #7936	; 0x1f00
 80036b2:	60eb      	str	r3, [r5, #12]
 80036b4:	68eb      	ldr	r3, [r5, #12]
 80036b6:	f423 5300 	bic.w	r3, r3, #8192	; 0x2000
 80036ba:	60eb      	str	r3, [r5, #12]
 80036bc:	68eb      	ldr	r3, [r5, #12]
 80036be:	f423 4380 	bic.w	r3, r3, #16384	; 0x4000
 80036c2:	60eb      	str	r3, [r5, #12]
 80036c4:	68eb      	ldr	r3, [r5, #12]
 80036c6:	f443 031f 	orr.w	r3, r3, #10420224	; 0x9f0000
 80036ca:	60eb      	str	r3, [r5, #12]
 80036cc:	68eb      	ldr	r3, [r5, #12]
 80036ce:	f443 1300 	orr.w	r3, r3, #2097152	; 0x200000
 80036d2:	60eb      	str	r3, [r5, #12]
 80036d4:	68eb      	ldr	r3, [r5, #12]
 80036d6:	f443 0380 	orr.w	r3, r3, #4194304	; 0x400000
 80036da:	60eb      	str	r3, [r5, #12]
 80036dc:	6f6b      	ldr	r3, [r5, #116]	; 0x74
 80036de:	f023 0301 	bic.w	r3, r3, #1
 80036e2:	676b      	str	r3, [r5, #116]	; 0x74
 80036e4:	6f69      	ldr	r1, [r5, #116]	; 0x74
 80036e6:	f240 0208 	movw	r2, #8
 80036ea:	f2c2 0200 	movt	r2, #8192	; 0x2000
 80036ee:	f041 7180 	orr.w	r1, r1, #16777216	; 0x1000000
 80036f2:	f240 0300 	movw	r3, #0
 80036f6:	6769      	str	r1, [r5, #116]	; 0x74
 80036f8:	f2c2 0300 	movt	r3, #8192	; 0x2000
 80036fc:	f44f 5110 	mov.w	r1, #9216	; 0x2400
 8003700:	f2c0 01f4 	movt	r1, #244	; 0xf4
 8003704:	6810      	ldr	r0, [r2, #0]
 8003706:	6019      	str	r1, [r3, #0]
 8003708:	f7fd fca4 	bl	8001054 <HAL_InitTick>
 800370c:	3800      	subs	r0, #0
 800370e:	bf18      	it	ne
 8003710:	2001      	movne	r0, #1
 8003712:	bd70      	pop	{r4, r5, r6, pc}
 8003714:	2003      	movs	r0, #3
 8003716:	bd70      	pop	{r4, r5, r6, pc}

08003718 <HAL_RCC_OscConfig>:
 8003718:	2800      	cmp	r0, #0
 800371a:	f000 81f7 	beq.w	8003b0c <HAL_RCC_OscConfig+0x3f4>
 800371e:	e92d 41f0 	stmdb	sp!, {r4, r5, r6, r7, r8, lr}
 8003722:	6803      	ldr	r3, [r0, #0]
 8003724:	07da      	lsls	r2, r3, #31
 8003726:	b082      	sub	sp, #8
 8003728:	4604      	mov	r4, r0
 800372a:	d53f      	bpl.n	80037ac <HAL_RCC_OscConfig+0x94>
 800372c:	f44f 5160 	mov.w	r1, #14336	; 0x3800
 8003730:	f2c4 0102 	movt	r1, #16386	; 0x4002
 8003734:	688a      	ldr	r2, [r1, #8]
 8003736:	f002 020c 	and.w	r2, r2, #12
 800373a:	2a04      	cmp	r2, #4
 800373c:	f000 8108 	beq.w	8003950 <HAL_RCC_OscConfig+0x238>
 8003740:	688a      	ldr	r2, [r1, #8]
 8003742:	f002 020c 	and.w	r2, r2, #12
 8003746:	2a08      	cmp	r2, #8
 8003748:	f000 80fe 	beq.w	8003948 <HAL_RCC_OscConfig+0x230>
 800374c:	f44f 5160 	mov.w	r1, #14336	; 0x3800
 8003750:	f2c4 0102 	movt	r1, #16386	; 0x4002
 8003754:	688a      	ldr	r2, [r1, #8]
 8003756:	f002 020c 	and.w	r2, r2, #12
 800375a:	2a0c      	cmp	r2, #12
 800375c:	f000 8136 	beq.w	80039cc <HAL_RCC_OscConfig+0x2b4>
 8003760:	6863      	ldr	r3, [r4, #4]
 8003762:	f5b3 3f80 	cmp.w	r3, #65536	; 0x10000
 8003766:	f000 814a 	beq.w	80039fe <HAL_RCC_OscConfig+0x2e6>
 800376a:	f5b3 2fa0 	cmp.w	r3, #327680	; 0x50000
 800376e:	f000 81d4 	beq.w	8003b1a <HAL_RCC_OscConfig+0x402>
 8003772:	f44f 5560 	mov.w	r5, #14336	; 0x3800
 8003776:	f2c4 0502 	movt	r5, #16386	; 0x4002
 800377a:	682a      	ldr	r2, [r5, #0]
 800377c:	f422 3280 	bic.w	r2, r2, #65536	; 0x10000
 8003780:	602a      	str	r2, [r5, #0]
 8003782:	682a      	ldr	r2, [r5, #0]
 8003784:	f422 2280 	bic.w	r2, r2, #262144	; 0x40000
 8003788:	602a      	str	r2, [r5, #0]
 800378a:	2b00      	cmp	r3, #0
 800378c:	f040 813f 	bne.w	8003a0e <HAL_RCC_OscConfig+0x2f6>
 8003790:	f7fd fcae 	bl	80010f0 <HAL_GetTick>
 8003794:	4606      	mov	r6, r0
 8003796:	e005      	b.n	80037a4 <HAL_RCC_OscConfig+0x8c>
 8003798:	f7fd fcaa 	bl	80010f0 <HAL_GetTick>
 800379c:	1b80      	subs	r0, r0, r6
 800379e:	2864      	cmp	r0, #100	; 0x64
 80037a0:	f200 8129 	bhi.w	80039f6 <HAL_RCC_OscConfig+0x2de>
 80037a4:	682b      	ldr	r3, [r5, #0]
 80037a6:	0399      	lsls	r1, r3, #14
 80037a8:	d4f6      	bmi.n	8003798 <HAL_RCC_OscConfig+0x80>
 80037aa:	6823      	ldr	r3, [r4, #0]
 80037ac:	079a      	lsls	r2, r3, #30
 80037ae:	d53a      	bpl.n	8003826 <HAL_RCC_OscConfig+0x10e>
 80037b0:	f44f 5260 	mov.w	r2, #14336	; 0x3800
 80037b4:	f2c4 0202 	movt	r2, #16386	; 0x4002
 80037b8:	6891      	ldr	r1, [r2, #8]
 80037ba:	f011 0f0c 	tst.w	r1, #12
 80037be:	f000 80b5 	beq.w	800392c <HAL_RCC_OscConfig+0x214>
 80037c2:	6891      	ldr	r1, [r2, #8]
 80037c4:	f001 010c 	and.w	r1, r1, #12
 80037c8:	2908      	cmp	r1, #8
 80037ca:	f000 80ab 	beq.w	8003924 <HAL_RCC_OscConfig+0x20c>
 80037ce:	f44f 5160 	mov.w	r1, #14336	; 0x3800
 80037d2:	f2c4 0102 	movt	r1, #16386	; 0x4002
 80037d6:	688a      	ldr	r2, [r1, #8]
 80037d8:	f002 020c 	and.w	r2, r2, #12
 80037dc:	2a0c      	cmp	r2, #12
 80037de:	f000 8197 	beq.w	8003b10 <HAL_RCC_OscConfig+0x3f8>
 80037e2:	68e3      	ldr	r3, [r4, #12]
 80037e4:	2b00      	cmp	r3, #0
 80037e6:	f000 8141 	beq.w	8003a6c <HAL_RCC_OscConfig+0x354>
 80037ea:	2300      	movs	r3, #0
 80037ec:	f2c4 2347 	movt	r3, #16967	; 0x4247
 80037f0:	2201      	movs	r2, #1
 80037f2:	601a      	str	r2, [r3, #0]
 80037f4:	f7fd fc7c 	bl	80010f0 <HAL_GetTick>
 80037f8:	f44f 5560 	mov.w	r5, #14336	; 0x3800
 80037fc:	4606      	mov	r6, r0
 80037fe:	f2c4 0502 	movt	r5, #16386	; 0x4002
 8003802:	e005      	b.n	8003810 <HAL_RCC_OscConfig+0xf8>
 8003804:	f7fd fc74 	bl	80010f0 <HAL_GetTick>
 8003808:	1b80      	subs	r0, r0, r6
 800380a:	2802      	cmp	r0, #2
 800380c:	f200 80f3 	bhi.w	80039f6 <HAL_RCC_OscConfig+0x2de>
 8003810:	682b      	ldr	r3, [r5, #0]
 8003812:	0798      	lsls	r0, r3, #30
 8003814:	d5f6      	bpl.n	8003804 <HAL_RCC_OscConfig+0xec>
 8003816:	682b      	ldr	r3, [r5, #0]
 8003818:	6922      	ldr	r2, [r4, #16]
 800381a:	f023 03f8 	bic.w	r3, r3, #248	; 0xf8
 800381e:	ea43 03c2 	orr.w	r3, r3, r2, lsl #3
 8003822:	602b      	str	r3, [r5, #0]
 8003824:	6823      	ldr	r3, [r4, #0]
 8003826:	071a      	lsls	r2, r3, #28
 8003828:	d461      	bmi.n	80038ee <HAL_RCC_OscConfig+0x1d6>
 800382a:	0758      	lsls	r0, r3, #29
 800382c:	d539      	bpl.n	80038a2 <HAL_RCC_OscConfig+0x18a>
 800382e:	f44f 5360 	mov.w	r3, #14336	; 0x3800
 8003832:	f2c4 0302 	movt	r3, #16386	; 0x4002
 8003836:	6c1a      	ldr	r2, [r3, #64]	; 0x40
 8003838:	f012 5280 	ands.w	r2, r2, #268435456	; 0x10000000
 800383c:	f000 80ba 	beq.w	80039b4 <HAL_RCC_OscConfig+0x29c>
 8003840:	2500      	movs	r5, #0
 8003842:	f44f 46e0 	mov.w	r6, #28672	; 0x7000
 8003846:	f2c4 0600 	movt	r6, #16384	; 0x4000
 800384a:	6833      	ldr	r3, [r6, #0]
 800384c:	05d9      	lsls	r1, r3, #23
 800384e:	f140 80c2 	bpl.w	80039d6 <HAL_RCC_OscConfig+0x2be>
 8003852:	68a3      	ldr	r3, [r4, #8]
 8003854:	2b01      	cmp	r3, #1
 8003856:	f000 80eb 	beq.w	8003a30 <HAL_RCC_OscConfig+0x318>
 800385a:	2b05      	cmp	r3, #5
 800385c:	f000 816a 	beq.w	8003b34 <HAL_RCC_OscConfig+0x41c>
 8003860:	f44f 5660 	mov.w	r6, #14336	; 0x3800
 8003864:	f2c4 0602 	movt	r6, #16386	; 0x4002
 8003868:	6f32      	ldr	r2, [r6, #112]	; 0x70
 800386a:	f022 0201 	bic.w	r2, r2, #1
 800386e:	6732      	str	r2, [r6, #112]	; 0x70
 8003870:	6f32      	ldr	r2, [r6, #112]	; 0x70
 8003872:	f022 0204 	bic.w	r2, r2, #4
 8003876:	6732      	str	r2, [r6, #112]	; 0x70
 8003878:	2b00      	cmp	r3, #0
 800387a:	f040 80e1 	bne.w	8003a40 <HAL_RCC_OscConfig+0x328>
 800387e:	f7fd fc37 	bl	80010f0 <HAL_GetTick>
 8003882:	f241 3888 	movw	r8, #5000	; 0x1388
 8003886:	4607      	mov	r7, r0
 8003888:	e005      	b.n	8003896 <HAL_RCC_OscConfig+0x17e>
 800388a:	f7fd fc31 	bl	80010f0 <HAL_GetTick>
 800388e:	1bc0      	subs	r0, r0, r7
 8003890:	4540      	cmp	r0, r8
 8003892:	f200 80b0 	bhi.w	80039f6 <HAL_RCC_OscConfig+0x2de>
 8003896:	6f33      	ldr	r3, [r6, #112]	; 0x70
 8003898:	0798      	lsls	r0, r3, #30
 800389a:	d4f6      	bmi.n	800388a <HAL_RCC_OscConfig+0x172>
 800389c:	2d00      	cmp	r5, #0
 800389e:	f040 812c 	bne.w	8003afa <HAL_RCC_OscConfig+0x3e2>
 80038a2:	69a0      	ldr	r0, [r4, #24]
 80038a4:	b1f8      	cbz	r0, 80038e6 <HAL_RCC_OscConfig+0x1ce>
 80038a6:	f44f 5560 	mov.w	r5, #14336	; 0x3800
 80038aa:	f2c4 0502 	movt	r5, #16386	; 0x4002
 80038ae:	68ab      	ldr	r3, [r5, #8]
 80038b0:	f003 030c 	and.w	r3, r3, #12
 80038b4:	2b08      	cmp	r3, #8
 80038b6:	f000 80ef 	beq.w	8003a98 <HAL_RCC_OscConfig+0x380>
 80038ba:	2360      	movs	r3, #96	; 0x60
 80038bc:	f2c4 2347 	movt	r3, #16967	; 0x4247
 80038c0:	2200      	movs	r2, #0
 80038c2:	2802      	cmp	r0, #2
 80038c4:	601a      	str	r2, [r3, #0]
 80038c6:	f000 8142 	beq.w	8003b4e <HAL_RCC_OscConfig+0x436>
 80038ca:	f7fd fc11 	bl	80010f0 <HAL_GetTick>
 80038ce:	462c      	mov	r4, r5
 80038d0:	4605      	mov	r5, r0
 80038d2:	e005      	b.n	80038e0 <HAL_RCC_OscConfig+0x1c8>
 80038d4:	f7fd fc0c 	bl	80010f0 <HAL_GetTick>
 80038d8:	1b40      	subs	r0, r0, r5
 80038da:	2802      	cmp	r0, #2
 80038dc:	f200 808b 	bhi.w	80039f6 <HAL_RCC_OscConfig+0x2de>
 80038e0:	6823      	ldr	r3, [r4, #0]
 80038e2:	019b      	lsls	r3, r3, #6
 80038e4:	d4f6      	bmi.n	80038d4 <HAL_RCC_OscConfig+0x1bc>
 80038e6:	2000      	movs	r0, #0
 80038e8:	b002      	add	sp, #8
 80038ea:	e8bd 81f0 	ldmia.w	sp!, {r4, r5, r6, r7, r8, pc}
 80038ee:	6963      	ldr	r3, [r4, #20]
 80038f0:	2b00      	cmp	r3, #0
 80038f2:	d03a      	beq.n	800396a <HAL_RCC_OscConfig+0x252>
 80038f4:	f44f 6368 	mov.w	r3, #3712	; 0xe80
 80038f8:	f2c4 2347 	movt	r3, #16967	; 0x4247
 80038fc:	2201      	movs	r2, #1
 80038fe:	601a      	str	r2, [r3, #0]
 8003900:	f7fd fbf6 	bl	80010f0 <HAL_GetTick>
 8003904:	f44f 5660 	mov.w	r6, #14336	; 0x3800
 8003908:	4605      	mov	r5, r0
 800390a:	f2c4 0602 	movt	r6, #16386	; 0x4002
 800390e:	e004      	b.n	800391a <HAL_RCC_OscConfig+0x202>
 8003910:	f7fd fbee 	bl	80010f0 <HAL_GetTick>
 8003914:	1b40      	subs	r0, r0, r5
 8003916:	2802      	cmp	r0, #2
 8003918:	d86d      	bhi.n	80039f6 <HAL_RCC_OscConfig+0x2de>
 800391a:	6f73      	ldr	r3, [r6, #116]	; 0x74
 800391c:	079b      	lsls	r3, r3, #30
 800391e:	d5f7      	bpl.n	8003910 <HAL_RCC_OscConfig+0x1f8>
 8003920:	6823      	ldr	r3, [r4, #0]
 8003922:	e782      	b.n	800382a <HAL_RCC_OscConfig+0x112>
 8003924:	6852      	ldr	r2, [r2, #4]
 8003926:	0257      	lsls	r7, r2, #9
 8003928:	f53f af51 	bmi.w	80037ce <HAL_RCC_OscConfig+0xb6>
 800392c:	f44f 5260 	mov.w	r2, #14336	; 0x3800
 8003930:	f2c4 0202 	movt	r2, #16386	; 0x4002
 8003934:	6812      	ldr	r2, [r2, #0]
 8003936:	0795      	lsls	r5, r2, #30
 8003938:	d52d      	bpl.n	8003996 <HAL_RCC_OscConfig+0x27e>
 800393a:	68e2      	ldr	r2, [r4, #12]
 800393c:	2a01      	cmp	r2, #1
 800393e:	d02a      	beq.n	8003996 <HAL_RCC_OscConfig+0x27e>
 8003940:	2001      	movs	r0, #1
 8003942:	b002      	add	sp, #8
 8003944:	e8bd 81f0 	ldmia.w	sp!, {r4, r5, r6, r7, r8, pc}
 8003948:	684a      	ldr	r2, [r1, #4]
 800394a:	0257      	lsls	r7, r2, #9
 800394c:	f57f aefe 	bpl.w	800374c <HAL_RCC_OscConfig+0x34>
 8003950:	f44f 5260 	mov.w	r2, #14336	; 0x3800
 8003954:	f2c4 0202 	movt	r2, #16386	; 0x4002
 8003958:	6812      	ldr	r2, [r2, #0]
 800395a:	0395      	lsls	r5, r2, #14
 800395c:	f57f af26 	bpl.w	80037ac <HAL_RCC_OscConfig+0x94>
 8003960:	6862      	ldr	r2, [r4, #4]
 8003962:	2a00      	cmp	r2, #0
 8003964:	f47f af22 	bne.w	80037ac <HAL_RCC_OscConfig+0x94>
 8003968:	e7ea      	b.n	8003940 <HAL_RCC_OscConfig+0x228>
 800396a:	f44f 6268 	mov.w	r2, #3712	; 0xe80
 800396e:	f2c4 2247 	movt	r2, #16967	; 0x4247
 8003972:	f44f 5660 	mov.w	r6, #14336	; 0x3800
 8003976:	6013      	str	r3, [r2, #0]
 8003978:	f7fd fbba 	bl	80010f0 <HAL_GetTick>
 800397c:	f2c4 0602 	movt	r6, #16386	; 0x4002
 8003980:	4605      	mov	r5, r0
 8003982:	e004      	b.n	800398e <HAL_RCC_OscConfig+0x276>
 8003984:	f7fd fbb4 	bl	80010f0 <HAL_GetTick>
 8003988:	1b40      	subs	r0, r0, r5
 800398a:	2802      	cmp	r0, #2
 800398c:	d833      	bhi.n	80039f6 <HAL_RCC_OscConfig+0x2de>
 800398e:	6f73      	ldr	r3, [r6, #116]	; 0x74
 8003990:	079f      	lsls	r7, r3, #30
 8003992:	d4f7      	bmi.n	8003984 <HAL_RCC_OscConfig+0x26c>
 8003994:	e7c4      	b.n	8003920 <HAL_RCC_OscConfig+0x208>
 8003996:	f44f 5160 	mov.w	r1, #14336	; 0x3800
 800399a:	f2c4 0102 	movt	r1, #16386	; 0x4002
 800399e:	6920      	ldr	r0, [r4, #16]
 80039a0:	680a      	ldr	r2, [r1, #0]
 80039a2:	f022 02f8 	bic.w	r2, r2, #248	; 0xf8
 80039a6:	ea42 02c0 	orr.w	r2, r2, r0, lsl #3
 80039aa:	600a      	str	r2, [r1, #0]
 80039ac:	071a      	lsls	r2, r3, #28
 80039ae:	f57f af3c 	bpl.w	800382a <HAL_RCC_OscConfig+0x112>
 80039b2:	e79c      	b.n	80038ee <HAL_RCC_OscConfig+0x1d6>
 80039b4:	9201      	str	r2, [sp, #4]
 80039b6:	6c1a      	ldr	r2, [r3, #64]	; 0x40
 80039b8:	f042 5280 	orr.w	r2, r2, #268435456	; 0x10000000
 80039bc:	641a      	str	r2, [r3, #64]	; 0x40
 80039be:	6c1b      	ldr	r3, [r3, #64]	; 0x40
 80039c0:	f003 5380 	and.w	r3, r3, #268435456	; 0x10000000
 80039c4:	9301      	str	r3, [sp, #4]
 80039c6:	9b01      	ldr	r3, [sp, #4]
 80039c8:	2501      	movs	r5, #1
 80039ca:	e73a      	b.n	8003842 <HAL_RCC_OscConfig+0x12a>
 80039cc:	684a      	ldr	r2, [r1, #4]
 80039ce:	0256      	lsls	r6, r2, #9
 80039d0:	f57f aec6 	bpl.w	8003760 <HAL_RCC_OscConfig+0x48>
 80039d4:	e7bc      	b.n	8003950 <HAL_RCC_OscConfig+0x238>
 80039d6:	6833      	ldr	r3, [r6, #0]
 80039d8:	f443 7380 	orr.w	r3, r3, #256	; 0x100
 80039dc:	6033      	str	r3, [r6, #0]
 80039de:	f7fd fb87 	bl	80010f0 <HAL_GetTick>
 80039e2:	4607      	mov	r7, r0
 80039e4:	6833      	ldr	r3, [r6, #0]
 80039e6:	05da      	lsls	r2, r3, #23
 80039e8:	f53f af33 	bmi.w	8003852 <HAL_RCC_OscConfig+0x13a>
 80039ec:	f7fd fb80 	bl	80010f0 <HAL_GetTick>
 80039f0:	1bc0      	subs	r0, r0, r7
 80039f2:	2802      	cmp	r0, #2
 80039f4:	d9f6      	bls.n	80039e4 <HAL_RCC_OscConfig+0x2cc>
 80039f6:	2003      	movs	r0, #3
 80039f8:	b002      	add	sp, #8
 80039fa:	e8bd 81f0 	ldmia.w	sp!, {r4, r5, r6, r7, r8, pc}
 80039fe:	f44f 5360 	mov.w	r3, #14336	; 0x3800
 8003a02:	f2c4 0302 	movt	r3, #16386	; 0x4002
 8003a06:	681a      	ldr	r2, [r3, #0]
 8003a08:	f442 3280 	orr.w	r2, r2, #65536	; 0x10000
 8003a0c:	601a      	str	r2, [r3, #0]
 8003a0e:	f7fd fb6f 	bl	80010f0 <HAL_GetTick>
 8003a12:	f44f 5660 	mov.w	r6, #14336	; 0x3800
 8003a16:	4605      	mov	r5, r0
 8003a18:	f2c4 0602 	movt	r6, #16386	; 0x4002
 8003a1c:	e004      	b.n	8003a28 <HAL_RCC_OscConfig+0x310>
 8003a1e:	f7fd fb67 	bl	80010f0 <HAL_GetTick>
 8003a22:	1b40      	subs	r0, r0, r5
 8003a24:	2864      	cmp	r0, #100	; 0x64
 8003a26:	d8e6      	bhi.n	80039f6 <HAL_RCC_OscConfig+0x2de>
 8003a28:	6833      	ldr	r3, [r6, #0]
 8003a2a:	0398      	lsls	r0, r3, #14
 8003a2c:	d5f7      	bpl.n	8003a1e <HAL_RCC_OscConfig+0x306>
 8003a2e:	e6bc      	b.n	80037aa <HAL_RCC_OscConfig+0x92>
 8003a30:	f44f 5360 	mov.w	r3, #14336	; 0x3800
 8003a34:	f2c4 0302 	movt	r3, #16386	; 0x4002
 8003a38:	6f1a      	ldr	r2, [r3, #112]	; 0x70
 8003a3a:	f042 0201 	orr.w	r2, r2, #1
 8003a3e:	671a      	str	r2, [r3, #112]	; 0x70
 8003a40:	f7fd fb56 	bl	80010f0 <HAL_GetTick>
 8003a44:	f44f 5760 	mov.w	r7, #14336	; 0x3800
 8003a48:	4606      	mov	r6, r0
 8003a4a:	f2c4 0702 	movt	r7, #16386	; 0x4002
 8003a4e:	f241 3888 	movw	r8, #5000	; 0x1388
 8003a52:	e004      	b.n	8003a5e <HAL_RCC_OscConfig+0x346>
 8003a54:	f7fd fb4c 	bl	80010f0 <HAL_GetTick>
 8003a58:	1b80      	subs	r0, r0, r6
 8003a5a:	4540      	cmp	r0, r8
 8003a5c:	d8cb      	bhi.n	80039f6 <HAL_RCC_OscConfig+0x2de>
 8003a5e:	6f3b      	ldr	r3, [r7, #112]	; 0x70
 8003a60:	079b      	lsls	r3, r3, #30
 8003a62:	d5f7      	bpl.n	8003a54 <HAL_RCC_OscConfig+0x33c>
 8003a64:	2d00      	cmp	r5, #0
 8003a66:	f43f af1c 	beq.w	80038a2 <HAL_RCC_OscConfig+0x18a>
 8003a6a:	e046      	b.n	8003afa <HAL_RCC_OscConfig+0x3e2>
 8003a6c:	2200      	movs	r2, #0
 8003a6e:	f2c4 2247 	movt	r2, #16967	; 0x4247
 8003a72:	f44f 5660 	mov.w	r6, #14336	; 0x3800
 8003a76:	6013      	str	r3, [r2, #0]
 8003a78:	f7fd fb3a 	bl	80010f0 <HAL_GetTick>
 8003a7c:	f2c4 0602 	movt	r6, #16386	; 0x4002
 8003a80:	4605      	mov	r5, r0
 8003a82:	e004      	b.n	8003a8e <HAL_RCC_OscConfig+0x376>
 8003a84:	f7fd fb34 	bl	80010f0 <HAL_GetTick>
 8003a88:	1b40      	subs	r0, r0, r5
 8003a8a:	2802      	cmp	r0, #2
 8003a8c:	d8b3      	bhi.n	80039f6 <HAL_RCC_OscConfig+0x2de>
 8003a8e:	6833      	ldr	r3, [r6, #0]
 8003a90:	0799      	lsls	r1, r3, #30
 8003a92:	d4f7      	bmi.n	8003a84 <HAL_RCC_OscConfig+0x36c>
 8003a94:	6823      	ldr	r3, [r4, #0]
 8003a96:	e6c6      	b.n	8003826 <HAL_RCC_OscConfig+0x10e>
 8003a98:	2801      	cmp	r0, #1
 8003a9a:	f43f af25 	beq.w	80038e8 <HAL_RCC_OscConfig+0x1d0>
 8003a9e:	686b      	ldr	r3, [r5, #4]
 8003aa0:	69e2      	ldr	r2, [r4, #28]
 8003aa2:	f403 0180 	and.w	r1, r3, #4194304	; 0x400000
 8003aa6:	4291      	cmp	r1, r2
 8003aa8:	f47f af4a 	bne.w	8003940 <HAL_RCC_OscConfig+0x228>
 8003aac:	6a22      	ldr	r2, [r4, #32]
 8003aae:	f003 013f 	and.w	r1, r3, #63	; 0x3f
 8003ab2:	4291      	cmp	r1, r2
 8003ab4:	f47f af44 	bne.w	8003940 <HAL_RCC_OscConfig+0x228>
 8003ab8:	6a61      	ldr	r1, [r4, #36]	; 0x24
 8003aba:	f647 72c0 	movw	r2, #32704	; 0x7fc0
 8003abe:	401a      	ands	r2, r3
 8003ac0:	ebb2 1f81 	cmp.w	r2, r1, lsl #6
 8003ac4:	f47f af3c 	bne.w	8003940 <HAL_RCC_OscConfig+0x228>
 8003ac8:	6aa2      	ldr	r2, [r4, #40]	; 0x28
 8003aca:	0852      	lsrs	r2, r2, #1
 8003acc:	3a01      	subs	r2, #1
 8003ace:	f403 3140 	and.w	r1, r3, #196608	; 0x30000
 8003ad2:	ebb1 4f02 	cmp.w	r1, r2, lsl #16
 8003ad6:	f47f af33 	bne.w	8003940 <HAL_RCC_OscConfig+0x228>
 8003ada:	6ae1      	ldr	r1, [r4, #44]	; 0x2c
 8003adc:	f003 6270 	and.w	r2, r3, #251658240	; 0xf000000
 8003ae0:	ebb2 6f01 	cmp.w	r2, r1, lsl #24
 8003ae4:	f47f af2c 	bne.w	8003940 <HAL_RCC_OscConfig+0x228>
 8003ae8:	6b22      	ldr	r2, [r4, #48]	; 0x30
 8003aea:	f003 43e0 	and.w	r3, r3, #1879048192	; 0x70000000
 8003aee:	ebb3 7f02 	cmp.w	r3, r2, lsl #28
 8003af2:	bf14      	ite	ne
 8003af4:	2001      	movne	r0, #1
 8003af6:	2000      	moveq	r0, #0
 8003af8:	e6f6      	b.n	80038e8 <HAL_RCC_OscConfig+0x1d0>
 8003afa:	f44f 5360 	mov.w	r3, #14336	; 0x3800
 8003afe:	f2c4 0302 	movt	r3, #16386	; 0x4002
 8003b02:	6c1a      	ldr	r2, [r3, #64]	; 0x40
 8003b04:	f022 5280 	bic.w	r2, r2, #268435456	; 0x10000000
 8003b08:	641a      	str	r2, [r3, #64]	; 0x40
 8003b0a:	e6ca      	b.n	80038a2 <HAL_RCC_OscConfig+0x18a>
 8003b0c:	2001      	movs	r0, #1
 8003b0e:	4770      	bx	lr
 8003b10:	684a      	ldr	r2, [r1, #4]
 8003b12:	0256      	lsls	r6, r2, #9
 8003b14:	f53f ae65 	bmi.w	80037e2 <HAL_RCC_OscConfig+0xca>
 8003b18:	e708      	b.n	800392c <HAL_RCC_OscConfig+0x214>
 8003b1a:	f44f 5360 	mov.w	r3, #14336	; 0x3800
 8003b1e:	f2c4 0302 	movt	r3, #16386	; 0x4002
 8003b22:	681a      	ldr	r2, [r3, #0]
 8003b24:	f442 2280 	orr.w	r2, r2, #262144	; 0x40000
 8003b28:	601a      	str	r2, [r3, #0]
 8003b2a:	681a      	ldr	r2, [r3, #0]
 8003b2c:	f442 3280 	orr.w	r2, r2, #65536	; 0x10000
 8003b30:	601a      	str	r2, [r3, #0]
 8003b32:	e76c      	b.n	8003a0e <HAL_RCC_OscConfig+0x2f6>
 8003b34:	f44f 5360 	mov.w	r3, #14336	; 0x3800
 8003b38:	f2c4 0302 	movt	r3, #16386	; 0x4002
 8003b3c:	6f1a      	ldr	r2, [r3, #112]	; 0x70
 8003b3e:	f042 0204 	orr.w	r2, r2, #4
 8003b42:	671a      	str	r2, [r3, #112]	; 0x70
 8003b44:	6f1a      	ldr	r2, [r3, #112]	; 0x70
 8003b46:	f042 0201 	orr.w	r2, r2, #1
 8003b4a:	671a      	str	r2, [r3, #112]	; 0x70
 8003b4c:	e778      	b.n	8003a40 <HAL_RCC_OscConfig+0x328>
 8003b4e:	f7fd facf 	bl	80010f0 <HAL_GetTick>
 8003b52:	4606      	mov	r6, r0
 8003b54:	e005      	b.n	8003b62 <HAL_RCC_OscConfig+0x44a>
 8003b56:	f7fd facb 	bl	80010f0 <HAL_GetTick>
 8003b5a:	1b80      	subs	r0, r0, r6
 8003b5c:	2802      	cmp	r0, #2
 8003b5e:	f63f af4a 	bhi.w	80039f6 <HAL_RCC_OscConfig+0x2de>
 8003b62:	682b      	ldr	r3, [r5, #0]
 8003b64:	0199      	lsls	r1, r3, #6
 8003b66:	d4f6      	bmi.n	8003b56 <HAL_RCC_OscConfig+0x43e>
 8003b68:	e9d4 3207 	ldrd	r3, r2, [r4, #28]
 8003b6c:	6a66      	ldr	r6, [r4, #36]	; 0x24
 8003b6e:	6ae1      	ldr	r1, [r4, #44]	; 0x2c
 8003b70:	6b20      	ldr	r0, [r4, #48]	; 0x30
 8003b72:	4313      	orrs	r3, r2
 8003b74:	6aa2      	ldr	r2, [r4, #40]	; 0x28
 8003b76:	ea43 1386 	orr.w	r3, r3, r6, lsl #6
 8003b7a:	ea43 6301 	orr.w	r3, r3, r1, lsl #24
 8003b7e:	0852      	lsrs	r2, r2, #1
 8003b80:	2160      	movs	r1, #96	; 0x60
 8003b82:	ea43 7300 	orr.w	r3, r3, r0, lsl #28
 8003b86:	3a01      	subs	r2, #1
 8003b88:	f2c4 2147 	movt	r1, #16967	; 0x4247
 8003b8c:	ea43 4302 	orr.w	r3, r3, r2, lsl #16
 8003b90:	2201      	movs	r2, #1
 8003b92:	606b      	str	r3, [r5, #4]
 8003b94:	600a      	str	r2, [r1, #0]
 8003b96:	f7fd faab 	bl	80010f0 <HAL_GetTick>
 8003b9a:	f44f 5560 	mov.w	r5, #14336	; 0x3800
 8003b9e:	4604      	mov	r4, r0
 8003ba0:	f2c4 0502 	movt	r5, #16386	; 0x4002
 8003ba4:	e005      	b.n	8003bb2 <HAL_RCC_OscConfig+0x49a>
 8003ba6:	f7fd faa3 	bl	80010f0 <HAL_GetTick>
 8003baa:	1b00      	subs	r0, r0, r4
 8003bac:	2802      	cmp	r0, #2
 8003bae:	f63f af22 	bhi.w	80039f6 <HAL_RCC_OscConfig+0x2de>
 8003bb2:	682b      	ldr	r3, [r5, #0]
 8003bb4:	019a      	lsls	r2, r3, #6
 8003bb6:	d5f6      	bpl.n	8003ba6 <HAL_RCC_OscConfig+0x48e>
 8003bb8:	e695      	b.n	80038e6 <HAL_RCC_OscConfig+0x1ce>
 8003bba:	bf00      	nop

08003bbc <HAL_RCC_GetOscConfig>:
 8003bbc:	f44f 5360 	mov.w	r3, #14336	; 0x3800
 8003bc0:	220f      	movs	r2, #15
 8003bc2:	f2c4 0302 	movt	r3, #16386	; 0x4002
 8003bc6:	6002      	str	r2, [r0, #0]
 8003bc8:	681a      	ldr	r2, [r3, #0]
 8003bca:	0351      	lsls	r1, r2, #13
 8003bcc:	d53e      	bpl.n	8003c4c <HAL_RCC_GetOscConfig+0x90>
 8003bce:	f44f 23a0 	mov.w	r3, #327680	; 0x50000
 8003bd2:	6043      	str	r3, [r0, #4]
 8003bd4:	f44f 5360 	mov.w	r3, #14336	; 0x3800
 8003bd8:	f2c4 0302 	movt	r3, #16386	; 0x4002
 8003bdc:	681a      	ldr	r2, [r3, #0]
 8003bde:	f002 0201 	and.w	r2, r2, #1
 8003be2:	60c2      	str	r2, [r0, #12]
 8003be4:	681a      	ldr	r2, [r3, #0]
 8003be6:	f3c2 02c4 	ubfx	r2, r2, #3, #5
 8003bea:	6102      	str	r2, [r0, #16]
 8003bec:	6f1a      	ldr	r2, [r3, #112]	; 0x70
 8003bee:	0752      	lsls	r2, r2, #29
 8003bf0:	d534      	bpl.n	8003c5c <HAL_RCC_GetOscConfig+0xa0>
 8003bf2:	2305      	movs	r3, #5
 8003bf4:	6083      	str	r3, [r0, #8]
 8003bf6:	f44f 5360 	mov.w	r3, #14336	; 0x3800
 8003bfa:	f2c4 0302 	movt	r3, #16386	; 0x4002
 8003bfe:	6f5a      	ldr	r2, [r3, #116]	; 0x74
 8003c00:	f002 0201 	and.w	r2, r2, #1
 8003c04:	6142      	str	r2, [r0, #20]
 8003c06:	681a      	ldr	r2, [r3, #0]
 8003c08:	f012 7f80 	tst.w	r2, #16777216	; 0x1000000
 8003c0c:	bf14      	ite	ne
 8003c0e:	2202      	movne	r2, #2
 8003c10:	2201      	moveq	r2, #1
 8003c12:	6182      	str	r2, [r0, #24]
 8003c14:	685a      	ldr	r2, [r3, #4]
 8003c16:	f402 0280 	and.w	r2, r2, #4194304	; 0x400000
 8003c1a:	61c2      	str	r2, [r0, #28]
 8003c1c:	685a      	ldr	r2, [r3, #4]
 8003c1e:	f002 023f 	and.w	r2, r2, #63	; 0x3f
 8003c22:	6202      	str	r2, [r0, #32]
 8003c24:	685a      	ldr	r2, [r3, #4]
 8003c26:	f3c2 1288 	ubfx	r2, r2, #6, #9
 8003c2a:	6242      	str	r2, [r0, #36]	; 0x24
 8003c2c:	685a      	ldr	r2, [r3, #4]
 8003c2e:	f402 3240 	and.w	r2, r2, #196608	; 0x30000
 8003c32:	f502 3280 	add.w	r2, r2, #65536	; 0x10000
 8003c36:	0bd2      	lsrs	r2, r2, #15
 8003c38:	6282      	str	r2, [r0, #40]	; 0x28
 8003c3a:	685a      	ldr	r2, [r3, #4]
 8003c3c:	f3c2 6203 	ubfx	r2, r2, #24, #4
 8003c40:	62c2      	str	r2, [r0, #44]	; 0x2c
 8003c42:	685b      	ldr	r3, [r3, #4]
 8003c44:	f3c3 7302 	ubfx	r3, r3, #28, #3
 8003c48:	6303      	str	r3, [r0, #48]	; 0x30
 8003c4a:	4770      	bx	lr
 8003c4c:	681b      	ldr	r3, [r3, #0]
 8003c4e:	f413 3380 	ands.w	r3, r3, #65536	; 0x10000
 8003c52:	bf18      	it	ne
 8003c54:	f44f 3380 	movne.w	r3, #65536	; 0x10000
 8003c58:	6043      	str	r3, [r0, #4]
 8003c5a:	e7bb      	b.n	8003bd4 <HAL_RCC_GetOscConfig+0x18>
 8003c5c:	6f1b      	ldr	r3, [r3, #112]	; 0x70
 8003c5e:	f013 0301 	ands.w	r3, r3, #1
 8003c62:	bf18      	it	ne
 8003c64:	2301      	movne	r3, #1
 8003c66:	6083      	str	r3, [r0, #8]
 8003c68:	e7c5      	b.n	8003bf6 <HAL_RCC_GetOscConfig+0x3a>
 8003c6a:	bf00      	nop
 8003c6c:	4770      	bx	lr
 8003c6e:	bf00      	nop

08003c70 <HAL_TIM_Base_Init>:
 8003c70:	2800      	cmp	r0, #0
 8003c72:	f000 809e 	beq.w	8003db2 <HAL_TIM_Base_Init+0x142>
 8003c76:	b538      	push	{r3, r4, r5, lr}
 8003c78:	f890 303d 	ldrb.w	r3, [r0, #61]	; 0x3d
 8003c7c:	4604      	mov	r4, r0
 8003c7e:	f003 02ff 	and.w	r2, r3, #255	; 0xff
 8003c82:	2b00      	cmp	r3, #0
 8003c84:	f000 8090 	beq.w	8003da8 <HAL_TIM_Base_Init+0x138>
 8003c88:	6822      	ldr	r2, [r4, #0]
 8003c8a:	2100      	movs	r1, #0
 8003c8c:	2302      	movs	r3, #2
 8003c8e:	f2c4 0101 	movt	r1, #16385	; 0x4001
 8003c92:	f884 303d 	strb.w	r3, [r4, #61]	; 0x3d
 8003c96:	428a      	cmp	r2, r1
 8003c98:	6813      	ldr	r3, [r2, #0]
 8003c9a:	d071      	beq.n	8003d80 <HAL_TIM_Base_Init+0x110>
 8003c9c:	f1b2 4f80 	cmp.w	r2, #1073741824	; 0x40000000
 8003ca0:	d045      	beq.n	8003d2e <HAL_TIM_Base_Init+0xbe>
 8003ca2:	f44f 6180 	mov.w	r1, #1024	; 0x400
 8003ca6:	f2c4 0100 	movt	r1, #16384	; 0x4000
 8003caa:	428a      	cmp	r2, r1
 8003cac:	d03f      	beq.n	8003d2e <HAL_TIM_Base_Init+0xbe>
 8003cae:	f44f 6100 	mov.w	r1, #2048	; 0x800
 8003cb2:	f2c4 0100 	movt	r1, #16384	; 0x4000
 8003cb6:	428a      	cmp	r2, r1
 8003cb8:	d039      	beq.n	8003d2e <HAL_TIM_Base_Init+0xbe>
 8003cba:	f44f 6140 	mov.w	r1, #3072	; 0xc00
 8003cbe:	f2c4 0100 	movt	r1, #16384	; 0x4000
 8003cc2:	428a      	cmp	r2, r1
 8003cc4:	d033      	beq.n	8003d2e <HAL_TIM_Base_Init+0xbe>
 8003cc6:	f44f 6180 	mov.w	r1, #1024	; 0x400
 8003cca:	f2c4 0101 	movt	r1, #16385	; 0x4001
 8003cce:	428a      	cmp	r2, r1
 8003cd0:	d056      	beq.n	8003d80 <HAL_TIM_Base_Init+0x110>
 8003cd2:	f44f 4180 	mov.w	r1, #16384	; 0x4000
 8003cd6:	f2c4 0101 	movt	r1, #16385	; 0x4001
 8003cda:	428a      	cmp	r2, r1
 8003cdc:	d02b      	beq.n	8003d36 <HAL_TIM_Base_Init+0xc6>
 8003cde:	f44f 4188 	mov.w	r1, #17408	; 0x4400
 8003ce2:	f2c4 0101 	movt	r1, #16385	; 0x4001
 8003ce6:	428a      	cmp	r2, r1
 8003ce8:	d025      	beq.n	8003d36 <HAL_TIM_Base_Init+0xc6>
 8003cea:	f44f 4190 	mov.w	r1, #18432	; 0x4800
 8003cee:	f2c4 0101 	movt	r1, #16385	; 0x4001
 8003cf2:	428a      	cmp	r2, r1
 8003cf4:	d01f      	beq.n	8003d36 <HAL_TIM_Base_Init+0xc6>
 8003cf6:	f44f 51c0 	mov.w	r1, #6144	; 0x1800
 8003cfa:	f2c4 0100 	movt	r1, #16384	; 0x4000
 8003cfe:	428a      	cmp	r2, r1
 8003d00:	d019      	beq.n	8003d36 <HAL_TIM_Base_Init+0xc6>
 8003d02:	f44f 51e0 	mov.w	r1, #7168	; 0x1c00
 8003d06:	f2c4 0100 	movt	r1, #16384	; 0x4000
 8003d0a:	428a      	cmp	r2, r1
 8003d0c:	d013      	beq.n	8003d36 <HAL_TIM_Base_Init+0xc6>
 8003d0e:	f44f 5100 	mov.w	r1, #8192	; 0x2000
 8003d12:	f2c4 0100 	movt	r1, #16384	; 0x4000
 8003d16:	428a      	cmp	r2, r1
 8003d18:	d00d      	beq.n	8003d36 <HAL_TIM_Base_Init+0xc6>
 8003d1a:	69a5      	ldr	r5, [r4, #24]
 8003d1c:	68e0      	ldr	r0, [r4, #12]
 8003d1e:	6861      	ldr	r1, [r4, #4]
 8003d20:	f023 0380 	bic.w	r3, r3, #128	; 0x80
 8003d24:	432b      	orrs	r3, r5
 8003d26:	6013      	str	r3, [r2, #0]
 8003d28:	62d0      	str	r0, [r2, #44]	; 0x2c
 8003d2a:	6291      	str	r1, [r2, #40]	; 0x28
 8003d2c:	e010      	b.n	8003d50 <HAL_TIM_Base_Init+0xe0>
 8003d2e:	68a1      	ldr	r1, [r4, #8]
 8003d30:	f023 0370 	bic.w	r3, r3, #112	; 0x70
 8003d34:	430b      	orrs	r3, r1
 8003d36:	6925      	ldr	r5, [r4, #16]
 8003d38:	69a1      	ldr	r1, [r4, #24]
 8003d3a:	68e0      	ldr	r0, [r4, #12]
 8003d3c:	f423 7340 	bic.w	r3, r3, #768	; 0x300
 8003d40:	432b      	orrs	r3, r5
 8003d42:	f023 0380 	bic.w	r3, r3, #128	; 0x80
 8003d46:	430b      	orrs	r3, r1
 8003d48:	6861      	ldr	r1, [r4, #4]
 8003d4a:	6013      	str	r3, [r2, #0]
 8003d4c:	62d0      	str	r0, [r2, #44]	; 0x2c
 8003d4e:	6291      	str	r1, [r2, #40]	; 0x28
 8003d50:	2301      	movs	r3, #1
 8003d52:	6153      	str	r3, [r2, #20]
 8003d54:	f884 3046 	strb.w	r3, [r4, #70]	; 0x46
 8003d58:	f884 303e 	strb.w	r3, [r4, #62]	; 0x3e
 8003d5c:	f884 303f 	strb.w	r3, [r4, #63]	; 0x3f
 8003d60:	f884 3040 	strb.w	r3, [r4, #64]	; 0x40
 8003d64:	f884 3041 	strb.w	r3, [r4, #65]	; 0x41
 8003d68:	f884 3042 	strb.w	r3, [r4, #66]	; 0x42
 8003d6c:	f884 3043 	strb.w	r3, [r4, #67]	; 0x43
 8003d70:	f884 3044 	strb.w	r3, [r4, #68]	; 0x44
 8003d74:	f884 3045 	strb.w	r3, [r4, #69]	; 0x45
 8003d78:	f884 303d 	strb.w	r3, [r4, #61]	; 0x3d
 8003d7c:	2000      	movs	r0, #0
 8003d7e:	bd38      	pop	{r3, r4, r5, pc}
 8003d80:	68a5      	ldr	r5, [r4, #8]
 8003d82:	6920      	ldr	r0, [r4, #16]
 8003d84:	69a1      	ldr	r1, [r4, #24]
 8003d86:	f023 0370 	bic.w	r3, r3, #112	; 0x70
 8003d8a:	432b      	orrs	r3, r5
 8003d8c:	f423 7340 	bic.w	r3, r3, #768	; 0x300
 8003d90:	4303      	orrs	r3, r0
 8003d92:	f023 0380 	bic.w	r3, r3, #128	; 0x80
 8003d96:	430b      	orrs	r3, r1
 8003d98:	6013      	str	r3, [r2, #0]
 8003d9a:	68e3      	ldr	r3, [r4, #12]
 8003d9c:	62d3      	str	r3, [r2, #44]	; 0x2c
 8003d9e:	6863      	ldr	r3, [r4, #4]
 8003da0:	6293      	str	r3, [r2, #40]	; 0x28
 8003da2:	6963      	ldr	r3, [r4, #20]
 8003da4:	6313      	str	r3, [r2, #48]	; 0x30
 8003da6:	e7d3      	b.n	8003d50 <HAL_TIM_Base_Init+0xe0>
 8003da8:	f880 203c 	strb.w	r2, [r0, #60]	; 0x3c
 8003dac:	f7fc fad4 	bl	8000358 <HAL_TIM_Base_MspInit>
 8003db0:	e76a      	b.n	8003c88 <HAL_TIM_Base_Init+0x18>
 8003db2:	2001      	movs	r0, #1
 8003db4:	4770      	bx	lr
 8003db6:	bf00      	nop
 8003db8:	4770      	bx	lr
 8003dba:	bf00      	nop

08003dbc <HAL_TIM_Base_DeInit>:
 8003dbc:	2202      	movs	r2, #2
 8003dbe:	6803      	ldr	r3, [r0, #0]
 8003dc0:	b510      	push	{r4, lr}
 8003dc2:	f880 203d 	strb.w	r2, [r0, #61]	; 0x3d
 8003dc6:	6a19      	ldr	r1, [r3, #32]
 8003dc8:	f241 1211 	movw	r2, #4369	; 0x1111
 8003dcc:	4211      	tst	r1, r2
 8003dce:	4604      	mov	r4, r0
 8003dd0:	d108      	bne.n	8003de4 <HAL_TIM_Base_DeInit+0x28>
 8003dd2:	6a19      	ldr	r1, [r3, #32]
 8003dd4:	f240 4244 	movw	r2, #1092	; 0x444
 8003dd8:	4211      	tst	r1, r2
 8003dda:	d103      	bne.n	8003de4 <HAL_TIM_Base_DeInit+0x28>
 8003ddc:	681a      	ldr	r2, [r3, #0]
 8003dde:	f022 0201 	bic.w	r2, r2, #1
 8003de2:	601a      	str	r2, [r3, #0]
 8003de4:	4620      	mov	r0, r4
 8003de6:	f7fc fcfb 	bl	80007e0 <HAL_TIM_Base_MspDeInit>
 8003dea:	2000      	movs	r0, #0
 8003dec:	f884 0046 	strb.w	r0, [r4, #70]	; 0x46
 8003df0:	f884 003c 	strb.w	r0, [r4, #60]	; 0x3c
 8003df4:	f884 003e 	strb.w	r0, [r4, #62]	; 0x3e
 8003df8:	f884 003f 	strb.w	r0, [r4, #63]	; 0x3f
 8003dfc:	f884 0040 	strb.w	r0, [r4, #64]	; 0x40
 8003e00:	f884 0041 	strb.w	r0, [r4, #65]	; 0x41
 8003e04:	f884 0042 	strb.w	r0, [r4, #66]	; 0x42
 8003e08:	f884 0043 	strb.w	r0, [r4, #67]	; 0x43
 8003e0c:	f884 0044 	strb.w	r0, [r4, #68]	; 0x44
 8003e10:	f884 0045 	strb.w	r0, [r4, #69]	; 0x45
 8003e14:	f884 003d 	strb.w	r0, [r4, #61]	; 0x3d
 8003e18:	bd10      	pop	{r4, pc}
 8003e1a:	bf00      	nop

08003e1c <HAL_TIM_Base_Start>:
 8003e1c:	f890 303d 	ldrb.w	r3, [r0, #61]	; 0x3d
 8003e20:	2b01      	cmp	r3, #1
 8003e22:	d13a      	bne.n	8003e9a <HAL_TIM_Base_Start+0x7e>
 8003e24:	6803      	ldr	r3, [r0, #0]
 8003e26:	2200      	movs	r2, #0
 8003e28:	f2c4 0201 	movt	r2, #16385	; 0x4001
 8003e2c:	2102      	movs	r1, #2
 8003e2e:	4293      	cmp	r3, r2
 8003e30:	f880 103d 	strb.w	r1, [r0, #61]	; 0x3d
 8003e34:	d026      	beq.n	8003e84 <HAL_TIM_Base_Start+0x68>
 8003e36:	f1b3 4f80 	cmp.w	r3, #1073741824	; 0x40000000
 8003e3a:	d023      	beq.n	8003e84 <HAL_TIM_Base_Start+0x68>
 8003e3c:	f44f 6280 	mov.w	r2, #1024	; 0x400
 8003e40:	f2c4 0200 	movt	r2, #16384	; 0x4000
 8003e44:	4293      	cmp	r3, r2
 8003e46:	d01d      	beq.n	8003e84 <HAL_TIM_Base_Start+0x68>
 8003e48:	f44f 6200 	mov.w	r2, #2048	; 0x800
 8003e4c:	f2c4 0200 	movt	r2, #16384	; 0x4000
 8003e50:	4293      	cmp	r3, r2
 8003e52:	d017      	beq.n	8003e84 <HAL_TIM_Base_Start+0x68>
 8003e54:	f44f 6240 	mov.w	r2, #3072	; 0xc00
 8003e58:	f2c4 0200 	movt	r2, #16384	; 0x4000
 8003e5c:	4293      	cmp	r3, r2
 8003e5e:	d011      	beq.n	8003e84 <HAL_TIM_Base_Start+0x68>
 8003e60:	f44f 6280 	mov.w	r2, #1024	; 0x400
 8003e64:	f2c4 0201 	movt	r2, #16385	; 0x4001
 8003e68:	4293      	cmp	r3, r2
 8003e6a:	d00b      	beq.n	8003e84 <HAL_TIM_Base_Start+0x68>
 8003e6c:	f44f 4280 	mov.w	r2, #16384	; 0x4000
 8003e70:	f2c4 0201 	movt	r2, #16385	; 0x4001
 8003e74:	4293      	cmp	r3, r2
 8003e76:	d005      	beq.n	8003e84 <HAL_TIM_Base_Start+0x68>
 8003e78:	f44f 52c0 	mov.w	r2, #6144	; 0x1800
 8003e7c:	f2c4 0200 	movt	r2, #16384	; 0x4000
 8003e80:	4293      	cmp	r3, r2
 8003e82:	d104      	bne.n	8003e8e <HAL_TIM_Base_Start+0x72>
 8003e84:	689a      	ldr	r2, [r3, #8]
 8003e86:	f002 0207 	and.w	r2, r2, #7
 8003e8a:	2a06      	cmp	r2, #6
 8003e8c:	d007      	beq.n	8003e9e <HAL_TIM_Base_Start+0x82>
 8003e8e:	681a      	ldr	r2, [r3, #0]
 8003e90:	f042 0201 	orr.w	r2, r2, #1
 8003e94:	601a      	str	r2, [r3, #0]
 8003e96:	2000      	movs	r0, #0
 8003e98:	4770      	bx	lr
 8003e9a:	2001      	movs	r0, #1
 8003e9c:	4770      	bx	lr
 8003e9e:	2000      	movs	r0, #0
 8003ea0:	4770      	bx	lr
 8003ea2:	bf00      	nop

08003ea4 <HAL_TIM_Base_Stop>:
 8003ea4:	6803      	ldr	r3, [r0, #0]
 8003ea6:	6a19      	ldr	r1, [r3, #32]
 8003ea8:	f241 1211 	movw	r2, #4369	; 0x1111
 8003eac:	4211      	tst	r1, r2
 8003eae:	d108      	bne.n	8003ec2 <HAL_TIM_Base_Stop+0x1e>
 8003eb0:	6a19      	ldr	r1, [r3, #32]
 8003eb2:	f240 4244 	movw	r2, #1092	; 0x444
 8003eb6:	4211      	tst	r1, r2
 8003eb8:	d103      	bne.n	8003ec2 <HAL_TIM_Base_Stop+0x1e>
 8003eba:	681a      	ldr	r2, [r3, #0]
 8003ebc:	f022 0201 	bic.w	r2, r2, #1
 8003ec0:	601a      	str	r2, [r3, #0]
 8003ec2:	2301      	movs	r3, #1
 8003ec4:	f880 303d 	strb.w	r3, [r0, #61]	; 0x3d
 8003ec8:	2000      	movs	r0, #0
 8003eca:	4770      	bx	lr

08003ecc <HAL_TIM_Base_Start_IT>:
 8003ecc:	f890 303d 	ldrb.w	r3, [r0, #61]	; 0x3d
 8003ed0:	2b01      	cmp	r3, #1
 8003ed2:	d13e      	bne.n	8003f52 <HAL_TIM_Base_Start_IT+0x86>
 8003ed4:	6803      	ldr	r3, [r0, #0]
 8003ed6:	2202      	movs	r2, #2
 8003ed8:	f880 203d 	strb.w	r2, [r0, #61]	; 0x3d
 8003edc:	68da      	ldr	r2, [r3, #12]
 8003ede:	2100      	movs	r1, #0
 8003ee0:	f2c4 0101 	movt	r1, #16385	; 0x4001
 8003ee4:	f042 0201 	orr.w	r2, r2, #1
 8003ee8:	428b      	cmp	r3, r1
 8003eea:	60da      	str	r2, [r3, #12]
 8003eec:	d026      	beq.n	8003f3c <HAL_TIM_Base_Start_IT+0x70>
 8003eee:	f1b3 4f80 	cmp.w	r3, #1073741824	; 0x40000000
 8003ef2:	d023      	beq.n	8003f3c <HAL_TIM_Base_Start_IT+0x70>
 8003ef4:	f44f 6280 	mov.w	r2, #1024	; 0x400
 8003ef8:	f2c4 0200 	movt	r2, #16384	; 0x4000
 8003efc:	4293      	cmp	r3, r2
 8003efe:	d01d      	beq.n	8003f3c <HAL_TIM_Base_Start_IT+0x70>
 8003f00:	f44f 6200 	mov.w	r2, #2048	; 0x800
 8003f04:	f2c4 0200 	movt	r2, #16384	; 0x4000
 8003f08:	4293      	cmp	r3, r2
 8003f0a:	d017      	beq.n	8003f3c <HAL_TIM_Base_Start_IT+0x70>
 8003f0c:	f44f 6240 	mov.w	r2, #3072	; 0xc00
 8003f10:	f2c4 0200 	movt	r2, #16384	; 0x4000
 8003f14:	4293      	cmp	r3, r2
 8003f16:	d011      	beq.n	8003f3c <HAL_TIM_Base_Start_IT+0x70>
 8003f18:	f44f 6280 	mov.w	r2, #1024	; 0x400
 8003f1c:	f2c4 0201 	movt	r2, #16385	; 0x4001
 8003f20:	4293      	cmp	r3, r2
 8003f22:	d00b      	beq.n	8003f3c <HAL_TIM_Base_Start_IT+0x70>
 8003f24:	f44f 4280 	mov.w	r2, #16384	; 0x4000
 8003f28:	f2c4 0201 	movt	r2, #16385	; 0x4001
 8003f2c:	4293      	cmp	r3, r2
 8003f2e:	d005      	beq.n	8003f3c <HAL_TIM_Base_Start_IT+0x70>
 8003f30:	f44f 52c0 	mov.w	r2, #6144	; 0x1800
 8003f34:	f2c4 0200 	movt	r2, #16384	; 0x4000
 8003f38:	4293      	cmp	r3, r2
 8003f3a:	d104      	bne.n	8003f46 <HAL_TIM_Base_Start_IT+0x7a>
 8003f3c:	689a      	ldr	r2, [r3, #8]
 8003f3e:	f002 0207 	and.w	r2, r2, #7
 8003f42:	2a06      	cmp	r2, #6
 8003f44:	d007      	beq.n	8003f56 <HAL_TIM_Base_Start_IT+0x8a>
 8003f46:	681a      	ldr	r2, [r3, #0]
 8003f48:	f042 0201 	orr.w	r2, r2, #1
 8003f4c:	601a      	str	r2, [r3, #0]
 8003f4e:	2000      	movs	r0, #0
 8003f50:	4770      	bx	lr
 8003f52:	2001      	movs	r0, #1
 8003f54:	4770      	bx	lr
 8003f56:	2000      	movs	r0, #0
 8003f58:	4770      	bx	lr
 8003f5a:	bf00      	nop

08003f5c <HAL_TIM_Base_Stop_IT>:
 8003f5c:	6803      	ldr	r3, [r0, #0]
 8003f5e:	68da      	ldr	r2, [r3, #12]
 8003f60:	f022 0201 	bic.w	r2, r2, #1
 8003f64:	60da      	str	r2, [r3, #12]
 8003f66:	6a1a      	ldr	r2, [r3, #32]
 8003f68:	f241 1111 	movw	r1, #4369	; 0x1111
 8003f6c:	420a      	tst	r2, r1
 8003f6e:	d108      	bne.n	8003f82 <HAL_TIM_Base_Stop_IT+0x26>
 8003f70:	6a19      	ldr	r1, [r3, #32]
 8003f72:	f240 4244 	movw	r2, #1092	; 0x444
 8003f76:	4211      	tst	r1, r2
 8003f78:	d103      	bne.n	8003f82 <HAL_TIM_Base_Stop_IT+0x26>
 8003f7a:	681a      	ldr	r2, [r3, #0]
 8003f7c:	f022 0201 	bic.w	r2, r2, #1
 8003f80:	601a      	str	r2, [r3, #0]
 8003f82:	2301      	movs	r3, #1
 8003f84:	f880 303d 	strb.w	r3, [r0, #61]	; 0x3d
 8003f88:	2000      	movs	r0, #0
 8003f8a:	4770      	bx	lr

08003f8c <HAL_TIM_Base_Start_DMA>:
 8003f8c:	b5f8      	push	{r3, r4, r5, r6, r7, lr}
 8003f8e:	f890 303d 	ldrb.w	r3, [r0, #61]	; 0x3d
 8003f92:	2b02      	cmp	r3, #2
 8003f94:	4604      	mov	r4, r0
 8003f96:	b2d8      	uxtb	r0, r3
 8003f98:	d054      	beq.n	8004044 <HAL_TIM_Base_Start_DMA+0xb8>
 8003f9a:	f894 303d 	ldrb.w	r3, [r4, #61]	; 0x3d
 8003f9e:	2b01      	cmp	r3, #1
 8003fa0:	d153      	bne.n	800404a <HAL_TIM_Base_Start_DMA+0xbe>
 8003fa2:	2900      	cmp	r1, #0
 8003fa4:	d04f      	beq.n	8004046 <HAL_TIM_Base_Start_DMA+0xba>
 8003fa6:	6a20      	ldr	r0, [r4, #32]
 8003fa8:	6826      	ldr	r6, [r4, #0]
 8003faa:	f647 25ad 	movw	r5, #31405	; 0x7aad
 8003fae:	f6c0 0500 	movt	r5, #2048	; 0x800
 8003fb2:	2702      	movs	r7, #2
 8003fb4:	f884 703d 	strb.w	r7, [r4, #61]	; 0x3d
 8003fb8:	63c5      	str	r5, [r0, #60]	; 0x3c
 8003fba:	f647 25c9 	movw	r5, #31433	; 0x7ac9
 8003fbe:	f6c0 0500 	movt	r5, #2048	; 0x800
 8003fc2:	6405      	str	r5, [r0, #64]	; 0x40
 8003fc4:	f647 653d 	movw	r5, #32317	; 0x7e3d
 8003fc8:	f6c0 0500 	movt	r5, #2048	; 0x800
 8003fcc:	4613      	mov	r3, r2
 8003fce:	64c5      	str	r5, [r0, #76]	; 0x4c
 8003fd0:	f106 022c 	add.w	r2, r6, #44	; 0x2c
 8003fd4:	f7fd fc46 	bl	8001864 <HAL_DMA_Start_IT>
 8003fd8:	bbb8      	cbnz	r0, 800404a <HAL_TIM_Base_Start_DMA+0xbe>
 8003fda:	6823      	ldr	r3, [r4, #0]
 8003fdc:	2100      	movs	r1, #0
 8003fde:	68da      	ldr	r2, [r3, #12]
 8003fe0:	f2c4 0101 	movt	r1, #16385	; 0x4001
 8003fe4:	f442 7280 	orr.w	r2, r2, #256	; 0x100
 8003fe8:	428b      	cmp	r3, r1
 8003fea:	60da      	str	r2, [r3, #12]
 8003fec:	d02f      	beq.n	800404e <HAL_TIM_Base_Start_DMA+0xc2>
 8003fee:	f1b3 4f80 	cmp.w	r3, #1073741824	; 0x40000000
 8003ff2:	d02c      	beq.n	800404e <HAL_TIM_Base_Start_DMA+0xc2>
 8003ff4:	f44f 6280 	mov.w	r2, #1024	; 0x400
 8003ff8:	f2c4 0200 	movt	r2, #16384	; 0x4000
 8003ffc:	4293      	cmp	r3, r2
 8003ffe:	d026      	beq.n	800404e <HAL_TIM_Base_Start_DMA+0xc2>
 8004000:	f44f 6200 	mov.w	r2, #2048	; 0x800
 8004004:	f2c4 0200 	movt	r2, #16384	; 0x4000
 8004008:	4293      	cmp	r3, r2
 800400a:	d020      	beq.n	800404e <HAL_TIM_Base_Start_DMA+0xc2>
 800400c:	f44f 6240 	mov.w	r2, #3072	; 0xc00
 8004010:	f2c4 0200 	movt	r2, #16384	; 0x4000
 8004014:	4293      	cmp	r3, r2
 8004016:	d01a      	beq.n	800404e <HAL_TIM_Base_Start_DMA+0xc2>
 8004018:	f44f 6280 	mov.w	r2, #1024	; 0x400
 800401c:	f2c4 0201 	movt	r2, #16385	; 0x4001
 8004020:	4293      	cmp	r3, r2
 8004022:	d014      	beq.n	800404e <HAL_TIM_Base_Start_DMA+0xc2>
 8004024:	f44f 4280 	mov.w	r2, #16384	; 0x4000
 8004028:	f2c4 0201 	movt	r2, #16385	; 0x4001
 800402c:	4293      	cmp	r3, r2
 800402e:	d00e      	beq.n	800404e <HAL_TIM_Base_Start_DMA+0xc2>
 8004030:	f44f 52c0 	mov.w	r2, #6144	; 0x1800
 8004034:	f2c4 0200 	movt	r2, #16384	; 0x4000
 8004038:	4293      	cmp	r3, r2
 800403a:	d008      	beq.n	800404e <HAL_TIM_Base_Start_DMA+0xc2>
 800403c:	681a      	ldr	r2, [r3, #0]
 800403e:	f042 0201 	orr.w	r2, r2, #1
 8004042:	601a      	str	r2, [r3, #0]
 8004044:	bdf8      	pop	{r3, r4, r5, r6, r7, pc}
 8004046:	2a00      	cmp	r2, #0
 8004048:	d0ad      	beq.n	8003fa6 <HAL_TIM_Base_Start_DMA+0x1a>
 800404a:	2001      	movs	r0, #1
 800404c:	bdf8      	pop	{r3, r4, r5, r6, r7, pc}
 800404e:	689a      	ldr	r2, [r3, #8]
 8004050:	f002 0207 	and.w	r2, r2, #7
 8004054:	2a06      	cmp	r2, #6
 8004056:	d0f5      	beq.n	8004044 <HAL_TIM_Base_Start_DMA+0xb8>
 8004058:	681a      	ldr	r2, [r3, #0]
 800405a:	f042 0201 	orr.w	r2, r2, #1
 800405e:	601a      	str	r2, [r3, #0]
 8004060:	e7f0      	b.n	8004044 <HAL_TIM_Base_Start_DMA+0xb8>
 8004062:	bf00      	nop

08004064 <HAL_TIM_Base_Stop_DMA>:
 8004064:	6802      	ldr	r2, [r0, #0]
 8004066:	68d3      	ldr	r3, [r2, #12]
 8004068:	b510      	push	{r4, lr}
 800406a:	f423 7380 	bic.w	r3, r3, #256	; 0x100
 800406e:	4604      	mov	r4, r0
 8004070:	6a00      	ldr	r0, [r0, #32]
 8004072:	60d3      	str	r3, [r2, #12]
 8004074:	f7fd fc7c 	bl	8001970 <HAL_DMA_Abort_IT>
 8004078:	6823      	ldr	r3, [r4, #0]
 800407a:	6a19      	ldr	r1, [r3, #32]
 800407c:	f241 1211 	movw	r2, #4369	; 0x1111
 8004080:	4211      	tst	r1, r2
 8004082:	d108      	bne.n	8004096 <HAL_TIM_Base_Stop_DMA+0x32>
 8004084:	6a19      	ldr	r1, [r3, #32]
 8004086:	f240 4244 	movw	r2, #1092	; 0x444
 800408a:	4211      	tst	r1, r2
 800408c:	d103      	bne.n	8004096 <HAL_TIM_Base_Stop_DMA+0x32>
 800408e:	681a      	ldr	r2, [r3, #0]
 8004090:	f022 0201 	bic.w	r2, r2, #1
 8004094:	601a      	str	r2, [r3, #0]
 8004096:	2301      	movs	r3, #1
 8004098:	f884 303d 	strb.w	r3, [r4, #61]	; 0x3d
 800409c:	2000      	movs	r0, #0
 800409e:	bd10      	pop	{r4, pc}

080040a0 <HAL_TIM_OC_MspInit>:
 80040a0:	4770      	bx	lr
 80040a2:	bf00      	nop

080040a4 <HAL_TIM_OC_Init>:
 80040a4:	2800      	cmp	r0, #0
 80040a6:	f000 809e 	beq.w	80041e6 <HAL_TIM_OC_Init+0x142>
 80040aa:	b538      	push	{r3, r4, r5, lr}
 80040ac:	f890 303d 	ldrb.w	r3, [r0, #61]	; 0x3d
 80040b0:	4604      	mov	r4, r0
 80040b2:	f003 02ff 	and.w	r2, r3, #255	; 0xff
 80040b6:	2b00      	cmp	r3, #0
 80040b8:	f000 8090 	beq.w	80041dc <HAL_TIM_OC_Init+0x138>
 80040bc:	6822      	ldr	r2, [r4, #0]
 80040be:	2100      	movs	r1, #0
 80040c0:	2302      	movs	r3, #2
 80040c2:	f2c4 0101 	movt	r1, #16385	; 0x4001
 80040c6:	f884 303d 	strb.w	r3, [r4, #61]	; 0x3d
 80040ca:	428a      	cmp	r2, r1
 80040cc:	6813      	ldr	r3, [r2, #0]
 80040ce:	d071      	beq.n	80041b4 <HAL_TIM_OC_Init+0x110>
 80040d0:	f1b2 4f80 	cmp.w	r2, #1073741824	; 0x40000000
 80040d4:	d045      	beq.n	8004162 <HAL_TIM_OC_Init+0xbe>
 80040d6:	f44f 6180 	mov.w	r1, #1024	; 0x400
 80040da:	f2c4 0100 	movt	r1, #16384	; 0x4000
 80040de:	428a      	cmp	r2, r1
 80040e0:	d03f      	beq.n	8004162 <HAL_TIM_OC_Init+0xbe>
 80040e2:	f44f 6100 	mov.w	r1, #2048	; 0x800
 80040e6:	f2c4 0100 	movt	r1, #16384	; 0x4000
 80040ea:	428a      	cmp	r2, r1
 80040ec:	d039      	beq.n	8004162 <HAL_TIM_OC_Init+0xbe>
 80040ee:	f44f 6140 	mov.w	r1, #3072	; 0xc00
 80040f2:	f2c4 0100 	movt	r1, #16384	; 0x4000
 80040f6:	428a      	cmp	r2, r1
 80040f8:	d033      	beq.n	8004162 <HAL_TIM_OC_Init+0xbe>
 80040fa:	f44f 6180 	mov.w	r1, #1024	; 0x400
 80040fe:	f2c4 0101 	movt	r1, #16385	; 0x4001
 8004102:	428a      	cmp	r2, r1
 8004104:	d056      	beq.n	80041b4 <HAL_TIM_OC_Init+0x110>
 8004106:	f44f 4180 	mov.w	r1, #16384	; 0x4000
 800410a:	f2c4 0101 	movt	r1, #16385	; 0x4001
 800410e:	428a      	cmp	r2, r1
 8004110:	d02b      	beq.n	800416a <HAL_TIM_OC_Init+0xc6>
 8004112:	f44f 4188 	mov.w	r1, #17408	; 0x4400
 8004116:	f2c4 0101 	movt	r1, #16385	; 0x4001
 800411a:	428a      	cmp	r2, r1
 800411c:	d025      	beq.n	800416a <HAL_TIM_OC_Init+0xc6>
 800411e:	f44f 4190 	mov.w	r1, #18432	; 0x4800
 8004122:	f2c4 0101 	movt	r1, #16385	; 0x4001
 8004126:	428a      	cmp	r2, r1
 8004128:	d01f      	beq.n	800416a <HAL_TIM_OC_Init+0xc6>
 800412a:	f44f 51c0 	mov.w	r1, #6144	; 0x1800
 800412e:	f2c4 0100 	movt	r1, #16384	; 0x4000
 8004132:	428a      	cmp	r2, r1
 8004134:	d019      	beq.n	800416a <HAL_TIM_OC_Init+0xc6>
 8004136:	f44f 51e0 	mov.w	r1, #7168	; 0x1c00
 800413a:	f2c4 0100 	movt	r1, #16384	; 0x4000
 800413e:	428a      	cmp	r2, r1
 8004140:	d013      	beq.n	800416a <HAL_TIM_OC_Init+0xc6>
 8004142:	f44f 5100 	mov.w	r1, #8192	; 0x2000
 8004146:	f2c4 0100 	movt	r1, #16384	; 0x4000
 800414a:	428a      	cmp	r2, r1
 800414c:	d00d      	beq.n	800416a <HAL_TIM_OC_Init+0xc6>
 800414e:	69a5      	ldr	r5, [r4, #24]
 8004150:	68e0      	ldr	r0, [r4, #12]
 8004152:	6861      	ldr	r1, [r4, #4]
 8004154:	f023 0380 	bic.w	r3, r3, #128	; 0x80
 8004158:	432b      	orrs	r3, r5
 800415a:	6013      	str	r3, [r2, #0]
 800415c:	62d0      	str	r0, [r2, #44]	; 0x2c
 800415e:	6291      	str	r1, [r2, #40]	; 0x28
 8004160:	e010      	b.n	8004184 <HAL_TIM_OC_Init+0xe0>
 8004162:	68a1      	ldr	r1, [r4, #8]
 8004164:	f023 0370 	bic.w	r3, r3, #112	; 0x70
 8004168:	430b      	orrs	r3, r1
 800416a:	6925      	ldr	r5, [r4, #16]
 800416c:	69a1      	ldr	r1, [r4, #24]
 800416e:	68e0      	ldr	r0, [r4, #12]
 8004170:	f423 7340 	bic.w	r3, r3, #768	; 0x300
 8004174:	432b      	orrs	r3, r5
 8004176:	f023 0380 	bic.w	r3, r3, #128	; 0x80
 800417a:	430b      	orrs	r3, r1
 800417c:	6861      	ldr	r1, [r4, #4]
 800417e:	6013      	str	r3, [r2, #0]
 8004180:	62d0      	str	r0, [r2, #44]	; 0x2c
 8004182:	6291      	str	r1, [r2, #40]	; 0x28
 8004184:	2301      	movs	r3, #1
 8004186:	6153      	str	r3, [r2, #20]
 8004188:	f884 3046 	strb.w	r3, [r4, #70]	; 0x46
 800418c:	f884 303e 	strb.w	r3, [r4, #62]	; 0x3e
 8004190:	f884 303f 	strb.w	r3, [r4, #63]	; 0x3f
 8004194:	f884 3040 	strb.w	r3, [r4, #64]	; 0x40
 8004198:	f884 3041 	strb.w	r3, [r4, #65]	; 0x41
 800419c:	f884 3042 	strb.w	r3, [r4, #66]	; 0x42
 80041a0:	f884 3043 	strb.w	r3, [r4, #67]	; 0x43
 80041a4:	f884 3044 	strb.w	r3, [r4, #68]	; 0x44
 80041a8:	f884 3045 	strb.w	r3, [r4, #69]	; 0x45
 80041ac:	f884 303d 	strb.w	r3, [r4, #61]	; 0x3d
 80041b0:	2000      	movs	r0, #0
 80041b2:	bd38      	pop	{r3, r4, r5, pc}
 80041b4:	68a5      	ldr	r5, [r4, #8]
 80041b6:	6920      	ldr	r0, [r4, #16]
 80041b8:	69a1      	ldr	r1, [r4, #24]
 80041ba:	f023 0370 	bic.w	r3, r3, #112	; 0x70
 80041be:	432b      	orrs	r3, r5
 80041c0:	f423 7340 	bic.w	r3, r3, #768	; 0x300
 80041c4:	4303      	orrs	r3, r0
 80041c6:	f023 0380 	bic.w	r3, r3, #128	; 0x80
 80041ca:	430b      	orrs	r3, r1
 80041cc:	6013      	str	r3, [r2, #0]
 80041ce:	68e3      	ldr	r3, [r4, #12]
 80041d0:	62d3      	str	r3, [r2, #44]	; 0x2c
 80041d2:	6863      	ldr	r3, [r4, #4]
 80041d4:	6293      	str	r3, [r2, #40]	; 0x28
 80041d6:	6963      	ldr	r3, [r4, #20]
 80041d8:	6313      	str	r3, [r2, #48]	; 0x30
 80041da:	e7d3      	b.n	8004184 <HAL_TIM_OC_Init+0xe0>
 80041dc:	f880 203c 	strb.w	r2, [r0, #60]	; 0x3c
 80041e0:	f7ff ff5e 	bl	80040a0 <HAL_TIM_OC_MspInit>
 80041e4:	e76a      	b.n	80040bc <HAL_TIM_OC_Init+0x18>
 80041e6:	2001      	movs	r0, #1
 80041e8:	4770      	bx	lr
 80041ea:	bf00      	nop

080041ec <HAL_TIM_OC_MspDeInit>:
 80041ec:	4770      	bx	lr
 80041ee:	bf00      	nop

080041f0 <HAL_TIM_OC_DeInit>:
 80041f0:	2202      	movs	r2, #2
 80041f2:	6803      	ldr	r3, [r0, #0]
 80041f4:	b510      	push	{r4, lr}
 80041f6:	f880 203d 	strb.w	r2, [r0, #61]	; 0x3d
 80041fa:	6a19      	ldr	r1, [r3, #32]
 80041fc:	f241 1211 	movw	r2, #4369	; 0x1111
 8004200:	4211      	tst	r1, r2
 8004202:	4604      	mov	r4, r0
 8004204:	d108      	bne.n	8004218 <HAL_TIM_OC_DeInit+0x28>
 8004206:	6a19      	ldr	r1, [r3, #32]
 8004208:	f240 4244 	movw	r2, #1092	; 0x444
 800420c:	4211      	tst	r1, r2
 800420e:	d103      	bne.n	8004218 <HAL_TIM_OC_DeInit+0x28>
 8004210:	681a      	ldr	r2, [r3, #0]
 8004212:	f022 0201 	bic.w	r2, r2, #1
 8004216:	601a      	str	r2, [r3, #0]
 8004218:	4620      	mov	r0, r4
 800421a:	f7ff ffe7 	bl	80041ec <HAL_TIM_OC_MspDeInit>
 800421e:	2000      	movs	r0, #0
 8004220:	f884 0046 	strb.w	r0, [r4, #70]	; 0x46
 8004224:	f884 003c 	strb.w	r0, [r4, #60]	; 0x3c
 8004228:	f884 003e 	strb.w	r0, [r4, #62]	; 0x3e
 800422c:	f884 003f 	strb.w	r0, [r4, #63]	; 0x3f
 8004230:	f884 0040 	strb.w	r0, [r4, #64]	; 0x40
 8004234:	f884 0041 	strb.w	r0, [r4, #65]	; 0x41
 8004238:	f884 0042 	strb.w	r0, [r4, #66]	; 0x42
 800423c:	f884 0043 	strb.w	r0, [r4, #67]	; 0x43
 8004240:	f884 0044 	strb.w	r0, [r4, #68]	; 0x44
 8004244:	f884 0045 	strb.w	r0, [r4, #69]	; 0x45
 8004248:	f884 003d 	strb.w	r0, [r4, #61]	; 0x3d
 800424c:	bd10      	pop	{r4, pc}
 800424e:	bf00      	nop

08004250 <HAL_TIM_OC_Start>:
 8004250:	2900      	cmp	r1, #0
 8004252:	d14a      	bne.n	80042ea <HAL_TIM_OC_Start+0x9a>
 8004254:	f890 303e 	ldrb.w	r3, [r0, #62]	; 0x3e
 8004258:	2b01      	cmp	r3, #1
 800425a:	d14e      	bne.n	80042fa <HAL_TIM_OC_Start+0xaa>
 800425c:	2302      	movs	r3, #2
 800425e:	f880 303e 	strb.w	r3, [r0, #62]	; 0x3e
 8004262:	6803      	ldr	r3, [r0, #0]
 8004264:	2201      	movs	r2, #1
 8004266:	6a18      	ldr	r0, [r3, #32]
 8004268:	f001 011f 	and.w	r1, r1, #31
 800426c:	fa02 f101 	lsl.w	r1, r2, r1
 8004270:	ea20 0001 	bic.w	r0, r0, r1
 8004274:	6218      	str	r0, [r3, #32]
 8004276:	6a18      	ldr	r0, [r3, #32]
 8004278:	2200      	movs	r2, #0
 800427a:	f2c4 0201 	movt	r2, #16385	; 0x4001
 800427e:	4301      	orrs	r1, r0
 8004280:	4293      	cmp	r3, r2
 8004282:	6219      	str	r1, [r3, #32]
 8004284:	d03b      	beq.n	80042fe <HAL_TIM_OC_Start+0xae>
 8004286:	f44f 6280 	mov.w	r2, #1024	; 0x400
 800428a:	f2c4 0201 	movt	r2, #16385	; 0x4001
 800428e:	4293      	cmp	r3, r2
 8004290:	d035      	beq.n	80042fe <HAL_TIM_OC_Start+0xae>
 8004292:	f1b3 4f80 	cmp.w	r3, #1073741824	; 0x40000000
 8004296:	d01d      	beq.n	80042d4 <HAL_TIM_OC_Start+0x84>
 8004298:	f44f 6280 	mov.w	r2, #1024	; 0x400
 800429c:	f2c4 0200 	movt	r2, #16384	; 0x4000
 80042a0:	4293      	cmp	r3, r2
 80042a2:	d017      	beq.n	80042d4 <HAL_TIM_OC_Start+0x84>
 80042a4:	f44f 6200 	mov.w	r2, #2048	; 0x800
 80042a8:	f2c4 0200 	movt	r2, #16384	; 0x4000
 80042ac:	4293      	cmp	r3, r2
 80042ae:	d011      	beq.n	80042d4 <HAL_TIM_OC_Start+0x84>
 80042b0:	f44f 6240 	mov.w	r2, #3072	; 0xc00
 80042b4:	f2c4 0200 	movt	r2, #16384	; 0x4000
 80042b8:	4293      	cmp	r3, r2
 80042ba:	d00b      	beq.n	80042d4 <HAL_TIM_OC_Start+0x84>
 80042bc:	f44f 4280 	mov.w	r2, #16384	; 0x4000
 80042c0:	f2c4 0201 	movt	r2, #16385	; 0x4001
 80042c4:	4293      	cmp	r3, r2
 80042c6:	d005      	beq.n	80042d4 <HAL_TIM_OC_Start+0x84>
 80042c8:	f44f 52c0 	mov.w	r2, #6144	; 0x1800
 80042cc:	f2c4 0200 	movt	r2, #16384	; 0x4000
 80042d0:	4293      	cmp	r3, r2
 80042d2:	d104      	bne.n	80042de <HAL_TIM_OC_Start+0x8e>
 80042d4:	689a      	ldr	r2, [r3, #8]
 80042d6:	f002 0207 	and.w	r2, r2, #7
 80042da:	2a06      	cmp	r2, #6
 80042dc:	d018      	beq.n	8004310 <HAL_TIM_OC_Start+0xc0>
 80042de:	681a      	ldr	r2, [r3, #0]
 80042e0:	f042 0201 	orr.w	r2, r2, #1
 80042e4:	601a      	str	r2, [r3, #0]
 80042e6:	2000      	movs	r0, #0
 80042e8:	4770      	bx	lr
 80042ea:	2904      	cmp	r1, #4
 80042ec:	d016      	beq.n	800431c <HAL_TIM_OC_Start+0xcc>
 80042ee:	2908      	cmp	r1, #8
 80042f0:	d01c      	beq.n	800432c <HAL_TIM_OC_Start+0xdc>
 80042f2:	f890 3041 	ldrb.w	r3, [r0, #65]	; 0x41
 80042f6:	2b01      	cmp	r3, #1
 80042f8:	d00c      	beq.n	8004314 <HAL_TIM_OC_Start+0xc4>
 80042fa:	2001      	movs	r0, #1
 80042fc:	4770      	bx	lr
 80042fe:	6c5a      	ldr	r2, [r3, #68]	; 0x44
 8004300:	f442 4200 	orr.w	r2, r2, #32768	; 0x8000
 8004304:	645a      	str	r2, [r3, #68]	; 0x44
 8004306:	689a      	ldr	r2, [r3, #8]
 8004308:	f002 0207 	and.w	r2, r2, #7
 800430c:	2a06      	cmp	r2, #6
 800430e:	d1e6      	bne.n	80042de <HAL_TIM_OC_Start+0x8e>
 8004310:	2000      	movs	r0, #0
 8004312:	4770      	bx	lr
 8004314:	2302      	movs	r3, #2
 8004316:	f880 3041 	strb.w	r3, [r0, #65]	; 0x41
 800431a:	e7a2      	b.n	8004262 <HAL_TIM_OC_Start+0x12>
 800431c:	f890 303f 	ldrb.w	r3, [r0, #63]	; 0x3f
 8004320:	2b01      	cmp	r3, #1
 8004322:	d1ea      	bne.n	80042fa <HAL_TIM_OC_Start+0xaa>
 8004324:	2302      	movs	r3, #2
 8004326:	f880 303f 	strb.w	r3, [r0, #63]	; 0x3f
 800432a:	e79a      	b.n	8004262 <HAL_TIM_OC_Start+0x12>
 800432c:	f890 3040 	ldrb.w	r3, [r0, #64]	; 0x40
 8004330:	2b01      	cmp	r3, #1
 8004332:	d1e2      	bne.n	80042fa <HAL_TIM_OC_Start+0xaa>
 8004334:	2302      	movs	r3, #2
 8004336:	f880 3040 	strb.w	r3, [r0, #64]	; 0x40
 800433a:	e792      	b.n	8004262 <HAL_TIM_OC_Start+0x12>

0800433c <HAL_TIM_OC_Stop>:
 800433c:	6803      	ldr	r3, [r0, #0]
 800433e:	b430      	push	{r4, r5}
 8004340:	6a1a      	ldr	r2, [r3, #32]
 8004342:	f001 051f 	and.w	r5, r1, #31
 8004346:	2401      	movs	r4, #1
 8004348:	40ac      	lsls	r4, r5
 800434a:	ea22 0204 	bic.w	r2, r2, r4
 800434e:	621a      	str	r2, [r3, #32]
 8004350:	2200      	movs	r2, #0
 8004352:	f2c4 0201 	movt	r2, #16385	; 0x4001
 8004356:	6a1c      	ldr	r4, [r3, #32]
 8004358:	621c      	str	r4, [r3, #32]
 800435a:	4293      	cmp	r3, r2
 800435c:	d016      	beq.n	800438c <HAL_TIM_OC_Stop+0x50>
 800435e:	f44f 6280 	mov.w	r2, #1024	; 0x400
 8004362:	f2c4 0201 	movt	r2, #16385	; 0x4001
 8004366:	4293      	cmp	r3, r2
 8004368:	d010      	beq.n	800438c <HAL_TIM_OC_Stop+0x50>
 800436a:	6a1c      	ldr	r4, [r3, #32]
 800436c:	f241 1211 	movw	r2, #4369	; 0x1111
 8004370:	4214      	tst	r4, r2
 8004372:	d104      	bne.n	800437e <HAL_TIM_OC_Stop+0x42>
 8004374:	6a1c      	ldr	r4, [r3, #32]
 8004376:	f240 4244 	movw	r2, #1092	; 0x444
 800437a:	4214      	tst	r4, r2
 800437c:	d020      	beq.n	80043c0 <HAL_TIM_OC_Stop+0x84>
 800437e:	2301      	movs	r3, #1
 8004380:	b999      	cbnz	r1, 80043aa <HAL_TIM_OC_Stop+0x6e>
 8004382:	f880 303e 	strb.w	r3, [r0, #62]	; 0x3e
 8004386:	bc30      	pop	{r4, r5}
 8004388:	2000      	movs	r0, #0
 800438a:	4770      	bx	lr
 800438c:	6a1c      	ldr	r4, [r3, #32]
 800438e:	f241 1211 	movw	r2, #4369	; 0x1111
 8004392:	4214      	tst	r4, r2
 8004394:	d1e9      	bne.n	800436a <HAL_TIM_OC_Stop+0x2e>
 8004396:	6a1c      	ldr	r4, [r3, #32]
 8004398:	f240 4244 	movw	r2, #1092	; 0x444
 800439c:	4214      	tst	r4, r2
 800439e:	d1e4      	bne.n	800436a <HAL_TIM_OC_Stop+0x2e>
 80043a0:	6c5a      	ldr	r2, [r3, #68]	; 0x44
 80043a2:	f422 4200 	bic.w	r2, r2, #32768	; 0x8000
 80043a6:	645a      	str	r2, [r3, #68]	; 0x44
 80043a8:	e7df      	b.n	800436a <HAL_TIM_OC_Stop+0x2e>
 80043aa:	2904      	cmp	r1, #4
 80043ac:	d00d      	beq.n	80043ca <HAL_TIM_OC_Stop+0x8e>
 80043ae:	2908      	cmp	r1, #8
 80043b0:	bf0c      	ite	eq
 80043b2:	f880 3040 	strbeq.w	r3, [r0, #64]	; 0x40
 80043b6:	f880 3041 	strbne.w	r3, [r0, #65]	; 0x41
 80043ba:	bc30      	pop	{r4, r5}
 80043bc:	2000      	movs	r0, #0
 80043be:	4770      	bx	lr
 80043c0:	681a      	ldr	r2, [r3, #0]
 80043c2:	f022 0201 	bic.w	r2, r2, #1
 80043c6:	601a      	str	r2, [r3, #0]
 80043c8:	e7d9      	b.n	800437e <HAL_TIM_OC_Stop+0x42>
 80043ca:	f880 303f 	strb.w	r3, [r0, #63]	; 0x3f
 80043ce:	bc30      	pop	{r4, r5}
 80043d0:	2000      	movs	r0, #0
 80043d2:	4770      	bx	lr

080043d4 <HAL_TIM_OC_Start_IT>:
 80043d4:	2900      	cmp	r1, #0
 80043d6:	d14f      	bne.n	8004478 <HAL_TIM_OC_Start_IT+0xa4>
 80043d8:	f890 303e 	ldrb.w	r3, [r0, #62]	; 0x3e
 80043dc:	2b01      	cmp	r3, #1
 80043de:	d154      	bne.n	800448a <HAL_TIM_OC_Start_IT+0xb6>
 80043e0:	2302      	movs	r3, #2
 80043e2:	f880 303e 	strb.w	r3, [r0, #62]	; 0x3e
 80043e6:	6803      	ldr	r3, [r0, #0]
 80043e8:	68da      	ldr	r2, [r3, #12]
 80043ea:	f042 0202 	orr.w	r2, r2, #2
 80043ee:	60da      	str	r2, [r3, #12]
 80043f0:	6a18      	ldr	r0, [r3, #32]
 80043f2:	2201      	movs	r2, #1
 80043f4:	f001 011f 	and.w	r1, r1, #31
 80043f8:	fa02 f101 	lsl.w	r1, r2, r1
 80043fc:	ea20 0001 	bic.w	r0, r0, r1
 8004400:	6218      	str	r0, [r3, #32]
 8004402:	6a18      	ldr	r0, [r3, #32]
 8004404:	2200      	movs	r2, #0
 8004406:	f2c4 0201 	movt	r2, #16385	; 0x4001
 800440a:	4301      	orrs	r1, r0
 800440c:	4293      	cmp	r3, r2
 800440e:	6219      	str	r1, [r3, #32]
 8004410:	d060      	beq.n	80044d4 <HAL_TIM_OC_Start_IT+0x100>
 8004412:	f44f 6280 	mov.w	r2, #1024	; 0x400
 8004416:	f2c4 0201 	movt	r2, #16385	; 0x4001
 800441a:	4293      	cmp	r3, r2
 800441c:	d05a      	beq.n	80044d4 <HAL_TIM_OC_Start_IT+0x100>
 800441e:	f1b3 4f80 	cmp.w	r3, #1073741824	; 0x40000000
 8004422:	d01d      	beq.n	8004460 <HAL_TIM_OC_Start_IT+0x8c>
 8004424:	f44f 6280 	mov.w	r2, #1024	; 0x400
 8004428:	f2c4 0200 	movt	r2, #16384	; 0x4000
 800442c:	4293      	cmp	r3, r2
 800442e:	d017      	beq.n	8004460 <HAL_TIM_OC_Start_IT+0x8c>
 8004430:	f44f 6200 	mov.w	r2, #2048	; 0x800
 8004434:	f2c4 0200 	movt	r2, #16384	; 0x4000
 8004438:	4293      	cmp	r3, r2
 800443a:	d011      	beq.n	8004460 <HAL_TIM_OC_Start_IT+0x8c>
 800443c:	f44f 6240 	mov.w	r2, #3072	; 0xc00
 8004440:	f2c4 0200 	movt	r2, #16384	; 0x4000
 8004444:	4293      	cmp	r3, r2
 8004446:	d00b      	beq.n	8004460 <HAL_TIM_OC_Start_IT+0x8c>
 8004448:	f44f 4280 	mov.w	r2, #16384	; 0x4000
 800444c:	f2c4 0201 	movt	r2, #16385	; 0x4001
 8004450:	4293      	cmp	r3, r2
 8004452:	d005      	beq.n	8004460 <HAL_TIM_OC_Start_IT+0x8c>
 8004454:	f44f 52c0 	mov.w	r2, #6144	; 0x1800
 8004458:	f2c4 0200 	movt	r2, #16384	; 0x4000
 800445c:	4293      	cmp	r3, r2
 800445e:	d104      	bne.n	800446a <HAL_TIM_OC_Start_IT+0x96>
 8004460:	689a      	ldr	r2, [r3, #8]
 8004462:	f002 0207 	and.w	r2, r2, #7
 8004466:	2a06      	cmp	r2, #6
 8004468:	d03d      	beq.n	80044e6 <HAL_TIM_OC_Start_IT+0x112>
 800446a:	681a      	ldr	r2, [r3, #0]
 800446c:	f042 0201 	orr.w	r2, r2, #1
 8004470:	601a      	str	r2, [r3, #0]
 8004472:	2300      	movs	r3, #0
 8004474:	4618      	mov	r0, r3
 8004476:	4770      	bx	lr
 8004478:	2904      	cmp	r1, #4
 800447a:	d03d      	beq.n	80044f8 <HAL_TIM_OC_Start_IT+0x124>
 800447c:	2908      	cmp	r1, #8
 800447e:	d048      	beq.n	8004512 <HAL_TIM_OC_Start_IT+0x13e>
 8004480:	f890 2041 	ldrb.w	r2, [r0, #65]	; 0x41
 8004484:	2a01      	cmp	r2, #1
 8004486:	b2d3      	uxtb	r3, r2
 8004488:	d002      	beq.n	8004490 <HAL_TIM_OC_Start_IT+0xbc>
 800448a:	2301      	movs	r3, #1
 800448c:	4618      	mov	r0, r3
 800448e:	4770      	bx	lr
 8004490:	2202      	movs	r2, #2
 8004492:	f880 2041 	strb.w	r2, [r0, #65]	; 0x41
 8004496:	290c      	cmp	r1, #12
 8004498:	d8f8      	bhi.n	800448c <HAL_TIM_OC_Start_IT+0xb8>
 800449a:	a201      	add	r2, pc, #4	; (adr r2, 80044a0 <HAL_TIM_OC_Start_IT+0xcc>)
 800449c:	f852 f021 	ldr.w	pc, [r2, r1, lsl #2]
 80044a0:	080043e7 	.word	0x080043e7
 80044a4:	0800448d 	.word	0x0800448d
 80044a8:	0800448d 	.word	0x0800448d
 80044ac:	0800448d 	.word	0x0800448d
 80044b0:	08004507 	.word	0x08004507
 80044b4:	0800448d 	.word	0x0800448d
 80044b8:	0800448d 	.word	0x0800448d
 80044bc:	0800448d 	.word	0x0800448d
 80044c0:	0800448d 	.word	0x0800448d
 80044c4:	0800448d 	.word	0x0800448d
 80044c8:	0800448d 	.word	0x0800448d
 80044cc:	0800448d 	.word	0x0800448d
 80044d0:	080044ed 	.word	0x080044ed
 80044d4:	6c5a      	ldr	r2, [r3, #68]	; 0x44
 80044d6:	f442 4200 	orr.w	r2, r2, #32768	; 0x8000
 80044da:	645a      	str	r2, [r3, #68]	; 0x44
 80044dc:	689a      	ldr	r2, [r3, #8]
 80044de:	f002 0207 	and.w	r2, r2, #7
 80044e2:	2a06      	cmp	r2, #6
 80044e4:	d1c1      	bne.n	800446a <HAL_TIM_OC_Start_IT+0x96>
 80044e6:	2300      	movs	r3, #0
 80044e8:	4618      	mov	r0, r3
 80044ea:	4770      	bx	lr
 80044ec:	6803      	ldr	r3, [r0, #0]
 80044ee:	68da      	ldr	r2, [r3, #12]
 80044f0:	f042 0210 	orr.w	r2, r2, #16
 80044f4:	60da      	str	r2, [r3, #12]
 80044f6:	e77b      	b.n	80043f0 <HAL_TIM_OC_Start_IT+0x1c>
 80044f8:	f890 303f 	ldrb.w	r3, [r0, #63]	; 0x3f
 80044fc:	2b01      	cmp	r3, #1
 80044fe:	d1c4      	bne.n	800448a <HAL_TIM_OC_Start_IT+0xb6>
 8004500:	2302      	movs	r3, #2
 8004502:	f880 303f 	strb.w	r3, [r0, #63]	; 0x3f
 8004506:	6803      	ldr	r3, [r0, #0]
 8004508:	68da      	ldr	r2, [r3, #12]
 800450a:	f042 0204 	orr.w	r2, r2, #4
 800450e:	60da      	str	r2, [r3, #12]
 8004510:	e76e      	b.n	80043f0 <HAL_TIM_OC_Start_IT+0x1c>
 8004512:	f890 3040 	ldrb.w	r3, [r0, #64]	; 0x40
 8004516:	2b01      	cmp	r3, #1
 8004518:	d1b7      	bne.n	800448a <HAL_TIM_OC_Start_IT+0xb6>
 800451a:	6803      	ldr	r3, [r0, #0]
 800451c:	2202      	movs	r2, #2
 800451e:	f880 2040 	strb.w	r2, [r0, #64]	; 0x40
 8004522:	68da      	ldr	r2, [r3, #12]
 8004524:	f042 0208 	orr.w	r2, r2, #8
 8004528:	60da      	str	r2, [r3, #12]
 800452a:	e761      	b.n	80043f0 <HAL_TIM_OC_Start_IT+0x1c>

0800452c <HAL_TIM_OC_Stop_IT>:
 800452c:	290c      	cmp	r1, #12
 800452e:	d808      	bhi.n	8004542 <HAL_TIM_OC_Stop_IT+0x16>
 8004530:	e8df f001 	tbb	[pc, r1]
 8004534:	0707073a 	.word	0x0707073a
 8004538:	07070740 	.word	0x07070740
 800453c:	07070746 	.word	0x07070746
 8004540:	0a          	.byte	0x0a
 8004541:	00          	.byte	0x00
 8004542:	2101      	movs	r1, #1
 8004544:	4608      	mov	r0, r1
 8004546:	4770      	bx	lr
 8004548:	6803      	ldr	r3, [r0, #0]
 800454a:	68da      	ldr	r2, [r3, #12]
 800454c:	f022 0210 	bic.w	r2, r2, #16
 8004550:	60da      	str	r2, [r3, #12]
 8004552:	b430      	push	{r4, r5}
 8004554:	6a1a      	ldr	r2, [r3, #32]
 8004556:	f001 051f 	and.w	r5, r1, #31
 800455a:	2401      	movs	r4, #1
 800455c:	40ac      	lsls	r4, r5
 800455e:	ea22 0204 	bic.w	r2, r2, r4
 8004562:	621a      	str	r2, [r3, #32]
 8004564:	2200      	movs	r2, #0
 8004566:	f2c4 0201 	movt	r2, #16385	; 0x4001
 800456a:	6a1c      	ldr	r4, [r3, #32]
 800456c:	621c      	str	r4, [r3, #32]
 800456e:	4293      	cmp	r3, r2
 8004570:	d02c      	beq.n	80045cc <HAL_TIM_OC_Stop_IT+0xa0>
 8004572:	f44f 6280 	mov.w	r2, #1024	; 0x400
 8004576:	f2c4 0201 	movt	r2, #16385	; 0x4001
 800457a:	4293      	cmp	r3, r2
 800457c:	d026      	beq.n	80045cc <HAL_TIM_OC_Stop_IT+0xa0>
 800457e:	6a1c      	ldr	r4, [r3, #32]
 8004580:	f241 1211 	movw	r2, #4369	; 0x1111
 8004584:	4214      	tst	r4, r2
 8004586:	d108      	bne.n	800459a <HAL_TIM_OC_Stop_IT+0x6e>
 8004588:	6a1c      	ldr	r4, [r3, #32]
 800458a:	f240 4244 	movw	r2, #1092	; 0x444
 800458e:	4214      	tst	r4, r2
 8004590:	d103      	bne.n	800459a <HAL_TIM_OC_Stop_IT+0x6e>
 8004592:	681a      	ldr	r2, [r3, #0]
 8004594:	f022 0201 	bic.w	r2, r2, #1
 8004598:	601a      	str	r2, [r3, #0]
 800459a:	2301      	movs	r3, #1
 800459c:	bb29      	cbnz	r1, 80045ea <HAL_TIM_OC_Stop_IT+0xbe>
 800459e:	f880 303e 	strb.w	r3, [r0, #62]	; 0x3e
 80045a2:	bc30      	pop	{r4, r5}
 80045a4:	4608      	mov	r0, r1
 80045a6:	4770      	bx	lr
 80045a8:	6803      	ldr	r3, [r0, #0]
 80045aa:	68da      	ldr	r2, [r3, #12]
 80045ac:	f022 0202 	bic.w	r2, r2, #2
 80045b0:	60da      	str	r2, [r3, #12]
 80045b2:	e7ce      	b.n	8004552 <HAL_TIM_OC_Stop_IT+0x26>
 80045b4:	6803      	ldr	r3, [r0, #0]
 80045b6:	68da      	ldr	r2, [r3, #12]
 80045b8:	f022 0204 	bic.w	r2, r2, #4
 80045bc:	60da      	str	r2, [r3, #12]
 80045be:	e7c8      	b.n	8004552 <HAL_TIM_OC_Stop_IT+0x26>
 80045c0:	6803      	ldr	r3, [r0, #0]
 80045c2:	68da      	ldr	r2, [r3, #12]
 80045c4:	f022 0208 	bic.w	r2, r2, #8
 80045c8:	60da      	str	r2, [r3, #12]
 80045ca:	e7c2      	b.n	8004552 <HAL_TIM_OC_Stop_IT+0x26>
 80045cc:	6a1c      	ldr	r4, [r3, #32]
 80045ce:	f241 1211 	movw	r2, #4369	; 0x1111
 80045d2:	4214      	tst	r4, r2
 80045d4:	d1d3      	bne.n	800457e <HAL_TIM_OC_Stop_IT+0x52>
 80045d6:	6a1c      	ldr	r4, [r3, #32]
 80045d8:	f240 4244 	movw	r2, #1092	; 0x444
 80045dc:	4214      	tst	r4, r2
 80045de:	d1ce      	bne.n	800457e <HAL_TIM_OC_Stop_IT+0x52>
 80045e0:	6c5a      	ldr	r2, [r3, #68]	; 0x44
 80045e2:	f422 4200 	bic.w	r2, r2, #32768	; 0x8000
 80045e6:	645a      	str	r2, [r3, #68]	; 0x44
 80045e8:	e7c9      	b.n	800457e <HAL_TIM_OC_Stop_IT+0x52>
 80045ea:	2904      	cmp	r1, #4
 80045ec:	d009      	beq.n	8004602 <HAL_TIM_OC_Stop_IT+0xd6>
 80045ee:	2908      	cmp	r1, #8
 80045f0:	bf0c      	ite	eq
 80045f2:	f880 3040 	strbeq.w	r3, [r0, #64]	; 0x40
 80045f6:	f880 3041 	strbne.w	r3, [r0, #65]	; 0x41
 80045fa:	2100      	movs	r1, #0
 80045fc:	4608      	mov	r0, r1
 80045fe:	bc30      	pop	{r4, r5}
 8004600:	4770      	bx	lr
 8004602:	f880 303f 	strb.w	r3, [r0, #63]	; 0x3f
 8004606:	2100      	movs	r1, #0
 8004608:	4608      	mov	r0, r1
 800460a:	bc30      	pop	{r4, r5}
 800460c:	4770      	bx	lr
 800460e:	bf00      	nop

08004610 <HAL_TIM_OC_Start_DMA>:
 8004610:	b5f8      	push	{r3, r4, r5, r6, r7, lr}
 8004612:	4605      	mov	r5, r0
 8004614:	460c      	mov	r4, r1
 8004616:	2900      	cmp	r1, #0
 8004618:	d141      	bne.n	800469e <HAL_TIM_OC_Start_DMA+0x8e>
 800461a:	f890 103e 	ldrb.w	r1, [r0, #62]	; 0x3e
 800461e:	2902      	cmp	r1, #2
 8004620:	b2c8      	uxtb	r0, r1
 8004622:	d03b      	beq.n	800469c <HAL_TIM_OC_Start_DMA+0x8c>
 8004624:	f895 003e 	ldrb.w	r0, [r5, #62]	; 0x3e
 8004628:	f1a0 0001 	sub.w	r0, r0, #1
 800462c:	fab0 f080 	clz	r0, r0
 8004630:	0940      	lsrs	r0, r0, #5
 8004632:	2800      	cmp	r0, #0
 8004634:	d046      	beq.n	80046c4 <HAL_TIM_OC_Start_DMA+0xb4>
 8004636:	2a00      	cmp	r2, #0
 8004638:	d07b      	beq.n	8004732 <HAL_TIM_OC_Start_DMA+0x122>
 800463a:	2c00      	cmp	r4, #0
 800463c:	d144      	bne.n	80046c8 <HAL_TIM_OC_Start_DMA+0xb8>
 800463e:	2102      	movs	r1, #2
 8004640:	f885 103e 	strb.w	r1, [r5, #62]	; 0x3e
 8004644:	6a68      	ldr	r0, [r5, #36]	; 0x24
 8004646:	682f      	ldr	r7, [r5, #0]
 8004648:	f647 36d5 	movw	r6, #31701	; 0x7bd5
 800464c:	f6c0 0600 	movt	r6, #2048	; 0x800
 8004650:	63c6      	str	r6, [r0, #60]	; 0x3c
 8004652:	f647 465d 	movw	r6, #31837	; 0x7c5d
 8004656:	f6c0 0600 	movt	r6, #2048	; 0x800
 800465a:	6406      	str	r6, [r0, #64]	; 0x40
 800465c:	f647 663d 	movw	r6, #32317	; 0x7e3d
 8004660:	f6c0 0600 	movt	r6, #2048	; 0x800
 8004664:	4611      	mov	r1, r2
 8004666:	64c6      	str	r6, [r0, #76]	; 0x4c
 8004668:	f107 0234 	add.w	r2, r7, #52	; 0x34
 800466c:	f7fd f8fa 	bl	8001864 <HAL_DMA_Start_IT>
 8004670:	bb40      	cbnz	r0, 80046c4 <HAL_TIM_OC_Start_DMA+0xb4>
 8004672:	682b      	ldr	r3, [r5, #0]
 8004674:	68da      	ldr	r2, [r3, #12]
 8004676:	f442 7200 	orr.w	r2, r2, #512	; 0x200
 800467a:	60da      	str	r2, [r3, #12]
 800467c:	e07c      	b.n	8004778 <HAL_TIM_OC_Start_DMA+0x168>
 800467e:	6c5a      	ldr	r2, [r3, #68]	; 0x44
 8004680:	f442 4200 	orr.w	r2, r2, #32768	; 0x8000
 8004684:	645a      	str	r2, [r3, #68]	; 0x44
 8004686:	689a      	ldr	r2, [r3, #8]
 8004688:	f002 0207 	and.w	r2, r2, #7
 800468c:	2a06      	cmp	r2, #6
 800468e:	f000 8104 	beq.w	800489a <HAL_TIM_OC_Start_DMA+0x28a>
 8004692:	681a      	ldr	r2, [r3, #0]
 8004694:	f042 0201 	orr.w	r2, r2, #1
 8004698:	601a      	str	r2, [r3, #0]
 800469a:	2000      	movs	r0, #0
 800469c:	bdf8      	pop	{r3, r4, r5, r6, r7, pc}
 800469e:	2904      	cmp	r1, #4
 80046a0:	d03a      	beq.n	8004718 <HAL_TIM_OC_Start_DMA+0x108>
 80046a2:	2908      	cmp	r1, #8
 80046a4:	f000 80c8 	beq.w	8004838 <HAL_TIM_OC_Start_DMA+0x228>
 80046a8:	f890 1041 	ldrb.w	r1, [r0, #65]	; 0x41
 80046ac:	2902      	cmp	r1, #2
 80046ae:	b2c8      	uxtb	r0, r1
 80046b0:	d0f4      	beq.n	800469c <HAL_TIM_OC_Start_DMA+0x8c>
 80046b2:	f895 0041 	ldrb.w	r0, [r5, #65]	; 0x41
 80046b6:	f1a0 0001 	sub.w	r0, r0, #1
 80046ba:	fab0 f080 	clz	r0, r0
 80046be:	0940      	lsrs	r0, r0, #5
 80046c0:	2800      	cmp	r0, #0
 80046c2:	d1b8      	bne.n	8004636 <HAL_TIM_OC_Start_DMA+0x26>
 80046c4:	2001      	movs	r0, #1
 80046c6:	bdf8      	pop	{r3, r4, r5, r6, r7, pc}
 80046c8:	2c04      	cmp	r4, #4
 80046ca:	d035      	beq.n	8004738 <HAL_TIM_OC_Start_DMA+0x128>
 80046cc:	2c08      	cmp	r4, #8
 80046ce:	f000 80c1 	beq.w	8004854 <HAL_TIM_OC_Start_DMA+0x244>
 80046d2:	2102      	movs	r1, #2
 80046d4:	f885 1041 	strb.w	r1, [r5, #65]	; 0x41
 80046d8:	2c0c      	cmp	r4, #12
 80046da:	d8f3      	bhi.n	80046c4 <HAL_TIM_OC_Start_DMA+0xb4>
 80046dc:	a101      	add	r1, pc, #4	; (adr r1, 80046e4 <HAL_TIM_OC_Start_DMA+0xd4>)
 80046de:	f851 f024 	ldr.w	pc, [r1, r4, lsl #2]
 80046e2:	bf00      	nop
 80046e4:	08004645 	.word	0x08004645
 80046e8:	080046c5 	.word	0x080046c5
 80046ec:	080046c5 	.word	0x080046c5
 80046f0:	080046c5 	.word	0x080046c5
 80046f4:	0800473f 	.word	0x0800473f
 80046f8:	080046c5 	.word	0x080046c5
 80046fc:	080046c5 	.word	0x080046c5
 8004700:	080046c5 	.word	0x080046c5
 8004704:	080046c5 	.word	0x080046c5
 8004708:	080046c5 	.word	0x080046c5
 800470c:	080046c5 	.word	0x080046c5
 8004710:	080046c5 	.word	0x080046c5
 8004714:	080047fb 	.word	0x080047fb
 8004718:	f890 103f 	ldrb.w	r1, [r0, #63]	; 0x3f
 800471c:	2902      	cmp	r1, #2
 800471e:	b2c8      	uxtb	r0, r1
 8004720:	d0bc      	beq.n	800469c <HAL_TIM_OC_Start_DMA+0x8c>
 8004722:	f895 003f 	ldrb.w	r0, [r5, #63]	; 0x3f
 8004726:	f1a0 0001 	sub.w	r0, r0, #1
 800472a:	fab0 f080 	clz	r0, r0
 800472e:	0940      	lsrs	r0, r0, #5
 8004730:	e77f      	b.n	8004632 <HAL_TIM_OC_Start_DMA+0x22>
 8004732:	2b00      	cmp	r3, #0
 8004734:	d081      	beq.n	800463a <HAL_TIM_OC_Start_DMA+0x2a>
 8004736:	e7c5      	b.n	80046c4 <HAL_TIM_OC_Start_DMA+0xb4>
 8004738:	2102      	movs	r1, #2
 800473a:	f885 103f 	strb.w	r1, [r5, #63]	; 0x3f
 800473e:	6aa8      	ldr	r0, [r5, #40]	; 0x28
 8004740:	682f      	ldr	r7, [r5, #0]
 8004742:	f647 36d5 	movw	r6, #31701	; 0x7bd5
 8004746:	f6c0 0600 	movt	r6, #2048	; 0x800
 800474a:	63c6      	str	r6, [r0, #60]	; 0x3c
 800474c:	f647 465d 	movw	r6, #31837	; 0x7c5d
 8004750:	f6c0 0600 	movt	r6, #2048	; 0x800
 8004754:	6406      	str	r6, [r0, #64]	; 0x40
 8004756:	f647 663d 	movw	r6, #32317	; 0x7e3d
 800475a:	f6c0 0600 	movt	r6, #2048	; 0x800
 800475e:	4611      	mov	r1, r2
 8004760:	64c6      	str	r6, [r0, #76]	; 0x4c
 8004762:	f107 0238 	add.w	r2, r7, #56	; 0x38
 8004766:	f7fd f87d 	bl	8001864 <HAL_DMA_Start_IT>
 800476a:	2800      	cmp	r0, #0
 800476c:	d1aa      	bne.n	80046c4 <HAL_TIM_OC_Start_DMA+0xb4>
 800476e:	682b      	ldr	r3, [r5, #0]
 8004770:	68da      	ldr	r2, [r3, #12]
 8004772:	f442 6280 	orr.w	r2, r2, #1024	; 0x400
 8004776:	60da      	str	r2, [r3, #12]
 8004778:	6a19      	ldr	r1, [r3, #32]
 800477a:	2201      	movs	r2, #1
 800477c:	f004 041f 	and.w	r4, r4, #31
 8004780:	fa02 f404 	lsl.w	r4, r2, r4
 8004784:	ea21 0104 	bic.w	r1, r1, r4
 8004788:	6219      	str	r1, [r3, #32]
 800478a:	6a19      	ldr	r1, [r3, #32]
 800478c:	2200      	movs	r2, #0
 800478e:	f2c4 0201 	movt	r2, #16385	; 0x4001
 8004792:	430c      	orrs	r4, r1
 8004794:	4293      	cmp	r3, r2
 8004796:	621c      	str	r4, [r3, #32]
 8004798:	f43f af71 	beq.w	800467e <HAL_TIM_OC_Start_DMA+0x6e>
 800479c:	f44f 6280 	mov.w	r2, #1024	; 0x400
 80047a0:	f2c4 0201 	movt	r2, #16385	; 0x4001
 80047a4:	4293      	cmp	r3, r2
 80047a6:	f43f af6a 	beq.w	800467e <HAL_TIM_OC_Start_DMA+0x6e>
 80047aa:	f1b3 4f80 	cmp.w	r3, #1073741824	; 0x40000000
 80047ae:	f43f af6a 	beq.w	8004686 <HAL_TIM_OC_Start_DMA+0x76>
 80047b2:	f44f 6280 	mov.w	r2, #1024	; 0x400
 80047b6:	f2c4 0200 	movt	r2, #16384	; 0x4000
 80047ba:	4293      	cmp	r3, r2
 80047bc:	f43f af63 	beq.w	8004686 <HAL_TIM_OC_Start_DMA+0x76>
 80047c0:	f44f 6200 	mov.w	r2, #2048	; 0x800
 80047c4:	f2c4 0200 	movt	r2, #16384	; 0x4000
 80047c8:	4293      	cmp	r3, r2
 80047ca:	f43f af5c 	beq.w	8004686 <HAL_TIM_OC_Start_DMA+0x76>
 80047ce:	f44f 6240 	mov.w	r2, #3072	; 0xc00
 80047d2:	f2c4 0200 	movt	r2, #16384	; 0x4000
 80047d6:	4293      	cmp	r3, r2
 80047d8:	f43f af55 	beq.w	8004686 <HAL_TIM_OC_Start_DMA+0x76>
 80047dc:	f44f 4280 	mov.w	r2, #16384	; 0x4000
 80047e0:	f2c4 0201 	movt	r2, #16385	; 0x4001
 80047e4:	4293      	cmp	r3, r2
 80047e6:	f43f af4e 	beq.w	8004686 <HAL_TIM_OC_Start_DMA+0x76>
 80047ea:	f44f 52c0 	mov.w	r2, #6144	; 0x1800
 80047ee:	f2c4 0200 	movt	r2, #16384	; 0x4000
 80047f2:	4293      	cmp	r3, r2
 80047f4:	f47f af4d 	bne.w	8004692 <HAL_TIM_OC_Start_DMA+0x82>
 80047f8:	e745      	b.n	8004686 <HAL_TIM_OC_Start_DMA+0x76>
 80047fa:	6b28      	ldr	r0, [r5, #48]	; 0x30
 80047fc:	682f      	ldr	r7, [r5, #0]
 80047fe:	f647 36d5 	movw	r6, #31701	; 0x7bd5
 8004802:	f6c0 0600 	movt	r6, #2048	; 0x800
 8004806:	63c6      	str	r6, [r0, #60]	; 0x3c
 8004808:	f647 465d 	movw	r6, #31837	; 0x7c5d
 800480c:	f6c0 0600 	movt	r6, #2048	; 0x800
 8004810:	6406      	str	r6, [r0, #64]	; 0x40
 8004812:	f647 663d 	movw	r6, #32317	; 0x7e3d
 8004816:	f6c0 0600 	movt	r6, #2048	; 0x800
 800481a:	4611      	mov	r1, r2
 800481c:	64c6      	str	r6, [r0, #76]	; 0x4c
 800481e:	f107 0240 	add.w	r2, r7, #64	; 0x40
 8004822:	f7fd f81f 	bl	8001864 <HAL_DMA_Start_IT>
 8004826:	2800      	cmp	r0, #0
 8004828:	f47f af4c 	bne.w	80046c4 <HAL_TIM_OC_Start_DMA+0xb4>
 800482c:	682b      	ldr	r3, [r5, #0]
 800482e:	68da      	ldr	r2, [r3, #12]
 8004830:	f442 5280 	orr.w	r2, r2, #4096	; 0x1000
 8004834:	60da      	str	r2, [r3, #12]
 8004836:	e79f      	b.n	8004778 <HAL_TIM_OC_Start_DMA+0x168>
 8004838:	f890 1040 	ldrb.w	r1, [r0, #64]	; 0x40
 800483c:	2902      	cmp	r1, #2
 800483e:	b2c8      	uxtb	r0, r1
 8004840:	f43f af2c 	beq.w	800469c <HAL_TIM_OC_Start_DMA+0x8c>
 8004844:	f895 0040 	ldrb.w	r0, [r5, #64]	; 0x40
 8004848:	f1a0 0001 	sub.w	r0, r0, #1
 800484c:	fab0 f080 	clz	r0, r0
 8004850:	0940      	lsrs	r0, r0, #5
 8004852:	e6ee      	b.n	8004632 <HAL_TIM_OC_Start_DMA+0x22>
 8004854:	682e      	ldr	r6, [r5, #0]
 8004856:	6ae8      	ldr	r0, [r5, #44]	; 0x2c
 8004858:	4611      	mov	r1, r2
 800485a:	f106 023c 	add.w	r2, r6, #60	; 0x3c
 800485e:	f647 465d 	movw	r6, #31837	; 0x7c5d
 8004862:	f6c0 0600 	movt	r6, #2048	; 0x800
 8004866:	f04f 0c02 	mov.w	ip, #2
 800486a:	f885 c040 	strb.w	ip, [r5, #64]	; 0x40
 800486e:	f647 37d5 	movw	r7, #31701	; 0x7bd5
 8004872:	6406      	str	r6, [r0, #64]	; 0x40
 8004874:	f647 663d 	movw	r6, #32317	; 0x7e3d
 8004878:	f6c0 0700 	movt	r7, #2048	; 0x800
 800487c:	f6c0 0600 	movt	r6, #2048	; 0x800
 8004880:	63c7      	str	r7, [r0, #60]	; 0x3c
 8004882:	64c6      	str	r6, [r0, #76]	; 0x4c
 8004884:	f7fc ffee 	bl	8001864 <HAL_DMA_Start_IT>
 8004888:	2800      	cmp	r0, #0
 800488a:	f47f af1b 	bne.w	80046c4 <HAL_TIM_OC_Start_DMA+0xb4>
 800488e:	682b      	ldr	r3, [r5, #0]
 8004890:	68da      	ldr	r2, [r3, #12]
 8004892:	f442 6200 	orr.w	r2, r2, #2048	; 0x800
 8004896:	60da      	str	r2, [r3, #12]
 8004898:	e76e      	b.n	8004778 <HAL_TIM_OC_Start_DMA+0x168>
 800489a:	2000      	movs	r0, #0
 800489c:	bdf8      	pop	{r3, r4, r5, r6, r7, pc}
 800489e:	bf00      	nop

080048a0 <HAL_TIM_OC_Stop_DMA>:
 80048a0:	b538      	push	{r3, r4, r5, lr}
 80048a2:	460c      	mov	r4, r1
 80048a4:	4605      	mov	r5, r0
 80048a6:	290c      	cmp	r1, #12
 80048a8:	d808      	bhi.n	80048bc <HAL_TIM_OC_Stop_DMA+0x1c>
 80048aa:	e8df f001 	tbb	[pc, r1]
 80048ae:	073b      	.short	0x073b
 80048b0:	07440707 	.word	0x07440707
 80048b4:	074d0707 	.word	0x074d0707
 80048b8:	0707      	.short	0x0707
 80048ba:	09          	.byte	0x09
 80048bb:	00          	.byte	0x00
 80048bc:	2001      	movs	r0, #1
 80048be:	bd38      	pop	{r3, r4, r5, pc}
 80048c0:	6802      	ldr	r2, [r0, #0]
 80048c2:	6b00      	ldr	r0, [r0, #48]	; 0x30
 80048c4:	68d3      	ldr	r3, [r2, #12]
 80048c6:	f423 5380 	bic.w	r3, r3, #4096	; 0x1000
 80048ca:	60d3      	str	r3, [r2, #12]
 80048cc:	f7fd f850 	bl	8001970 <HAL_DMA_Abort_IT>
 80048d0:	682b      	ldr	r3, [r5, #0]
 80048d2:	f004 001f 	and.w	r0, r4, #31
 80048d6:	6a1a      	ldr	r2, [r3, #32]
 80048d8:	2101      	movs	r1, #1
 80048da:	4081      	lsls	r1, r0
 80048dc:	ea22 0201 	bic.w	r2, r2, r1
 80048e0:	621a      	str	r2, [r3, #32]
 80048e2:	2200      	movs	r2, #0
 80048e4:	f2c4 0201 	movt	r2, #16385	; 0x4001
 80048e8:	6a19      	ldr	r1, [r3, #32]
 80048ea:	6219      	str	r1, [r3, #32]
 80048ec:	4293      	cmp	r3, r2
 80048ee:	d034      	beq.n	800495a <HAL_TIM_OC_Stop_DMA+0xba>
 80048f0:	f44f 6280 	mov.w	r2, #1024	; 0x400
 80048f4:	f2c4 0201 	movt	r2, #16385	; 0x4001
 80048f8:	4293      	cmp	r3, r2
 80048fa:	d02e      	beq.n	800495a <HAL_TIM_OC_Stop_DMA+0xba>
 80048fc:	6a19      	ldr	r1, [r3, #32]
 80048fe:	f241 1211 	movw	r2, #4369	; 0x1111
 8004902:	4211      	tst	r1, r2
 8004904:	d108      	bne.n	8004918 <HAL_TIM_OC_Stop_DMA+0x78>
 8004906:	6a19      	ldr	r1, [r3, #32]
 8004908:	f240 4244 	movw	r2, #1092	; 0x444
 800490c:	4211      	tst	r1, r2
 800490e:	d103      	bne.n	8004918 <HAL_TIM_OC_Stop_DMA+0x78>
 8004910:	681a      	ldr	r2, [r3, #0]
 8004912:	f022 0201 	bic.w	r2, r2, #1
 8004916:	601a      	str	r2, [r3, #0]
 8004918:	2301      	movs	r3, #1
 800491a:	bb6c      	cbnz	r4, 8004978 <HAL_TIM_OC_Stop_DMA+0xd8>
 800491c:	f885 303e 	strb.w	r3, [r5, #62]	; 0x3e
 8004920:	4620      	mov	r0, r4
 8004922:	bd38      	pop	{r3, r4, r5, pc}
 8004924:	6802      	ldr	r2, [r0, #0]
 8004926:	6a40      	ldr	r0, [r0, #36]	; 0x24
 8004928:	68d3      	ldr	r3, [r2, #12]
 800492a:	f423 7300 	bic.w	r3, r3, #512	; 0x200
 800492e:	60d3      	str	r3, [r2, #12]
 8004930:	f7fd f81e 	bl	8001970 <HAL_DMA_Abort_IT>
 8004934:	e7cc      	b.n	80048d0 <HAL_TIM_OC_Stop_DMA+0x30>
 8004936:	6802      	ldr	r2, [r0, #0]
 8004938:	6a80      	ldr	r0, [r0, #40]	; 0x28
 800493a:	68d3      	ldr	r3, [r2, #12]
 800493c:	f423 6380 	bic.w	r3, r3, #1024	; 0x400
 8004940:	60d3      	str	r3, [r2, #12]
 8004942:	f7fd f815 	bl	8001970 <HAL_DMA_Abort_IT>
 8004946:	e7c3      	b.n	80048d0 <HAL_TIM_OC_Stop_DMA+0x30>
 8004948:	6802      	ldr	r2, [r0, #0]
 800494a:	6ac0      	ldr	r0, [r0, #44]	; 0x2c
 800494c:	68d3      	ldr	r3, [r2, #12]
 800494e:	f423 6300 	bic.w	r3, r3, #2048	; 0x800
 8004952:	60d3      	str	r3, [r2, #12]
 8004954:	f7fd f80c 	bl	8001970 <HAL_DMA_Abort_IT>
 8004958:	e7ba      	b.n	80048d0 <HAL_TIM_OC_Stop_DMA+0x30>
 800495a:	6a19      	ldr	r1, [r3, #32]
 800495c:	f241 1211 	movw	r2, #4369	; 0x1111
 8004960:	4211      	tst	r1, r2
 8004962:	d1cb      	bne.n	80048fc <HAL_TIM_OC_Stop_DMA+0x5c>
 8004964:	6a19      	ldr	r1, [r3, #32]
 8004966:	f240 4244 	movw	r2, #1092	; 0x444
 800496a:	4211      	tst	r1, r2
 800496c:	d1c6      	bne.n	80048fc <HAL_TIM_OC_Stop_DMA+0x5c>
 800496e:	6c5a      	ldr	r2, [r3, #68]	; 0x44
 8004970:	f422 4200 	bic.w	r2, r2, #32768	; 0x8000
 8004974:	645a      	str	r2, [r3, #68]	; 0x44
 8004976:	e7c1      	b.n	80048fc <HAL_TIM_OC_Stop_DMA+0x5c>
 8004978:	2c04      	cmp	r4, #4
 800497a:	d007      	beq.n	800498c <HAL_TIM_OC_Stop_DMA+0xec>
 800497c:	2c08      	cmp	r4, #8
 800497e:	bf0c      	ite	eq
 8004980:	f885 3040 	strbeq.w	r3, [r5, #64]	; 0x40
 8004984:	f885 3041 	strbne.w	r3, [r5, #65]	; 0x41
 8004988:	2000      	movs	r0, #0
 800498a:	bd38      	pop	{r3, r4, r5, pc}
 800498c:	f885 303f 	strb.w	r3, [r5, #63]	; 0x3f
 8004990:	2000      	movs	r0, #0
 8004992:	bd38      	pop	{r3, r4, r5, pc}

08004994 <HAL_TIM_PWM_MspInit>:
 8004994:	4770      	bx	lr
 8004996:	bf00      	nop

08004998 <HAL_TIM_PWM_Init>:
 8004998:	2800      	cmp	r0, #0
 800499a:	f000 809e 	beq.w	8004ada <HAL_TIM_PWM_Init+0x142>
 800499e:	b538      	push	{r3, r4, r5, lr}
 80049a0:	f890 303d 	ldrb.w	r3, [r0, #61]	; 0x3d
 80049a4:	4604      	mov	r4, r0
 80049a6:	f003 02ff 	and.w	r2, r3, #255	; 0xff
 80049aa:	2b00      	cmp	r3, #0
 80049ac:	f000 8090 	beq.w	8004ad0 <HAL_TIM_PWM_Init+0x138>
 80049b0:	6822      	ldr	r2, [r4, #0]
 80049b2:	2100      	movs	r1, #0
 80049b4:	2302      	movs	r3, #2
 80049b6:	f2c4 0101 	movt	r1, #16385	; 0x4001
 80049ba:	f884 303d 	strb.w	r3, [r4, #61]	; 0x3d
 80049be:	428a      	cmp	r2, r1
 80049c0:	6813      	ldr	r3, [r2, #0]
 80049c2:	d071      	beq.n	8004aa8 <HAL_TIM_PWM_Init+0x110>
 80049c4:	f1b2 4f80 	cmp.w	r2, #1073741824	; 0x40000000
 80049c8:	d045      	beq.n	8004a56 <HAL_TIM_PWM_Init+0xbe>
 80049ca:	f44f 6180 	mov.w	r1, #1024	; 0x400
 80049ce:	f2c4 0100 	movt	r1, #16384	; 0x4000
 80049d2:	428a      	cmp	r2, r1
 80049d4:	d03f      	beq.n	8004a56 <HAL_TIM_PWM_Init+0xbe>
 80049d6:	f44f 6100 	mov.w	r1, #2048	; 0x800
 80049da:	f2c4 0100 	movt	r1, #16384	; 0x4000
 80049de:	428a      	cmp	r2, r1
 80049e0:	d039      	beq.n	8004a56 <HAL_TIM_PWM_Init+0xbe>
 80049e2:	f44f 6140 	mov.w	r1, #3072	; 0xc00
 80049e6:	f2c4 0100 	movt	r1, #16384	; 0x4000
 80049ea:	428a      	cmp	r2, r1
 80049ec:	d033      	beq.n	8004a56 <HAL_TIM_PWM_Init+0xbe>
 80049ee:	f44f 6180 	mov.w	r1, #1024	; 0x400
 80049f2:	f2c4 0101 	movt	r1, #16385	; 0x4001
 80049f6:	428a      	cmp	r2, r1
 80049f8:	d056      	beq.n	8004aa8 <HAL_TIM_PWM_Init+0x110>
 80049fa:	f44f 4180 	mov.w	r1, #16384	; 0x4000
 80049fe:	f2c4 0101 	movt	r1, #16385	; 0x4001
 8004a02:	428a      	cmp	r2, r1
 8004a04:	d02b      	beq.n	8004a5e <HAL_TIM_PWM_Init+0xc6>
 8004a06:	f44f 4188 	mov.w	r1, #17408	; 0x4400
 8004a0a:	f2c4 0101 	movt	r1, #16385	; 0x4001
 8004a0e:	428a      	cmp	r2, r1
 8004a10:	d025      	beq.n	8004a5e <HAL_TIM_PWM_Init+0xc6>
 8004a12:	f44f 4190 	mov.w	r1, #18432	; 0x4800
 8004a16:	f2c4 0101 	movt	r1, #16385	; 0x4001
 8004a1a:	428a      	cmp	r2, r1
 8004a1c:	d01f      	beq.n	8004a5e <HAL_TIM_PWM_Init+0xc6>
 8004a1e:	f44f 51c0 	mov.w	r1, #6144	; 0x1800
 8004a22:	f2c4 0100 	movt	r1, #16384	; 0x4000
 8004a26:	428a      	cmp	r2, r1
 8004a28:	d019      	beq.n	8004a5e <HAL_TIM_PWM_Init+0xc6>
 8004a2a:	f44f 51e0 	mov.w	r1, #7168	; 0x1c00
 8004a2e:	f2c4 0100 	movt	r1, #16384	; 0x4000
 8004a32:	428a      	cmp	r2, r1
 8004a34:	d013      	beq.n	8004a5e <HAL_TIM_PWM_Init+0xc6>
 8004a36:	f44f 5100 	mov.w	r1, #8192	; 0x2000
 8004a3a:	f2c4 0100 	movt	r1, #16384	; 0x4000
 8004a3e:	428a      	cmp	r2, r1
 8004a40:	d00d      	beq.n	8004a5e <HAL_TIM_PWM_Init+0xc6>
 8004a42:	69a5      	ldr	r5, [r4, #24]
 8004a44:	68e0      	ldr	r0, [r4, #12]
 8004a46:	6861      	ldr	r1, [r4, #4]
 8004a48:	f023 0380 	bic.w	r3, r3, #128	; 0x80
 8004a4c:	432b      	orrs	r3, r5
 8004a4e:	6013      	str	r3, [r2, #0]
 8004a50:	62d0      	str	r0, [r2, #44]	; 0x2c
 8004a52:	6291      	str	r1, [r2, #40]	; 0x28
 8004a54:	e010      	b.n	8004a78 <HAL_TIM_PWM_Init+0xe0>
 8004a56:	68a1      	ldr	r1, [r4, #8]
 8004a58:	f023 0370 	bic.w	r3, r3, #112	; 0x70
 8004a5c:	430b      	orrs	r3, r1
 8004a5e:	6925      	ldr	r5, [r4, #16]
 8004a60:	69a1      	ldr	r1, [r4, #24]
 8004a62:	68e0      	ldr	r0, [r4, #12]
 8004a64:	f423 7340 	bic.w	r3, r3, #768	; 0x300
 8004a68:	432b      	orrs	r3, r5
 8004a6a:	f023 0380 	bic.w	r3, r3, #128	; 0x80
 8004a6e:	430b      	orrs	r3, r1
 8004a70:	6861      	ldr	r1, [r4, #4]
 8004a72:	6013      	str	r3, [r2, #0]
 8004a74:	62d0      	str	r0, [r2, #44]	; 0x2c
 8004a76:	6291      	str	r1, [r2, #40]	; 0x28
 8004a78:	2301      	movs	r3, #1
 8004a7a:	6153      	str	r3, [r2, #20]
 8004a7c:	f884 3046 	strb.w	r3, [r4, #70]	; 0x46
 8004a80:	f884 303e 	strb.w	r3, [r4, #62]	; 0x3e
 8004a84:	f884 303f 	strb.w	r3, [r4, #63]	; 0x3f
 8004a88:	f884 3040 	strb.w	r3, [r4, #64]	; 0x40
 8004a8c:	f884 3041 	strb.w	r3, [r4, #65]	; 0x41
 8004a90:	f884 3042 	strb.w	r3, [r4, #66]	; 0x42
 8004a94:	f884 3043 	strb.w	r3, [r4, #67]	; 0x43
 8004a98:	f884 3044 	strb.w	r3, [r4, #68]	; 0x44
 8004a9c:	f884 3045 	strb.w	r3, [r4, #69]	; 0x45
 8004aa0:	f884 303d 	strb.w	r3, [r4, #61]	; 0x3d
 8004aa4:	2000      	movs	r0, #0
 8004aa6:	bd38      	pop	{r3, r4, r5, pc}
 8004aa8:	68a5      	ldr	r5, [r4, #8]
 8004aaa:	6920      	ldr	r0, [r4, #16]
 8004aac:	69a1      	ldr	r1, [r4, #24]
 8004aae:	f023 0370 	bic.w	r3, r3, #112	; 0x70
 8004ab2:	432b      	orrs	r3, r5
 8004ab4:	f423 7340 	bic.w	r3, r3, #768	; 0x300
 8004ab8:	4303      	orrs	r3, r0
 8004aba:	f023 0380 	bic.w	r3, r3, #128	; 0x80
 8004abe:	430b      	orrs	r3, r1
 8004ac0:	6013      	str	r3, [r2, #0]
 8004ac2:	68e3      	ldr	r3, [r4, #12]
 8004ac4:	62d3      	str	r3, [r2, #44]	; 0x2c
 8004ac6:	6863      	ldr	r3, [r4, #4]
 8004ac8:	6293      	str	r3, [r2, #40]	; 0x28
 8004aca:	6963      	ldr	r3, [r4, #20]
 8004acc:	6313      	str	r3, [r2, #48]	; 0x30
 8004ace:	e7d3      	b.n	8004a78 <HAL_TIM_PWM_Init+0xe0>
 8004ad0:	f880 203c 	strb.w	r2, [r0, #60]	; 0x3c
 8004ad4:	f7ff ff5e 	bl	8004994 <HAL_TIM_PWM_MspInit>
 8004ad8:	e76a      	b.n	80049b0 <HAL_TIM_PWM_Init+0x18>
 8004ada:	2001      	movs	r0, #1
 8004adc:	4770      	bx	lr
 8004ade:	bf00      	nop

08004ae0 <HAL_TIM_PWM_MspDeInit>:
 8004ae0:	4770      	bx	lr
 8004ae2:	bf00      	nop

08004ae4 <HAL_TIM_PWM_DeInit>:
 8004ae4:	2202      	movs	r2, #2
 8004ae6:	6803      	ldr	r3, [r0, #0]
 8004ae8:	b510      	push	{r4, lr}
 8004aea:	f880 203d 	strb.w	r2, [r0, #61]	; 0x3d
 8004aee:	6a19      	ldr	r1, [r3, #32]
 8004af0:	f241 1211 	movw	r2, #4369	; 0x1111
 8004af4:	4211      	tst	r1, r2
 8004af6:	4604      	mov	r4, r0
 8004af8:	d108      	bne.n	8004b0c <HAL_TIM_PWM_DeInit+0x28>
 8004afa:	6a19      	ldr	r1, [r3, #32]
 8004afc:	f240 4244 	movw	r2, #1092	; 0x444
 8004b00:	4211      	tst	r1, r2
 8004b02:	d103      	bne.n	8004b0c <HAL_TIM_PWM_DeInit+0x28>
 8004b04:	681a      	ldr	r2, [r3, #0]
 8004b06:	f022 0201 	bic.w	r2, r2, #1
 8004b0a:	601a      	str	r2, [r3, #0]
 8004b0c:	4620      	mov	r0, r4
 8004b0e:	f7ff ffe7 	bl	8004ae0 <HAL_TIM_PWM_MspDeInit>
 8004b12:	2000      	movs	r0, #0
 8004b14:	f884 0046 	strb.w	r0, [r4, #70]	; 0x46
 8004b18:	f884 003c 	strb.w	r0, [r4, #60]	; 0x3c
 8004b1c:	f884 003e 	strb.w	r0, [r4, #62]	; 0x3e
 8004b20:	f884 003f 	strb.w	r0, [r4, #63]	; 0x3f
 8004b24:	f884 0040 	strb.w	r0, [r4, #64]	; 0x40
 8004b28:	f884 0041 	strb.w	r0, [r4, #65]	; 0x41
 8004b2c:	f884 0042 	strb.w	r0, [r4, #66]	; 0x42
 8004b30:	f884 0043 	strb.w	r0, [r4, #67]	; 0x43
 8004b34:	f884 0044 	strb.w	r0, [r4, #68]	; 0x44
 8004b38:	f884 0045 	strb.w	r0, [r4, #69]	; 0x45
 8004b3c:	f884 003d 	strb.w	r0, [r4, #61]	; 0x3d
 8004b40:	bd10      	pop	{r4, pc}
 8004b42:	bf00      	nop

08004b44 <HAL_TIM_PWM_Start>:
 8004b44:	2900      	cmp	r1, #0
 8004b46:	d14a      	bne.n	8004bde <HAL_TIM_PWM_Start+0x9a>
 8004b48:	f890 303e 	ldrb.w	r3, [r0, #62]	; 0x3e
 8004b4c:	2b01      	cmp	r3, #1
 8004b4e:	d152      	bne.n	8004bf6 <HAL_TIM_PWM_Start+0xb2>
 8004b50:	2302      	movs	r3, #2
 8004b52:	f880 303e 	strb.w	r3, [r0, #62]	; 0x3e
 8004b56:	6803      	ldr	r3, [r0, #0]
 8004b58:	2201      	movs	r2, #1
 8004b5a:	6a18      	ldr	r0, [r3, #32]
 8004b5c:	f001 011f 	and.w	r1, r1, #31
 8004b60:	fa02 f101 	lsl.w	r1, r2, r1
 8004b64:	ea20 0001 	bic.w	r0, r0, r1
 8004b68:	6218      	str	r0, [r3, #32]
 8004b6a:	6a18      	ldr	r0, [r3, #32]
 8004b6c:	2200      	movs	r2, #0
 8004b6e:	f2c4 0201 	movt	r2, #16385	; 0x4001
 8004b72:	4301      	orrs	r1, r0
 8004b74:	4293      	cmp	r3, r2
 8004b76:	6219      	str	r1, [r3, #32]
 8004b78:	d03f      	beq.n	8004bfa <HAL_TIM_PWM_Start+0xb6>
 8004b7a:	f44f 6280 	mov.w	r2, #1024	; 0x400
 8004b7e:	f2c4 0201 	movt	r2, #16385	; 0x4001
 8004b82:	4293      	cmp	r3, r2
 8004b84:	d039      	beq.n	8004bfa <HAL_TIM_PWM_Start+0xb6>
 8004b86:	f1b3 4f80 	cmp.w	r3, #1073741824	; 0x40000000
 8004b8a:	d01d      	beq.n	8004bc8 <HAL_TIM_PWM_Start+0x84>
 8004b8c:	f44f 6280 	mov.w	r2, #1024	; 0x400
 8004b90:	f2c4 0200 	movt	r2, #16384	; 0x4000
 8004b94:	4293      	cmp	r3, r2
 8004b96:	d017      	beq.n	8004bc8 <HAL_TIM_PWM_Start+0x84>
 8004b98:	f44f 6200 	mov.w	r2, #2048	; 0x800
 8004b9c:	f2c4 0200 	movt	r2, #16384	; 0x4000
 8004ba0:	4293      	cmp	r3, r2
 8004ba2:	d011      	beq.n	8004bc8 <HAL_TIM_PWM_Start+0x84>
 8004ba4:	f44f 6240 	mov.w	r2, #3072	; 0xc00
 8004ba8:	f2c4 0200 	movt	r2, #16384	; 0x4000
 8004bac:	4293      	cmp	r3, r2
 8004bae:	d00b      	beq.n	8004bc8 <HAL_TIM_PWM_Start+0x84>
 8004bb0:	f44f 4280 	mov.w	r2, #16384	; 0x4000
 8004bb4:	f2c4 0201 	movt	r2, #16385	; 0x4001
 8004bb8:	4293      	cmp	r3, r2
 8004bba:	d005      	beq.n	8004bc8 <HAL_TIM_PWM_Start+0x84>
 8004bbc:	f44f 52c0 	mov.w	r2, #6144	; 0x1800
 8004bc0:	f2c4 0200 	movt	r2, #16384	; 0x4000
 8004bc4:	4293      	cmp	r3, r2
 8004bc6:	d104      	bne.n	8004bd2 <HAL_TIM_PWM_Start+0x8e>
 8004bc8:	689a      	ldr	r2, [r3, #8]
 8004bca:	f002 0207 	and.w	r2, r2, #7
 8004bce:	2a06      	cmp	r2, #6
 8004bd0:	d01c      	beq.n	8004c0c <HAL_TIM_PWM_Start+0xc8>
 8004bd2:	681a      	ldr	r2, [r3, #0]
 8004bd4:	f042 0201 	orr.w	r2, r2, #1
 8004bd8:	601a      	str	r2, [r3, #0]
 8004bda:	2000      	movs	r0, #0
 8004bdc:	4770      	bx	lr
 8004bde:	2904      	cmp	r1, #4
 8004be0:	d016      	beq.n	8004c10 <HAL_TIM_PWM_Start+0xcc>
 8004be2:	2908      	cmp	r1, #8
 8004be4:	d01c      	beq.n	8004c20 <HAL_TIM_PWM_Start+0xdc>
 8004be6:	f890 3041 	ldrb.w	r3, [r0, #65]	; 0x41
 8004bea:	2b01      	cmp	r3, #1
 8004bec:	d103      	bne.n	8004bf6 <HAL_TIM_PWM_Start+0xb2>
 8004bee:	2302      	movs	r3, #2
 8004bf0:	f880 3041 	strb.w	r3, [r0, #65]	; 0x41
 8004bf4:	e7af      	b.n	8004b56 <HAL_TIM_PWM_Start+0x12>
 8004bf6:	2001      	movs	r0, #1
 8004bf8:	4770      	bx	lr
 8004bfa:	6c5a      	ldr	r2, [r3, #68]	; 0x44
 8004bfc:	f442 4200 	orr.w	r2, r2, #32768	; 0x8000
 8004c00:	645a      	str	r2, [r3, #68]	; 0x44
 8004c02:	689a      	ldr	r2, [r3, #8]
 8004c04:	f002 0207 	and.w	r2, r2, #7
 8004c08:	2a06      	cmp	r2, #6
 8004c0a:	d1e2      	bne.n	8004bd2 <HAL_TIM_PWM_Start+0x8e>
 8004c0c:	2000      	movs	r0, #0
 8004c0e:	4770      	bx	lr
 8004c10:	f890 303f 	ldrb.w	r3, [r0, #63]	; 0x3f
 8004c14:	2b01      	cmp	r3, #1
 8004c16:	d1ee      	bne.n	8004bf6 <HAL_TIM_PWM_Start+0xb2>
 8004c18:	2302      	movs	r3, #2
 8004c1a:	f880 303f 	strb.w	r3, [r0, #63]	; 0x3f
 8004c1e:	e79a      	b.n	8004b56 <HAL_TIM_PWM_Start+0x12>
 8004c20:	f890 3040 	ldrb.w	r3, [r0, #64]	; 0x40
 8004c24:	2b01      	cmp	r3, #1
 8004c26:	d1e6      	bne.n	8004bf6 <HAL_TIM_PWM_Start+0xb2>
 8004c28:	2302      	movs	r3, #2
 8004c2a:	f880 3040 	strb.w	r3, [r0, #64]	; 0x40
 8004c2e:	e792      	b.n	8004b56 <HAL_TIM_PWM_Start+0x12>

08004c30 <HAL_TIM_PWM_Stop>:
 8004c30:	6803      	ldr	r3, [r0, #0]
 8004c32:	b430      	push	{r4, r5}
 8004c34:	6a1a      	ldr	r2, [r3, #32]
 8004c36:	f001 051f 	and.w	r5, r1, #31
 8004c3a:	2401      	movs	r4, #1
 8004c3c:	40ac      	lsls	r4, r5
 8004c3e:	ea22 0204 	bic.w	r2, r2, r4
 8004c42:	621a      	str	r2, [r3, #32]
 8004c44:	2200      	movs	r2, #0
 8004c46:	f2c4 0201 	movt	r2, #16385	; 0x4001
 8004c4a:	6a1c      	ldr	r4, [r3, #32]
 8004c4c:	621c      	str	r4, [r3, #32]
 8004c4e:	4293      	cmp	r3, r2
 8004c50:	d016      	beq.n	8004c80 <HAL_TIM_PWM_Stop+0x50>
 8004c52:	f44f 6280 	mov.w	r2, #1024	; 0x400
 8004c56:	f2c4 0201 	movt	r2, #16385	; 0x4001
 8004c5a:	4293      	cmp	r3, r2
 8004c5c:	d010      	beq.n	8004c80 <HAL_TIM_PWM_Stop+0x50>
 8004c5e:	6a1c      	ldr	r4, [r3, #32]
 8004c60:	f241 1211 	movw	r2, #4369	; 0x1111
 8004c64:	4214      	tst	r4, r2
 8004c66:	d104      	bne.n	8004c72 <HAL_TIM_PWM_Stop+0x42>
 8004c68:	6a1c      	ldr	r4, [r3, #32]
 8004c6a:	f240 4244 	movw	r2, #1092	; 0x444
 8004c6e:	4214      	tst	r4, r2
 8004c70:	d020      	beq.n	8004cb4 <HAL_TIM_PWM_Stop+0x84>
 8004c72:	2301      	movs	r3, #1
 8004c74:	b999      	cbnz	r1, 8004c9e <HAL_TIM_PWM_Stop+0x6e>
 8004c76:	f880 303e 	strb.w	r3, [r0, #62]	; 0x3e
 8004c7a:	bc30      	pop	{r4, r5}
 8004c7c:	2000      	movs	r0, #0
 8004c7e:	4770      	bx	lr
 8004c80:	6a1c      	ldr	r4, [r3, #32]
 8004c82:	f241 1211 	movw	r2, #4369	; 0x1111
 8004c86:	4214      	tst	r4, r2
 8004c88:	d1e9      	bne.n	8004c5e <HAL_TIM_PWM_Stop+0x2e>
 8004c8a:	6a1c      	ldr	r4, [r3, #32]
 8004c8c:	f240 4244 	movw	r2, #1092	; 0x444
 8004c90:	4214      	tst	r4, r2
 8004c92:	d1e4      	bne.n	8004c5e <HAL_TIM_PWM_Stop+0x2e>
 8004c94:	6c5a      	ldr	r2, [r3, #68]	; 0x44
 8004c96:	f422 4200 	bic.w	r2, r2, #32768	; 0x8000
 8004c9a:	645a      	str	r2, [r3, #68]	; 0x44
 8004c9c:	e7df      	b.n	8004c5e <HAL_TIM_PWM_Stop+0x2e>
 8004c9e:	2904      	cmp	r1, #4
 8004ca0:	d00d      	beq.n	8004cbe <HAL_TIM_PWM_Stop+0x8e>
 8004ca2:	2908      	cmp	r1, #8
 8004ca4:	bf0c      	ite	eq
 8004ca6:	f880 3040 	strbeq.w	r3, [r0, #64]	; 0x40
 8004caa:	f880 3041 	strbne.w	r3, [r0, #65]	; 0x41
 8004cae:	bc30      	pop	{r4, r5}
 8004cb0:	2000      	movs	r0, #0
 8004cb2:	4770      	bx	lr
 8004cb4:	681a      	ldr	r2, [r3, #0]
 8004cb6:	f022 0201 	bic.w	r2, r2, #1
 8004cba:	601a      	str	r2, [r3, #0]
 8004cbc:	e7d9      	b.n	8004c72 <HAL_TIM_PWM_Stop+0x42>
 8004cbe:	f880 303f 	strb.w	r3, [r0, #63]	; 0x3f
 8004cc2:	bc30      	pop	{r4, r5}
 8004cc4:	2000      	movs	r0, #0
 8004cc6:	4770      	bx	lr

08004cc8 <HAL_TIM_PWM_Start_IT>:
 8004cc8:	2900      	cmp	r1, #0
 8004cca:	d14f      	bne.n	8004d6c <HAL_TIM_PWM_Start_IT+0xa4>
 8004ccc:	f890 303e 	ldrb.w	r3, [r0, #62]	; 0x3e
 8004cd0:	2b01      	cmp	r3, #1
 8004cd2:	d154      	bne.n	8004d7e <HAL_TIM_PWM_Start_IT+0xb6>
 8004cd4:	2302      	movs	r3, #2
 8004cd6:	f880 303e 	strb.w	r3, [r0, #62]	; 0x3e
 8004cda:	6803      	ldr	r3, [r0, #0]
 8004cdc:	68da      	ldr	r2, [r3, #12]
 8004cde:	f042 0202 	orr.w	r2, r2, #2
 8004ce2:	60da      	str	r2, [r3, #12]
 8004ce4:	6a18      	ldr	r0, [r3, #32]
 8004ce6:	2201      	movs	r2, #1
 8004ce8:	f001 011f 	and.w	r1, r1, #31
 8004cec:	fa02 f101 	lsl.w	r1, r2, r1
 8004cf0:	ea20 0001 	bic.w	r0, r0, r1
 8004cf4:	6218      	str	r0, [r3, #32]
 8004cf6:	6a18      	ldr	r0, [r3, #32]
 8004cf8:	2200      	movs	r2, #0
 8004cfa:	f2c4 0201 	movt	r2, #16385	; 0x4001
 8004cfe:	4301      	orrs	r1, r0
 8004d00:	4293      	cmp	r3, r2
 8004d02:	6219      	str	r1, [r3, #32]
 8004d04:	d060      	beq.n	8004dc8 <HAL_TIM_PWM_Start_IT+0x100>
 8004d06:	f44f 6280 	mov.w	r2, #1024	; 0x400
 8004d0a:	f2c4 0201 	movt	r2, #16385	; 0x4001
 8004d0e:	4293      	cmp	r3, r2
 8004d10:	d05a      	beq.n	8004dc8 <HAL_TIM_PWM_Start_IT+0x100>
 8004d12:	f1b3 4f80 	cmp.w	r3, #1073741824	; 0x40000000
 8004d16:	d01d      	beq.n	8004d54 <HAL_TIM_PWM_Start_IT+0x8c>
 8004d18:	f44f 6280 	mov.w	r2, #1024	; 0x400
 8004d1c:	f2c4 0200 	movt	r2, #16384	; 0x4000
 8004d20:	4293      	cmp	r3, r2
 8004d22:	d017      	beq.n	8004d54 <HAL_TIM_PWM_Start_IT+0x8c>
 8004d24:	f44f 6200 	mov.w	r2, #2048	; 0x800
 8004d28:	f2c4 0200 	movt	r2, #16384	; 0x4000
 8004d2c:	4293      	cmp	r3, r2
 8004d2e:	d011      	beq.n	8004d54 <HAL_TIM_PWM_Start_IT+0x8c>
 8004d30:	f44f 6240 	mov.w	r2, #3072	; 0xc00
 8004d34:	f2c4 0200 	movt	r2, #16384	; 0x4000
 8004d38:	4293      	cmp	r3, r2
 8004d3a:	d00b      	beq.n	8004d54 <HAL_TIM_PWM_Start_IT+0x8c>
 8004d3c:	f44f 4280 	mov.w	r2, #16384	; 0x4000
 8004d40:	f2c4 0201 	movt	r2, #16385	; 0x4001
 8004d44:	4293      	cmp	r3, r2
 8004d46:	d005      	beq.n	8004d54 <HAL_TIM_PWM_Start_IT+0x8c>
 8004d48:	f44f 52c0 	mov.w	r2, #6144	; 0x1800
 8004d4c:	f2c4 0200 	movt	r2, #16384	; 0x4000
 8004d50:	4293      	cmp	r3, r2
 8004d52:	d104      	bne.n	8004d5e <HAL_TIM_PWM_Start_IT+0x96>
 8004d54:	689a      	ldr	r2, [r3, #8]
 8004d56:	f002 0207 	and.w	r2, r2, #7
 8004d5a:	2a06      	cmp	r2, #6
 8004d5c:	d03d      	beq.n	8004dda <HAL_TIM_PWM_Start_IT+0x112>
 8004d5e:	681a      	ldr	r2, [r3, #0]
 8004d60:	f042 0201 	orr.w	r2, r2, #1
 8004d64:	601a      	str	r2, [r3, #0]
 8004d66:	2300      	movs	r3, #0
 8004d68:	4618      	mov	r0, r3
 8004d6a:	4770      	bx	lr
 8004d6c:	2904      	cmp	r1, #4
 8004d6e:	d03d      	beq.n	8004dec <HAL_TIM_PWM_Start_IT+0x124>
 8004d70:	2908      	cmp	r1, #8
 8004d72:	d048      	beq.n	8004e06 <HAL_TIM_PWM_Start_IT+0x13e>
 8004d74:	f890 2041 	ldrb.w	r2, [r0, #65]	; 0x41
 8004d78:	2a01      	cmp	r2, #1
 8004d7a:	b2d3      	uxtb	r3, r2
 8004d7c:	d002      	beq.n	8004d84 <HAL_TIM_PWM_Start_IT+0xbc>
 8004d7e:	2301      	movs	r3, #1
 8004d80:	4618      	mov	r0, r3
 8004d82:	4770      	bx	lr
 8004d84:	2202      	movs	r2, #2
 8004d86:	f880 2041 	strb.w	r2, [r0, #65]	; 0x41
 8004d8a:	290c      	cmp	r1, #12
 8004d8c:	d8f8      	bhi.n	8004d80 <HAL_TIM_PWM_Start_IT+0xb8>
 8004d8e:	a201      	add	r2, pc, #4	; (adr r2, 8004d94 <HAL_TIM_PWM_Start_IT+0xcc>)
 8004d90:	f852 f021 	ldr.w	pc, [r2, r1, lsl #2]
 8004d94:	08004cdb 	.word	0x08004cdb
 8004d98:	08004d81 	.word	0x08004d81
 8004d9c:	08004d81 	.word	0x08004d81
 8004da0:	08004d81 	.word	0x08004d81
 8004da4:	08004dfb 	.word	0x08004dfb
 8004da8:	08004d81 	.word	0x08004d81
 8004dac:	08004d81 	.word	0x08004d81
 8004db0:	08004d81 	.word	0x08004d81
 8004db4:	08004d81 	.word	0x08004d81
 8004db8:	08004d81 	.word	0x08004d81
 8004dbc:	08004d81 	.word	0x08004d81
 8004dc0:	08004d81 	.word	0x08004d81
 8004dc4:	08004de1 	.word	0x08004de1
 8004dc8:	6c5a      	ldr	r2, [r3, #68]	; 0x44
 8004dca:	f442 4200 	orr.w	r2, r2, #32768	; 0x8000
 8004dce:	645a      	str	r2, [r3, #68]	; 0x44
 8004dd0:	689a      	ldr	r2, [r3, #8]
 8004dd2:	f002 0207 	and.w	r2, r2, #7
 8004dd6:	2a06      	cmp	r2, #6
 8004dd8:	d1c1      	bne.n	8004d5e <HAL_TIM_PWM_Start_IT+0x96>
 8004dda:	2300      	movs	r3, #0
 8004ddc:	4618      	mov	r0, r3
 8004dde:	4770      	bx	lr
 8004de0:	6803      	ldr	r3, [r0, #0]
 8004de2:	68da      	ldr	r2, [r3, #12]
 8004de4:	f042 0210 	orr.w	r2, r2, #16
 8004de8:	60da      	str	r2, [r3, #12]
 8004dea:	e77b      	b.n	8004ce4 <HAL_TIM_PWM_Start_IT+0x1c>
 8004dec:	f890 303f 	ldrb.w	r3, [r0, #63]	; 0x3f
 8004df0:	2b01      	cmp	r3, #1
 8004df2:	d1c4      	bne.n	8004d7e <HAL_TIM_PWM_Start_IT+0xb6>
 8004df4:	2302      	movs	r3, #2
 8004df6:	f880 303f 	strb.w	r3, [r0, #63]	; 0x3f
 8004dfa:	6803      	ldr	r3, [r0, #0]
 8004dfc:	68da      	ldr	r2, [r3, #12]
 8004dfe:	f042 0204 	orr.w	r2, r2, #4
 8004e02:	60da      	str	r2, [r3, #12]
 8004e04:	e76e      	b.n	8004ce4 <HAL_TIM_PWM_Start_IT+0x1c>
 8004e06:	f890 3040 	ldrb.w	r3, [r0, #64]	; 0x40
 8004e0a:	2b01      	cmp	r3, #1
 8004e0c:	d1b7      	bne.n	8004d7e <HAL_TIM_PWM_Start_IT+0xb6>
 8004e0e:	6803      	ldr	r3, [r0, #0]
 8004e10:	2202      	movs	r2, #2
 8004e12:	f880 2040 	strb.w	r2, [r0, #64]	; 0x40
 8004e16:	68da      	ldr	r2, [r3, #12]
 8004e18:	f042 0208 	orr.w	r2, r2, #8
 8004e1c:	60da      	str	r2, [r3, #12]
 8004e1e:	e761      	b.n	8004ce4 <HAL_TIM_PWM_Start_IT+0x1c>

08004e20 <HAL_TIM_PWM_Stop_IT>:
 8004e20:	290c      	cmp	r1, #12
 8004e22:	d808      	bhi.n	8004e36 <HAL_TIM_PWM_Stop_IT+0x16>
 8004e24:	e8df f001 	tbb	[pc, r1]
 8004e28:	0707073a 	.word	0x0707073a
 8004e2c:	07070740 	.word	0x07070740
 8004e30:	07070746 	.word	0x07070746
 8004e34:	0a          	.byte	0x0a
 8004e35:	00          	.byte	0x00
 8004e36:	2101      	movs	r1, #1
 8004e38:	4608      	mov	r0, r1
 8004e3a:	4770      	bx	lr
 8004e3c:	6803      	ldr	r3, [r0, #0]
 8004e3e:	68da      	ldr	r2, [r3, #12]
 8004e40:	f022 0210 	bic.w	r2, r2, #16
 8004e44:	60da      	str	r2, [r3, #12]
 8004e46:	b430      	push	{r4, r5}
 8004e48:	6a1a      	ldr	r2, [r3, #32]
 8004e4a:	f001 051f 	and.w	r5, r1, #31
 8004e4e:	2401      	movs	r4, #1
 8004e50:	40ac      	lsls	r4, r5
 8004e52:	ea22 0204 	bic.w	r2, r2, r4
 8004e56:	621a      	str	r2, [r3, #32]
 8004e58:	2200      	movs	r2, #0
 8004e5a:	f2c4 0201 	movt	r2, #16385	; 0x4001
 8004e5e:	6a1c      	ldr	r4, [r3, #32]
 8004e60:	621c      	str	r4, [r3, #32]
 8004e62:	4293      	cmp	r3, r2
 8004e64:	d02c      	beq.n	8004ec0 <HAL_TIM_PWM_Stop_IT+0xa0>
 8004e66:	f44f 6280 	mov.w	r2, #1024	; 0x400
 8004e6a:	f2c4 0201 	movt	r2, #16385	; 0x4001
 8004e6e:	4293      	cmp	r3, r2
 8004e70:	d026      	beq.n	8004ec0 <HAL_TIM_PWM_Stop_IT+0xa0>
 8004e72:	6a1c      	ldr	r4, [r3, #32]
 8004e74:	f241 1211 	movw	r2, #4369	; 0x1111
 8004e78:	4214      	tst	r4, r2
 8004e7a:	d108      	bne.n	8004e8e <HAL_TIM_PWM_Stop_IT+0x6e>
 8004e7c:	6a1c      	ldr	r4, [r3, #32]
 8004e7e:	f240 4244 	movw	r2, #1092	; 0x444
 8004e82:	4214      	tst	r4, r2
 8004e84:	d103      	bne.n	8004e8e <HAL_TIM_PWM_Stop_IT+0x6e>
 8004e86:	681a      	ldr	r2, [r3, #0]
 8004e88:	f022 0201 	bic.w	r2, r2, #1
 8004e8c:	601a      	str	r2, [r3, #0]
 8004e8e:	2301      	movs	r3, #1
 8004e90:	bb29      	cbnz	r1, 8004ede <HAL_TIM_PWM_Stop_IT+0xbe>
 8004e92:	f880 303e 	strb.w	r3, [r0, #62]	; 0x3e
 8004e96:	bc30      	pop	{r4, r5}
 8004e98:	4608      	mov	r0, r1
 8004e9a:	4770      	bx	lr
 8004e9c:	6803      	ldr	r3, [r0, #0]
 8004e9e:	68da      	ldr	r2, [r3, #12]
 8004ea0:	f022 0202 	bic.w	r2, r2, #2
 8004ea4:	60da      	str	r2, [r3, #12]
 8004ea6:	e7ce      	b.n	8004e46 <HAL_TIM_PWM_Stop_IT+0x26>
 8004ea8:	6803      	ldr	r3, [r0, #0]
 8004eaa:	68da      	ldr	r2, [r3, #12]
 8004eac:	f022 0204 	bic.w	r2, r2, #4
 8004eb0:	60da      	str	r2, [r3, #12]
 8004eb2:	e7c8      	b.n	8004e46 <HAL_TIM_PWM_Stop_IT+0x26>
 8004eb4:	6803      	ldr	r3, [r0, #0]
 8004eb6:	68da      	ldr	r2, [r3, #12]
 8004eb8:	f022 0208 	bic.w	r2, r2, #8
 8004ebc:	60da      	str	r2, [r3, #12]
 8004ebe:	e7c2      	b.n	8004e46 <HAL_TIM_PWM_Stop_IT+0x26>
 8004ec0:	6a1c      	ldr	r4, [r3, #32]
 8004ec2:	f241 1211 	movw	r2, #4369	; 0x1111
 8004ec6:	4214      	tst	r4, r2
 8004ec8:	d1d3      	bne.n	8004e72 <HAL_TIM_PWM_Stop_IT+0x52>
 8004eca:	6a1c      	ldr	r4, [r3, #32]
 8004ecc:	f240 4244 	movw	r2, #1092	; 0x444
 8004ed0:	4214      	tst	r4, r2
 8004ed2:	d1ce      	bne.n	8004e72 <HAL_TIM_PWM_Stop_IT+0x52>
 8004ed4:	6c5a      	ldr	r2, [r3, #68]	; 0x44
 8004ed6:	f422 4200 	bic.w	r2, r2, #32768	; 0x8000
 8004eda:	645a      	str	r2, [r3, #68]	; 0x44
 8004edc:	e7c9      	b.n	8004e72 <HAL_TIM_PWM_Stop_IT+0x52>
 8004ede:	2904      	cmp	r1, #4
 8004ee0:	d009      	beq.n	8004ef6 <HAL_TIM_PWM_Stop_IT+0xd6>
 8004ee2:	2908      	cmp	r1, #8
 8004ee4:	bf0c      	ite	eq
 8004ee6:	f880 3040 	strbeq.w	r3, [r0, #64]	; 0x40
 8004eea:	f880 3041 	strbne.w	r3, [r0, #65]	; 0x41
 8004eee:	2100      	movs	r1, #0
 8004ef0:	4608      	mov	r0, r1
 8004ef2:	bc30      	pop	{r4, r5}
 8004ef4:	4770      	bx	lr
 8004ef6:	f880 303f 	strb.w	r3, [r0, #63]	; 0x3f
 8004efa:	2100      	movs	r1, #0
 8004efc:	4608      	mov	r0, r1
 8004efe:	bc30      	pop	{r4, r5}
 8004f00:	4770      	bx	lr
 8004f02:	bf00      	nop

08004f04 <HAL_TIM_PWM_Start_DMA>:
 8004f04:	b5f8      	push	{r3, r4, r5, r6, r7, lr}
 8004f06:	4605      	mov	r5, r0
 8004f08:	460c      	mov	r4, r1
 8004f0a:	2900      	cmp	r1, #0
 8004f0c:	d141      	bne.n	8004f92 <HAL_TIM_PWM_Start_DMA+0x8e>
 8004f0e:	f890 103e 	ldrb.w	r1, [r0, #62]	; 0x3e
 8004f12:	2902      	cmp	r1, #2
 8004f14:	b2c8      	uxtb	r0, r1
 8004f16:	d03b      	beq.n	8004f90 <HAL_TIM_PWM_Start_DMA+0x8c>
 8004f18:	f895 003e 	ldrb.w	r0, [r5, #62]	; 0x3e
 8004f1c:	f1a0 0001 	sub.w	r0, r0, #1
 8004f20:	fab0 f080 	clz	r0, r0
 8004f24:	0940      	lsrs	r0, r0, #5
 8004f26:	2800      	cmp	r0, #0
 8004f28:	d046      	beq.n	8004fb8 <HAL_TIM_PWM_Start_DMA+0xb4>
 8004f2a:	2a00      	cmp	r2, #0
 8004f2c:	d07b      	beq.n	8005026 <HAL_TIM_PWM_Start_DMA+0x122>
 8004f2e:	2c00      	cmp	r4, #0
 8004f30:	d144      	bne.n	8004fbc <HAL_TIM_PWM_Start_DMA+0xb8>
 8004f32:	2102      	movs	r1, #2
 8004f34:	f885 103e 	strb.w	r1, [r5, #62]	; 0x3e
 8004f38:	6a68      	ldr	r0, [r5, #36]	; 0x24
 8004f3a:	682f      	ldr	r7, [r5, #0]
 8004f3c:	f647 36d5 	movw	r6, #31701	; 0x7bd5
 8004f40:	f6c0 0600 	movt	r6, #2048	; 0x800
 8004f44:	63c6      	str	r6, [r0, #60]	; 0x3c
 8004f46:	f647 465d 	movw	r6, #31837	; 0x7c5d
 8004f4a:	f6c0 0600 	movt	r6, #2048	; 0x800
 8004f4e:	6406      	str	r6, [r0, #64]	; 0x40
 8004f50:	f647 663d 	movw	r6, #32317	; 0x7e3d
 8004f54:	f6c0 0600 	movt	r6, #2048	; 0x800
 8004f58:	4611      	mov	r1, r2
 8004f5a:	64c6      	str	r6, [r0, #76]	; 0x4c
 8004f5c:	f107 0234 	add.w	r2, r7, #52	; 0x34
 8004f60:	f7fc fc80 	bl	8001864 <HAL_DMA_Start_IT>
 8004f64:	bb40      	cbnz	r0, 8004fb8 <HAL_TIM_PWM_Start_DMA+0xb4>
 8004f66:	682b      	ldr	r3, [r5, #0]
 8004f68:	68da      	ldr	r2, [r3, #12]
 8004f6a:	f442 7200 	orr.w	r2, r2, #512	; 0x200
 8004f6e:	60da      	str	r2, [r3, #12]
 8004f70:	e07c      	b.n	800506c <HAL_TIM_PWM_Start_DMA+0x168>
 8004f72:	6c5a      	ldr	r2, [r3, #68]	; 0x44
 8004f74:	f442 4200 	orr.w	r2, r2, #32768	; 0x8000
 8004f78:	645a      	str	r2, [r3, #68]	; 0x44
 8004f7a:	689a      	ldr	r2, [r3, #8]
 8004f7c:	f002 0207 	and.w	r2, r2, #7
 8004f80:	2a06      	cmp	r2, #6
 8004f82:	f000 8104 	beq.w	800518e <HAL_TIM_PWM_Start_DMA+0x28a>
 8004f86:	681a      	ldr	r2, [r3, #0]
 8004f88:	f042 0201 	orr.w	r2, r2, #1
 8004f8c:	601a      	str	r2, [r3, #0]
 8004f8e:	2000      	movs	r0, #0
 8004f90:	bdf8      	pop	{r3, r4, r5, r6, r7, pc}
 8004f92:	2904      	cmp	r1, #4
 8004f94:	d03a      	beq.n	800500c <HAL_TIM_PWM_Start_DMA+0x108>
 8004f96:	2908      	cmp	r1, #8
 8004f98:	f000 80c8 	beq.w	800512c <HAL_TIM_PWM_Start_DMA+0x228>
 8004f9c:	f890 1041 	ldrb.w	r1, [r0, #65]	; 0x41
 8004fa0:	2902      	cmp	r1, #2
 8004fa2:	b2c8      	uxtb	r0, r1
 8004fa4:	d0f4      	beq.n	8004f90 <HAL_TIM_PWM_Start_DMA+0x8c>
 8004fa6:	f895 0041 	ldrb.w	r0, [r5, #65]	; 0x41
 8004faa:	f1a0 0001 	sub.w	r0, r0, #1
 8004fae:	fab0 f080 	clz	r0, r0
 8004fb2:	0940      	lsrs	r0, r0, #5
 8004fb4:	2800      	cmp	r0, #0
 8004fb6:	d1b8      	bne.n	8004f2a <HAL_TIM_PWM_Start_DMA+0x26>
 8004fb8:	2001      	movs	r0, #1
 8004fba:	bdf8      	pop	{r3, r4, r5, r6, r7, pc}
 8004fbc:	2c04      	cmp	r4, #4
 8004fbe:	d035      	beq.n	800502c <HAL_TIM_PWM_Start_DMA+0x128>
 8004fc0:	2c08      	cmp	r4, #8
 8004fc2:	f000 80c1 	beq.w	8005148 <HAL_TIM_PWM_Start_DMA+0x244>
 8004fc6:	2102      	movs	r1, #2
 8004fc8:	f885 1041 	strb.w	r1, [r5, #65]	; 0x41
 8004fcc:	2c0c      	cmp	r4, #12
 8004fce:	d8f3      	bhi.n	8004fb8 <HAL_TIM_PWM_Start_DMA+0xb4>
 8004fd0:	a101      	add	r1, pc, #4	; (adr r1, 8004fd8 <HAL_TIM_PWM_Start_DMA+0xd4>)
 8004fd2:	f851 f024 	ldr.w	pc, [r1, r4, lsl #2]
 8004fd6:	bf00      	nop
 8004fd8:	08004f39 	.word	0x08004f39
 8004fdc:	08004fb9 	.word	0x08004fb9
 8004fe0:	08004fb9 	.word	0x08004fb9
 8004fe4:	08004fb9 	.word	0x08004fb9
 8004fe8:	08005033 	.word	0x08005033
 8004fec:	08004fb9 	.word	0x08004fb9
 8004ff0:	08004fb9 	.word	0x08004fb9
 8004ff4:	08004fb9 	.word	0x08004fb9
 8004ff8:	08004fb9 	.word	0x08004fb9
 8004ffc:	08004fb9 	.word	0x08004fb9
 8005000:	08004fb9 	.word	0x08004fb9
 8005004:	08004fb9 	.word	0x08004fb9
 8005008:	080050ef 	.word	0x080050ef
 800500c:	f890 103f 	ldrb.w	r1, [r0, #63]	; 0x3f
 8005010:	2902      	cmp	r1, #2
 8005012:	b2c8      	uxtb	r0, r1
 8005014:	d0bc      	beq.n	8004f90 <HAL_TIM_PWM_Start_DMA+0x8c>
 8005016:	f895 003f 	ldrb.w	r0, [r5, #63]	; 0x3f
 800501a:	f1a0 0001 	sub.w	r0, r0, #1
 800501e:	fab0 f080 	clz	r0, r0
 8005022:	0940      	lsrs	r0, r0, #5
 8005024:	e77f      	b.n	8004f26 <HAL_TIM_PWM_Start_DMA+0x22>
 8005026:	2b00      	cmp	r3, #0
 8005028:	d081      	beq.n	8004f2e <HAL_TIM_PWM_Start_DMA+0x2a>
 800502a:	e7c5      	b.n	8004fb8 <HAL_TIM_PWM_Start_DMA+0xb4>
 800502c:	2102      	movs	r1, #2
 800502e:	f885 103f 	strb.w	r1, [r5, #63]	; 0x3f
 8005032:	6aa8      	ldr	r0, [r5, #40]	; 0x28
 8005034:	682f      	ldr	r7, [r5, #0]
 8005036:	f647 36d5 	movw	r6, #31701	; 0x7bd5
 800503a:	f6c0 0600 	movt	r6, #2048	; 0x800
 800503e:	63c6      	str	r6, [r0, #60]	; 0x3c
 8005040:	f647 465d 	movw	r6, #31837	; 0x7c5d
 8005044:	f6c0 0600 	movt	r6, #2048	; 0x800
 8005048:	6406      	str	r6, [r0, #64]	; 0x40
 800504a:	f647 663d 	movw	r6, #32317	; 0x7e3d
 800504e:	f6c0 0600 	movt	r6, #2048	; 0x800
 8005052:	4611      	mov	r1, r2
 8005054:	64c6      	str	r6, [r0, #76]	; 0x4c
 8005056:	f107 0238 	add.w	r2, r7, #56	; 0x38
 800505a:	f7fc fc03 	bl	8001864 <HAL_DMA_Start_IT>
 800505e:	2800      	cmp	r0, #0
 8005060:	d1aa      	bne.n	8004fb8 <HAL_TIM_PWM_Start_DMA+0xb4>
 8005062:	682b      	ldr	r3, [r5, #0]
 8005064:	68da      	ldr	r2, [r3, #12]
 8005066:	f442 6280 	orr.w	r2, r2, #1024	; 0x400
 800506a:	60da      	str	r2, [r3, #12]
 800506c:	6a19      	ldr	r1, [r3, #32]
 800506e:	2201      	movs	r2, #1
 8005070:	f004 041f 	and.w	r4, r4, #31
 8005074:	fa02 f404 	lsl.w	r4, r2, r4
 8005078:	ea21 0104 	bic.w	r1, r1, r4
 800507c:	6219      	str	r1, [r3, #32]
 800507e:	6a19      	ldr	r1, [r3, #32]
 8005080:	2200      	movs	r2, #0
 8005082:	f2c4 0201 	movt	r2, #16385	; 0x4001
 8005086:	430c      	orrs	r4, r1
 8005088:	4293      	cmp	r3, r2
 800508a:	621c      	str	r4, [r3, #32]
 800508c:	f43f af71 	beq.w	8004f72 <HAL_TIM_PWM_Start_DMA+0x6e>
 8005090:	f44f 6280 	mov.w	r2, #1024	; 0x400
 8005094:	f2c4 0201 	movt	r2, #16385	; 0x4001
 8005098:	4293      	cmp	r3, r2
 800509a:	f43f af6a 	beq.w	8004f72 <HAL_TIM_PWM_Start_DMA+0x6e>
 800509e:	f1b3 4f80 	cmp.w	r3, #1073741824	; 0x40000000
 80050a2:	f43f af6a 	beq.w	8004f7a <HAL_TIM_PWM_Start_DMA+0x76>
 80050a6:	f44f 6280 	mov.w	r2, #1024	; 0x400
 80050aa:	f2c4 0200 	movt	r2, #16384	; 0x4000
 80050ae:	4293      	cmp	r3, r2
 80050b0:	f43f af63 	beq.w	8004f7a <HAL_TIM_PWM_Start_DMA+0x76>
 80050b4:	f44f 6200 	mov.w	r2, #2048	; 0x800
 80050b8:	f2c4 0200 	movt	r2, #16384	; 0x4000
 80050bc:	4293      	cmp	r3, r2
 80050be:	f43f af5c 	beq.w	8004f7a <HAL_TIM_PWM_Start_DMA+0x76>
 80050c2:	f44f 6240 	mov.w	r2, #3072	; 0xc00
 80050c6:	f2c4 0200 	movt	r2, #16384	; 0x4000
 80050ca:	4293      	cmp	r3, r2
 80050cc:	f43f af55 	beq.w	8004f7a <HAL_TIM_PWM_Start_DMA+0x76>
 80050d0:	f44f 4280 	mov.w	r2, #16384	; 0x4000
 80050d4:	f2c4 0201 	movt	r2, #16385	; 0x4001
 80050d8:	4293      	cmp	r3, r2
 80050da:	f43f af4e 	beq.w	8004f7a <HAL_TIM_PWM_Start_DMA+0x76>
 80050de:	f44f 52c0 	mov.w	r2, #6144	; 0x1800
 80050e2:	f2c4 0200 	movt	r2, #16384	; 0x4000
 80050e6:	4293      	cmp	r3, r2
 80050e8:	f47f af4d 	bne.w	8004f86 <HAL_TIM_PWM_Start_DMA+0x82>
 80050ec:	e745      	b.n	8004f7a <HAL_TIM_PWM_Start_DMA+0x76>
 80050ee:	6b28      	ldr	r0, [r5, #48]	; 0x30
 80050f0:	682f      	ldr	r7, [r5, #0]
 80050f2:	f647 36d5 	movw	r6, #31701	; 0x7bd5
 80050f6:	f6c0 0600 	movt	r6, #2048	; 0x800
 80050fa:	63c6      	str	r6, [r0, #60]	; 0x3c
 80050fc:	f647 465d 	movw	r6, #31837	; 0x7c5d
 8005100:	f6c0 0600 	movt	r6, #2048	; 0x800
 8005104:	6406      	str	r6, [r0, #64]	; 0x40
 8005106:	f647 663d 	movw	r6, #32317	; 0x7e3d
 800510a:	f6c0 0600 	movt	r6, #2048	; 0x800
 800510e:	4611      	mov	r1, r2
 8005110:	64c6      	str	r6, [r0, #76]	; 0x4c
 8005112:	f107 0240 	add.w	r2, r7, #64	; 0x40
 8005116:	f7fc fba5 	bl	8001864 <HAL_DMA_Start_IT>
 800511a:	2800      	cmp	r0, #0
 800511c:	f47f af4c 	bne.w	8004fb8 <HAL_TIM_PWM_Start_DMA+0xb4>
 8005120:	682b      	ldr	r3, [r5, #0]
 8005122:	68da      	ldr	r2, [r3, #12]
 8005124:	f442 5280 	orr.w	r2, r2, #4096	; 0x1000
 8005128:	60da      	str	r2, [r3, #12]
 800512a:	e79f      	b.n	800506c <HAL_TIM_PWM_Start_DMA+0x168>
 800512c:	f890 1040 	ldrb.w	r1, [r0, #64]	; 0x40
 8005130:	2902      	cmp	r1, #2
 8005132:	b2c8      	uxtb	r0, r1
 8005134:	f43f af2c 	beq.w	8004f90 <HAL_TIM_PWM_Start_DMA+0x8c>
 8005138:	f895 0040 	ldrb.w	r0, [r5, #64]	; 0x40
 800513c:	f1a0 0001 	sub.w	r0, r0, #1
 8005140:	fab0 f080 	clz	r0, r0
 8005144:	0940      	lsrs	r0, r0, #5
 8005146:	e6ee      	b.n	8004f26 <HAL_TIM_PWM_Start_DMA+0x22>
 8005148:	682e      	ldr	r6, [r5, #0]
 800514a:	6ae8      	ldr	r0, [r5, #44]	; 0x2c
 800514c:	4611      	mov	r1, r2
 800514e:	f106 023c 	add.w	r2, r6, #60	; 0x3c
 8005152:	f647 465d 	movw	r6, #31837	; 0x7c5d
 8005156:	f6c0 0600 	movt	r6, #2048	; 0x800
 800515a:	f04f 0c02 	mov.w	ip, #2
 800515e:	f885 c040 	strb.w	ip, [r5, #64]	; 0x40
 8005162:	f647 37d5 	movw	r7, #31701	; 0x7bd5
 8005166:	6406      	str	r6, [r0, #64]	; 0x40
 8005168:	f647 663d 	movw	r6, #32317	; 0x7e3d
 800516c:	f6c0 0700 	movt	r7, #2048	; 0x800
 8005170:	f6c0 0600 	movt	r6, #2048	; 0x800
 8005174:	63c7      	str	r7, [r0, #60]	; 0x3c
 8005176:	64c6      	str	r6, [r0, #76]	; 0x4c
 8005178:	f7fc fb74 	bl	8001864 <HAL_DMA_Start_IT>
 800517c:	2800      	cmp	r0, #0
 800517e:	f47f af1b 	bne.w	8004fb8 <HAL_TIM_PWM_Start_DMA+0xb4>
 8005182:	682b      	ldr	r3, [r5, #0]
 8005184:	68da      	ldr	r2, [r3, #12]
 8005186:	f442 6200 	orr.w	r2, r2, #2048	; 0x800
 800518a:	60da      	str	r2, [r3, #12]
 800518c:	e76e      	b.n	800506c <HAL_TIM_PWM_Start_DMA+0x168>
 800518e:	2000      	movs	r0, #0
 8005190:	bdf8      	pop	{r3, r4, r5, r6, r7, pc}
 8005192:	bf00      	nop

08005194 <HAL_TIM_PWM_Stop_DMA>:
 8005194:	b538      	push	{r3, r4, r5, lr}
 8005196:	460c      	mov	r4, r1
 8005198:	4605      	mov	r5, r0
 800519a:	290c      	cmp	r1, #12
 800519c:	d808      	bhi.n	80051b0 <HAL_TIM_PWM_Stop_DMA+0x1c>
 800519e:	e8df f001 	tbb	[pc, r1]
 80051a2:	073b      	.short	0x073b
 80051a4:	07440707 	.word	0x07440707
 80051a8:	074d0707 	.word	0x074d0707
 80051ac:	0707      	.short	0x0707
 80051ae:	09          	.byte	0x09
 80051af:	00          	.byte	0x00
 80051b0:	2001      	movs	r0, #1
 80051b2:	bd38      	pop	{r3, r4, r5, pc}
 80051b4:	6802      	ldr	r2, [r0, #0]
 80051b6:	6b00      	ldr	r0, [r0, #48]	; 0x30
 80051b8:	68d3      	ldr	r3, [r2, #12]
 80051ba:	f423 5380 	bic.w	r3, r3, #4096	; 0x1000
 80051be:	60d3      	str	r3, [r2, #12]
 80051c0:	f7fc fbd6 	bl	8001970 <HAL_DMA_Abort_IT>
 80051c4:	682b      	ldr	r3, [r5, #0]
 80051c6:	f004 001f 	and.w	r0, r4, #31
 80051ca:	6a1a      	ldr	r2, [r3, #32]
 80051cc:	2101      	movs	r1, #1
 80051ce:	4081      	lsls	r1, r0
 80051d0:	ea22 0201 	bic.w	r2, r2, r1
 80051d4:	621a      	str	r2, [r3, #32]
 80051d6:	2200      	movs	r2, #0
 80051d8:	f2c4 0201 	movt	r2, #16385	; 0x4001
 80051dc:	6a19      	ldr	r1, [r3, #32]
 80051de:	6219      	str	r1, [r3, #32]
 80051e0:	4293      	cmp	r3, r2
 80051e2:	d034      	beq.n	800524e <HAL_TIM_PWM_Stop_DMA+0xba>
 80051e4:	f44f 6280 	mov.w	r2, #1024	; 0x400
 80051e8:	f2c4 0201 	movt	r2, #16385	; 0x4001
 80051ec:	4293      	cmp	r3, r2
 80051ee:	d02e      	beq.n	800524e <HAL_TIM_PWM_Stop_DMA+0xba>
 80051f0:	6a19      	ldr	r1, [r3, #32]
 80051f2:	f241 1211 	movw	r2, #4369	; 0x1111
 80051f6:	4211      	tst	r1, r2
 80051f8:	d108      	bne.n	800520c <HAL_TIM_PWM_Stop_DMA+0x78>
 80051fa:	6a19      	ldr	r1, [r3, #32]
 80051fc:	f240 4244 	movw	r2, #1092	; 0x444
 8005200:	4211      	tst	r1, r2
 8005202:	d103      	bne.n	800520c <HAL_TIM_PWM_Stop_DMA+0x78>
 8005204:	681a      	ldr	r2, [r3, #0]
 8005206:	f022 0201 	bic.w	r2, r2, #1
 800520a:	601a      	str	r2, [r3, #0]
 800520c:	2301      	movs	r3, #1
 800520e:	bb6c      	cbnz	r4, 800526c <HAL_TIM_PWM_Stop_DMA+0xd8>
 8005210:	f885 303e 	strb.w	r3, [r5, #62]	; 0x3e
 8005214:	4620      	mov	r0, r4
 8005216:	bd38      	pop	{r3, r4, r5, pc}
 8005218:	6802      	ldr	r2, [r0, #0]
 800521a:	6a40      	ldr	r0, [r0, #36]	; 0x24
 800521c:	68d3      	ldr	r3, [r2, #12]
 800521e:	f423 7300 	bic.w	r3, r3, #512	; 0x200
 8005222:	60d3      	str	r3, [r2, #12]
 8005224:	f7fc fba4 	bl	8001970 <HAL_DMA_Abort_IT>
 8005228:	e7cc      	b.n	80051c4 <HAL_TIM_PWM_Stop_DMA+0x30>
 800522a:	6802      	ldr	r2, [r0, #0]
 800522c:	6a80      	ldr	r0, [r0, #40]	; 0x28
 800522e:	68d3      	ldr	r3, [r2, #12]
 8005230:	f423 6380 	bic.w	r3, r3, #1024	; 0x400
 8005234:	60d3      	str	r3, [r2, #12]
 8005236:	f7fc fb9b 	bl	8001970 <HAL_DMA_Abort_IT>
 800523a:	e7c3      	b.n	80051c4 <HAL_TIM_PWM_Stop_DMA+0x30>
 800523c:	6802      	ldr	r2, [r0, #0]
 800523e:	6ac0      	ldr	r0, [r0, #44]	; 0x2c
 8005240:	68d3      	ldr	r3, [r2, #12]
 8005242:	f423 6300 	bic.w	r3, r3, #2048	; 0x800
 8005246:	60d3      	str	r3, [r2, #12]
 8005248:	f7fc fb92 	bl	8001970 <HAL_DMA_Abort_IT>
 800524c:	e7ba      	b.n	80051c4 <HAL_TIM_PWM_Stop_DMA+0x30>
 800524e:	6a19      	ldr	r1, [r3, #32]
 8005250:	f241 1211 	movw	r2, #4369	; 0x1111
 8005254:	4211      	tst	r1, r2
 8005256:	d1cb      	bne.n	80051f0 <HAL_TIM_PWM_Stop_DMA+0x5c>
 8005258:	6a19      	ldr	r1, [r3, #32]
 800525a:	f240 4244 	movw	r2, #1092	; 0x444
 800525e:	4211      	tst	r1, r2
 8005260:	d1c6      	bne.n	80051f0 <HAL_TIM_PWM_Stop_DMA+0x5c>
 8005262:	6c5a      	ldr	r2, [r3, #68]	; 0x44
 8005264:	f422 4200 	bic.w	r2, r2, #32768	; 0x8000
 8005268:	645a      	str	r2, [r3, #68]	; 0x44
 800526a:	e7c1      	b.n	80051f0 <HAL_TIM_PWM_Stop_DMA+0x5c>
 800526c:	2c04      	cmp	r4, #4
 800526e:	d007      	beq.n	8005280 <HAL_TIM_PWM_Stop_DMA+0xec>
 8005270:	2c08      	cmp	r4, #8
 8005272:	bf0c      	ite	eq
 8005274:	f885 3040 	strbeq.w	r3, [r5, #64]	; 0x40
 8005278:	f885 3041 	strbne.w	r3, [r5, #65]	; 0x41
 800527c:	2000      	movs	r0, #0
 800527e:	bd38      	pop	{r3, r4, r5, pc}
 8005280:	f885 303f 	strb.w	r3, [r5, #63]	; 0x3f
 8005284:	2000      	movs	r0, #0
 8005286:	bd38      	pop	{r3, r4, r5, pc}

08005288 <HAL_TIM_IC_MspInit>:
 8005288:	4770      	bx	lr
 800528a:	bf00      	nop

0800528c <HAL_TIM_IC_Init>:
 800528c:	2800      	cmp	r0, #0
 800528e:	f000 809e 	beq.w	80053ce <HAL_TIM_IC_Init+0x142>
 8005292:	b538      	push	{r3, r4, r5, lr}
 8005294:	f890 303d 	ldrb.w	r3, [r0, #61]	; 0x3d
 8005298:	4604      	mov	r4, r0
 800529a:	f003 02ff 	and.w	r2, r3, #255	; 0xff
 800529e:	2b00      	cmp	r3, #0
 80052a0:	f000 8090 	beq.w	80053c4 <HAL_TIM_IC_Init+0x138>
 80052a4:	6822      	ldr	r2, [r4, #0]
 80052a6:	2100      	movs	r1, #0
 80052a8:	2302      	movs	r3, #2
 80052aa:	f2c4 0101 	movt	r1, #16385	; 0x4001
 80052ae:	f884 303d 	strb.w	r3, [r4, #61]	; 0x3d
 80052b2:	428a      	cmp	r2, r1
 80052b4:	6813      	ldr	r3, [r2, #0]
 80052b6:	d071      	beq.n	800539c <HAL_TIM_IC_Init+0x110>
 80052b8:	f1b2 4f80 	cmp.w	r2, #1073741824	; 0x40000000
 80052bc:	d045      	beq.n	800534a <HAL_TIM_IC_Init+0xbe>
 80052be:	f44f 6180 	mov.w	r1, #1024	; 0x400
 80052c2:	f2c4 0100 	movt	r1, #16384	; 0x4000
 80052c6:	428a      	cmp	r2, r1
 80052c8:	d03f      	beq.n	800534a <HAL_TIM_IC_Init+0xbe>
 80052ca:	f44f 6100 	mov.w	r1, #2048	; 0x800
 80052ce:	f2c4 0100 	movt	r1, #16384	; 0x4000
 80052d2:	428a      	cmp	r2, r1
 80052d4:	d039      	beq.n	800534a <HAL_TIM_IC_Init+0xbe>
 80052d6:	f44f 6140 	mov.w	r1, #3072	; 0xc00
 80052da:	f2c4 0100 	movt	r1, #16384	; 0x4000
 80052de:	428a      	cmp	r2, r1
 80052e0:	d033      	beq.n	800534a <HAL_TIM_IC_Init+0xbe>
 80052e2:	f44f 6180 	mov.w	r1, #1024	; 0x400
 80052e6:	f2c4 0101 	movt	r1, #16385	; 0x4001
 80052ea:	428a      	cmp	r2, r1
 80052ec:	d056      	beq.n	800539c <HAL_TIM_IC_Init+0x110>
 80052ee:	f44f 4180 	mov.w	r1, #16384	; 0x4000
 80052f2:	f2c4 0101 	movt	r1, #16385	; 0x4001
 80052f6:	428a      	cmp	r2, r1
 80052f8:	d02b      	beq.n	8005352 <HAL_TIM_IC_Init+0xc6>
 80052fa:	f44f 4188 	mov.w	r1, #17408	; 0x4400
 80052fe:	f2c4 0101 	movt	r1, #16385	; 0x4001
 8005302:	428a      	cmp	r2, r1
 8005304:	d025      	beq.n	8005352 <HAL_TIM_IC_Init+0xc6>
 8005306:	f44f 4190 	mov.w	r1, #18432	; 0x4800
 800530a:	f2c4 0101 	movt	r1, #16385	; 0x4001
 800530e:	428a      	cmp	r2, r1
 8005310:	d01f      	beq.n	8005352 <HAL_TIM_IC_Init+0xc6>
 8005312:	f44f 51c0 	mov.w	r1, #6144	; 0x1800
 8005316:	f2c4 0100 	movt	r1, #16384	; 0x4000
 800531a:	428a      	cmp	r2, r1
 800531c:	d019      	beq.n	8005352 <HAL_TIM_IC_Init+0xc6>
 800531e:	f44f 51e0 	mov.w	r1, #7168	; 0x1c00
 8005322:	f2c4 0100 	movt	r1, #16384	; 0x4000
 8005326:	428a      	cmp	r2, r1
 8005328:	d013      	beq.n	8005352 <HAL_TIM_IC_Init+0xc6>
 800532a:	f44f 5100 	mov.w	r1, #8192	; 0x2000
 800532e:	f2c4 0100 	movt	r1, #16384	; 0x4000
 8005332:	428a      	cmp	r2, r1
 8005334:	d00d      	beq.n	8005352 <HAL_TIM_IC_Init+0xc6>
 8005336:	69a5      	ldr	r5, [r4, #24]
 8005338:	68e0      	ldr	r0, [r4, #12]
 800533a:	6861      	ldr	r1, [r4, #4]
 800533c:	f023 0380 	bic.w	r3, r3, #128	; 0x80
 8005340:	432b      	orrs	r3, r5
 8005342:	6013      	str	r3, [r2, #0]
 8005344:	62d0      	str	r0, [r2, #44]	; 0x2c
 8005346:	6291      	str	r1, [r2, #40]	; 0x28
 8005348:	e010      	b.n	800536c <HAL_TIM_IC_Init+0xe0>
 800534a:	68a1      	ldr	r1, [r4, #8]
 800534c:	f023 0370 	bic.w	r3, r3, #112	; 0x70
 8005350:	430b      	orrs	r3, r1
 8005352:	6925      	ldr	r5, [r4, #16]
 8005354:	69a1      	ldr	r1, [r4, #24]
 8005356:	68e0      	ldr	r0, [r4, #12]
 8005358:	f423 7340 	bic.w	r3, r3, #768	; 0x300
 800535c:	432b      	orrs	r3, r5
 800535e:	f023 0380 	bic.w	r3, r3, #128	; 0x80
 8005362:	430b      	orrs	r3, r1
 8005364:	6861      	ldr	r1, [r4, #4]
 8005366:	6013      	str	r3, [r2, #0]
 8005368:	62d0      	str	r0, [r2, #44]	; 0x2c
 800536a:	6291      	str	r1, [r2, #40]	; 0x28
 800536c:	2301      	movs	r3, #1
 800536e:	6153      	str	r3, [r2, #20]
 8005370:	f884 3046 	strb.w	r3, [r4, #70]	; 0x46
 8005374:	f884 303e 	strb.w	r3, [r4, #62]	; 0x3e
 8005378:	f884 303f 	strb.w	r3, [r4, #63]	; 0x3f
 800537c:	f884 3040 	strb.w	r3, [r4, #64]	; 0x40
 8005380:	f884 3041 	strb.w	r3, [r4, #65]	; 0x41
 8005384:	f884 3042 	strb.w	r3, [r4, #66]	; 0x42
 8005388:	f884 3043 	strb.w	r3, [r4, #67]	; 0x43
 800538c:	f884 3044 	strb.w	r3, [r4, #68]	; 0x44
 8005390:	f884 3045 	strb.w	r3, [r4, #69]	; 0x45
 8005394:	f884 303d 	strb.w	r3, [r4, #61]	; 0x3d
 8005398:	2000      	movs	r0, #0
 800539a:	bd38      	pop	{r3, r4, r5, pc}
 800539c:	68a5      	ldr	r5, [r4, #8]
 800539e:	6920      	ldr	r0, [r4, #16]
 80053a0:	69a1      	ldr	r1, [r4, #24]
 80053a2:	f023 0370 	bic.w	r3, r3, #112	; 0x70
 80053a6:	432b      	orrs	r3, r5
 80053a8:	f423 7340 	bic.w	r3, r3, #768	; 0x300
 80053ac:	4303      	orrs	r3, r0
 80053ae:	f023 0380 	bic.w	r3, r3, #128	; 0x80
 80053b2:	430b      	orrs	r3, r1
 80053b4:	6013      	str	r3, [r2, #0]
 80053b6:	68e3      	ldr	r3, [r4, #12]
 80053b8:	62d3      	str	r3, [r2, #44]	; 0x2c
 80053ba:	6863      	ldr	r3, [r4, #4]
 80053bc:	6293      	str	r3, [r2, #40]	; 0x28
 80053be:	6963      	ldr	r3, [r4, #20]
 80053c0:	6313      	str	r3, [r2, #48]	; 0x30
 80053c2:	e7d3      	b.n	800536c <HAL_TIM_IC_Init+0xe0>
 80053c4:	f880 203c 	strb.w	r2, [r0, #60]	; 0x3c
 80053c8:	f7ff ff5e 	bl	8005288 <HAL_TIM_IC_MspInit>
 80053cc:	e76a      	b.n	80052a4 <HAL_TIM_IC_Init+0x18>
 80053ce:	2001      	movs	r0, #1
 80053d0:	4770      	bx	lr
 80053d2:	bf00      	nop

080053d4 <HAL_TIM_IC_MspDeInit>:
 80053d4:	4770      	bx	lr
 80053d6:	bf00      	nop

080053d8 <HAL_TIM_IC_DeInit>:
 80053d8:	2202      	movs	r2, #2
 80053da:	6803      	ldr	r3, [r0, #0]
 80053dc:	b510      	push	{r4, lr}
 80053de:	f880 203d 	strb.w	r2, [r0, #61]	; 0x3d
 80053e2:	6a19      	ldr	r1, [r3, #32]
 80053e4:	f241 1211 	movw	r2, #4369	; 0x1111
 80053e8:	4211      	tst	r1, r2
 80053ea:	4604      	mov	r4, r0
 80053ec:	d108      	bne.n	8005400 <HAL_TIM_IC_DeInit+0x28>
 80053ee:	6a19      	ldr	r1, [r3, #32]
 80053f0:	f240 4244 	movw	r2, #1092	; 0x444
 80053f4:	4211      	tst	r1, r2
 80053f6:	d103      	bne.n	8005400 <HAL_TIM_IC_DeInit+0x28>
 80053f8:	681a      	ldr	r2, [r3, #0]
 80053fa:	f022 0201 	bic.w	r2, r2, #1
 80053fe:	601a      	str	r2, [r3, #0]
 8005400:	4620      	mov	r0, r4
 8005402:	f7ff ffe7 	bl	80053d4 <HAL_TIM_IC_MspDeInit>
 8005406:	2000      	movs	r0, #0
 8005408:	f884 0046 	strb.w	r0, [r4, #70]	; 0x46
 800540c:	f884 003c 	strb.w	r0, [r4, #60]	; 0x3c
 8005410:	f884 003e 	strb.w	r0, [r4, #62]	; 0x3e
 8005414:	f884 003f 	strb.w	r0, [r4, #63]	; 0x3f
 8005418:	f884 0040 	strb.w	r0, [r4, #64]	; 0x40
 800541c:	f884 0041 	strb.w	r0, [r4, #65]	; 0x41
 8005420:	f884 0042 	strb.w	r0, [r4, #66]	; 0x42
 8005424:	f884 0043 	strb.w	r0, [r4, #67]	; 0x43
 8005428:	f884 0044 	strb.w	r0, [r4, #68]	; 0x44
 800542c:	f884 0045 	strb.w	r0, [r4, #69]	; 0x45
 8005430:	f884 003d 	strb.w	r0, [r4, #61]	; 0x3d
 8005434:	bd10      	pop	{r4, pc}
 8005436:	bf00      	nop

08005438 <HAL_TIM_IC_Start>:
 8005438:	b410      	push	{r4}
 800543a:	4604      	mov	r4, r0
 800543c:	b981      	cbnz	r1, 8005460 <HAL_TIM_IC_Start+0x28>
 800543e:	f890 303e 	ldrb.w	r3, [r0, #62]	; 0x3e
 8005442:	f890 2042 	ldrb.w	r2, [r0, #66]	; 0x42
 8005446:	b2d8      	uxtb	r0, r3
 8005448:	b2d3      	uxtb	r3, r2
 800544a:	2801      	cmp	r0, #1
 800544c:	d104      	bne.n	8005458 <HAL_TIM_IC_Start+0x20>
 800544e:	2b01      	cmp	r3, #1
 8005450:	d015      	beq.n	800547e <HAL_TIM_IC_Start+0x46>
 8005452:	f85d 4b04 	ldr.w	r4, [sp], #4
 8005456:	4770      	bx	lr
 8005458:	2001      	movs	r0, #1
 800545a:	f85d 4b04 	ldr.w	r4, [sp], #4
 800545e:	4770      	bx	lr
 8005460:	2904      	cmp	r1, #4
 8005462:	d061      	beq.n	8005528 <HAL_TIM_IC_Start+0xf0>
 8005464:	2908      	cmp	r1, #8
 8005466:	bf0b      	itete	eq
 8005468:	f890 3040 	ldrbeq.w	r3, [r0, #64]	; 0x40
 800546c:	f890 3041 	ldrbne.w	r3, [r0, #65]	; 0x41
 8005470:	f890 2044 	ldrbeq.w	r2, [r0, #68]	; 0x44
 8005474:	f890 2045 	ldrbne.w	r2, [r0, #69]	; 0x45
 8005478:	b2d8      	uxtb	r0, r3
 800547a:	b2d3      	uxtb	r3, r2
 800547c:	e7e5      	b.n	800544a <HAL_TIM_IC_Start+0x12>
 800547e:	2302      	movs	r3, #2
 8005480:	2900      	cmp	r1, #0
 8005482:	d058      	beq.n	8005536 <HAL_TIM_IC_Start+0xfe>
 8005484:	2904      	cmp	r1, #4
 8005486:	d05d      	beq.n	8005544 <HAL_TIM_IC_Start+0x10c>
 8005488:	2908      	cmp	r1, #8
 800548a:	bf0b      	itete	eq
 800548c:	f884 3040 	strbeq.w	r3, [r4, #64]	; 0x40
 8005490:	f884 3041 	strbne.w	r3, [r4, #65]	; 0x41
 8005494:	f884 3044 	strbeq.w	r3, [r4, #68]	; 0x44
 8005498:	f884 3045 	strbne.w	r3, [r4, #69]	; 0x45
 800549c:	6823      	ldr	r3, [r4, #0]
 800549e:	2201      	movs	r2, #1
 80054a0:	6a18      	ldr	r0, [r3, #32]
 80054a2:	f001 011f 	and.w	r1, r1, #31
 80054a6:	fa02 f101 	lsl.w	r1, r2, r1
 80054aa:	ea20 0001 	bic.w	r0, r0, r1
 80054ae:	6218      	str	r0, [r3, #32]
 80054b0:	6a18      	ldr	r0, [r3, #32]
 80054b2:	2200      	movs	r2, #0
 80054b4:	f2c4 0201 	movt	r2, #16385	; 0x4001
 80054b8:	4301      	orrs	r1, r0
 80054ba:	4293      	cmp	r3, r2
 80054bc:	6219      	str	r1, [r3, #32]
 80054be:	d026      	beq.n	800550e <HAL_TIM_IC_Start+0xd6>
 80054c0:	f1b3 4f80 	cmp.w	r3, #1073741824	; 0x40000000
 80054c4:	d023      	beq.n	800550e <HAL_TIM_IC_Start+0xd6>
 80054c6:	f44f 6280 	mov.w	r2, #1024	; 0x400
 80054ca:	f2c4 0200 	movt	r2, #16384	; 0x4000
 80054ce:	4293      	cmp	r3, r2
 80054d0:	d01d      	beq.n	800550e <HAL_TIM_IC_Start+0xd6>
 80054d2:	f44f 6200 	mov.w	r2, #2048	; 0x800
 80054d6:	f2c4 0200 	movt	r2, #16384	; 0x4000
 80054da:	4293      	cmp	r3, r2
 80054dc:	d017      	beq.n	800550e <HAL_TIM_IC_Start+0xd6>
 80054de:	f44f 6240 	mov.w	r2, #3072	; 0xc00
 80054e2:	f2c4 0200 	movt	r2, #16384	; 0x4000
 80054e6:	4293      	cmp	r3, r2
 80054e8:	d011      	beq.n	800550e <HAL_TIM_IC_Start+0xd6>
 80054ea:	f44f 6280 	mov.w	r2, #1024	; 0x400
 80054ee:	f2c4 0201 	movt	r2, #16385	; 0x4001
 80054f2:	4293      	cmp	r3, r2
 80054f4:	d00b      	beq.n	800550e <HAL_TIM_IC_Start+0xd6>
 80054f6:	f44f 4280 	mov.w	r2, #16384	; 0x4000
 80054fa:	f2c4 0201 	movt	r2, #16385	; 0x4001
 80054fe:	4293      	cmp	r3, r2
 8005500:	d005      	beq.n	800550e <HAL_TIM_IC_Start+0xd6>
 8005502:	f44f 52c0 	mov.w	r2, #6144	; 0x1800
 8005506:	f2c4 0200 	movt	r2, #16384	; 0x4000
 800550a:	4293      	cmp	r3, r2
 800550c:	d104      	bne.n	8005518 <HAL_TIM_IC_Start+0xe0>
 800550e:	689a      	ldr	r2, [r3, #8]
 8005510:	f002 0207 	and.w	r2, r2, #7
 8005514:	2a06      	cmp	r2, #6
 8005516:	d013      	beq.n	8005540 <HAL_TIM_IC_Start+0x108>
 8005518:	681a      	ldr	r2, [r3, #0]
 800551a:	f85d 4b04 	ldr.w	r4, [sp], #4
 800551e:	f042 0201 	orr.w	r2, r2, #1
 8005522:	2000      	movs	r0, #0
 8005524:	601a      	str	r2, [r3, #0]
 8005526:	4770      	bx	lr
 8005528:	f890 303f 	ldrb.w	r3, [r0, #63]	; 0x3f
 800552c:	f890 2043 	ldrb.w	r2, [r0, #67]	; 0x43
 8005530:	b2d8      	uxtb	r0, r3
 8005532:	b2d3      	uxtb	r3, r2
 8005534:	e789      	b.n	800544a <HAL_TIM_IC_Start+0x12>
 8005536:	f884 303e 	strb.w	r3, [r4, #62]	; 0x3e
 800553a:	f884 3042 	strb.w	r3, [r4, #66]	; 0x42
 800553e:	e7ad      	b.n	800549c <HAL_TIM_IC_Start+0x64>
 8005540:	2000      	movs	r0, #0
 8005542:	e786      	b.n	8005452 <HAL_TIM_IC_Start+0x1a>
 8005544:	f884 303f 	strb.w	r3, [r4, #63]	; 0x3f
 8005548:	f884 3043 	strb.w	r3, [r4, #67]	; 0x43
 800554c:	e7a6      	b.n	800549c <HAL_TIM_IC_Start+0x64>
 800554e:	bf00      	nop

08005550 <HAL_TIM_IC_Stop>:
 8005550:	6803      	ldr	r3, [r0, #0]
 8005552:	b430      	push	{r4, r5}
 8005554:	6a1a      	ldr	r2, [r3, #32]
 8005556:	f001 051f 	and.w	r5, r1, #31
 800555a:	2401      	movs	r4, #1
 800555c:	40ac      	lsls	r4, r5
 800555e:	ea22 0204 	bic.w	r2, r2, r4
 8005562:	621a      	str	r2, [r3, #32]
 8005564:	6a1a      	ldr	r2, [r3, #32]
 8005566:	621a      	str	r2, [r3, #32]
 8005568:	6a1c      	ldr	r4, [r3, #32]
 800556a:	f241 1211 	movw	r2, #4369	; 0x1111
 800556e:	4214      	tst	r4, r2
 8005570:	d104      	bne.n	800557c <HAL_TIM_IC_Stop+0x2c>
 8005572:	6a1c      	ldr	r4, [r3, #32]
 8005574:	f240 4244 	movw	r2, #1092	; 0x444
 8005578:	4214      	tst	r4, r2
 800557a:	d017      	beq.n	80055ac <HAL_TIM_IC_Stop+0x5c>
 800557c:	2301      	movs	r3, #1
 800557e:	b931      	cbnz	r1, 800558e <HAL_TIM_IC_Stop+0x3e>
 8005580:	f880 303e 	strb.w	r3, [r0, #62]	; 0x3e
 8005584:	f880 3042 	strb.w	r3, [r0, #66]	; 0x42
 8005588:	bc30      	pop	{r4, r5}
 800558a:	2000      	movs	r0, #0
 800558c:	4770      	bx	lr
 800558e:	2904      	cmp	r1, #4
 8005590:	d011      	beq.n	80055b6 <HAL_TIM_IC_Stop+0x66>
 8005592:	2908      	cmp	r1, #8
 8005594:	bf0b      	itete	eq
 8005596:	f880 3040 	strbeq.w	r3, [r0, #64]	; 0x40
 800559a:	f880 3041 	strbne.w	r3, [r0, #65]	; 0x41
 800559e:	f880 3044 	strbeq.w	r3, [r0, #68]	; 0x44
 80055a2:	f880 3045 	strbne.w	r3, [r0, #69]	; 0x45
 80055a6:	bc30      	pop	{r4, r5}
 80055a8:	2000      	movs	r0, #0
 80055aa:	4770      	bx	lr
 80055ac:	681a      	ldr	r2, [r3, #0]
 80055ae:	f022 0201 	bic.w	r2, r2, #1
 80055b2:	601a      	str	r2, [r3, #0]
 80055b4:	e7e2      	b.n	800557c <HAL_TIM_IC_Stop+0x2c>
 80055b6:	f880 303f 	strb.w	r3, [r0, #63]	; 0x3f
 80055ba:	f880 3043 	strb.w	r3, [r0, #67]	; 0x43
 80055be:	bc30      	pop	{r4, r5}
 80055c0:	2000      	movs	r0, #0
 80055c2:	4770      	bx	lr

080055c4 <HAL_TIM_IC_Start_IT>:
 80055c4:	b410      	push	{r4}
 80055c6:	4604      	mov	r4, r0
 80055c8:	b981      	cbnz	r1, 80055ec <HAL_TIM_IC_Start_IT+0x28>
 80055ca:	f890 303e 	ldrb.w	r3, [r0, #62]	; 0x3e
 80055ce:	f890 2042 	ldrb.w	r2, [r0, #66]	; 0x42
 80055d2:	b2d8      	uxtb	r0, r3
 80055d4:	b2d3      	uxtb	r3, r2
 80055d6:	2801      	cmp	r0, #1
 80055d8:	d104      	bne.n	80055e4 <HAL_TIM_IC_Start_IT+0x20>
 80055da:	2b01      	cmp	r3, #1
 80055dc:	d015      	beq.n	800560a <HAL_TIM_IC_Start_IT+0x46>
 80055de:	f85d 4b04 	ldr.w	r4, [sp], #4
 80055e2:	4770      	bx	lr
 80055e4:	2001      	movs	r0, #1
 80055e6:	f85d 4b04 	ldr.w	r4, [sp], #4
 80055ea:	4770      	bx	lr
 80055ec:	2904      	cmp	r1, #4
 80055ee:	d05d      	beq.n	80056ac <HAL_TIM_IC_Start_IT+0xe8>
 80055f0:	2908      	cmp	r1, #8
 80055f2:	bf0b      	itete	eq
 80055f4:	f890 3040 	ldrbeq.w	r3, [r0, #64]	; 0x40
 80055f8:	f890 3041 	ldrbne.w	r3, [r0, #65]	; 0x41
 80055fc:	f890 2044 	ldrbeq.w	r2, [r0, #68]	; 0x44
 8005600:	f890 2045 	ldrbne.w	r2, [r0, #69]	; 0x45
 8005604:	b2d8      	uxtb	r0, r3
 8005606:	b2d3      	uxtb	r3, r2
 8005608:	e7e5      	b.n	80055d6 <HAL_TIM_IC_Start_IT+0x12>
 800560a:	2900      	cmp	r1, #0
 800560c:	d155      	bne.n	80056ba <HAL_TIM_IC_Start_IT+0xf6>
 800560e:	2302      	movs	r3, #2
 8005610:	f884 303e 	strb.w	r3, [r4, #62]	; 0x3e
 8005614:	f884 3042 	strb.w	r3, [r4, #66]	; 0x42
 8005618:	6823      	ldr	r3, [r4, #0]
 800561a:	68da      	ldr	r2, [r3, #12]
 800561c:	f042 0202 	orr.w	r2, r2, #2
 8005620:	60da      	str	r2, [r3, #12]
 8005622:	6a18      	ldr	r0, [r3, #32]
 8005624:	2201      	movs	r2, #1
 8005626:	f001 011f 	and.w	r1, r1, #31
 800562a:	fa02 f101 	lsl.w	r1, r2, r1
 800562e:	ea20 0001 	bic.w	r0, r0, r1
 8005632:	6218      	str	r0, [r3, #32]
 8005634:	6a18      	ldr	r0, [r3, #32]
 8005636:	2200      	movs	r2, #0
 8005638:	f2c4 0201 	movt	r2, #16385	; 0x4001
 800563c:	4301      	orrs	r1, r0
 800563e:	4293      	cmp	r3, r2
 8005640:	6219      	str	r1, [r3, #32]
 8005642:	d026      	beq.n	8005692 <HAL_TIM_IC_Start_IT+0xce>
 8005644:	f1b3 4f80 	cmp.w	r3, #1073741824	; 0x40000000
 8005648:	d023      	beq.n	8005692 <HAL_TIM_IC_Start_IT+0xce>
 800564a:	f44f 6280 	mov.w	r2, #1024	; 0x400
 800564e:	f2c4 0200 	movt	r2, #16384	; 0x4000
 8005652:	4293      	cmp	r3, r2
 8005654:	d01d      	beq.n	8005692 <HAL_TIM_IC_Start_IT+0xce>
 8005656:	f44f 6200 	mov.w	r2, #2048	; 0x800
 800565a:	f2c4 0200 	movt	r2, #16384	; 0x4000
 800565e:	4293      	cmp	r3, r2
 8005660:	d017      	beq.n	8005692 <HAL_TIM_IC_Start_IT+0xce>
 8005662:	f44f 6240 	mov.w	r2, #3072	; 0xc00
 8005666:	f2c4 0200 	movt	r2, #16384	; 0x4000
 800566a:	4293      	cmp	r3, r2
 800566c:	d011      	beq.n	8005692 <HAL_TIM_IC_Start_IT+0xce>
 800566e:	f44f 6280 	mov.w	r2, #1024	; 0x400
 8005672:	f2c4 0201 	movt	r2, #16385	; 0x4001
 8005676:	4293      	cmp	r3, r2
 8005678:	d00b      	beq.n	8005692 <HAL_TIM_IC_Start_IT+0xce>
 800567a:	f44f 4280 	mov.w	r2, #16384	; 0x4000
 800567e:	f2c4 0201 	movt	r2, #16385	; 0x4001
 8005682:	4293      	cmp	r3, r2
 8005684:	d005      	beq.n	8005692 <HAL_TIM_IC_Start_IT+0xce>
 8005686:	f44f 52c0 	mov.w	r2, #6144	; 0x1800
 800568a:	f2c4 0200 	movt	r2, #16384	; 0x4000
 800568e:	4293      	cmp	r3, r2
 8005690:	d104      	bne.n	800569c <HAL_TIM_IC_Start_IT+0xd8>
 8005692:	689a      	ldr	r2, [r3, #8]
 8005694:	f002 0207 	and.w	r2, r2, #7
 8005698:	2a06      	cmp	r2, #6
 800569a:	d048      	beq.n	800572e <HAL_TIM_IC_Start_IT+0x16a>
 800569c:	681a      	ldr	r2, [r3, #0]
 800569e:	f85d 4b04 	ldr.w	r4, [sp], #4
 80056a2:	f042 0201 	orr.w	r2, r2, #1
 80056a6:	2000      	movs	r0, #0
 80056a8:	601a      	str	r2, [r3, #0]
 80056aa:	4770      	bx	lr
 80056ac:	f890 303f 	ldrb.w	r3, [r0, #63]	; 0x3f
 80056b0:	f890 2043 	ldrb.w	r2, [r0, #67]	; 0x43
 80056b4:	b2d8      	uxtb	r0, r3
 80056b6:	b2d3      	uxtb	r3, r2
 80056b8:	e78d      	b.n	80055d6 <HAL_TIM_IC_Start_IT+0x12>
 80056ba:	2904      	cmp	r1, #4
 80056bc:	d02c      	beq.n	8005718 <HAL_TIM_IC_Start_IT+0x154>
 80056be:	2908      	cmp	r1, #8
 80056c0:	d037      	beq.n	8005732 <HAL_TIM_IC_Start_IT+0x16e>
 80056c2:	2302      	movs	r3, #2
 80056c4:	f884 3041 	strb.w	r3, [r4, #65]	; 0x41
 80056c8:	f884 3045 	strb.w	r3, [r4, #69]	; 0x45
 80056cc:	290c      	cmp	r1, #12
 80056ce:	d889      	bhi.n	80055e4 <HAL_TIM_IC_Start_IT+0x20>
 80056d0:	a301      	add	r3, pc, #4	; (adr r3, 80056d8 <HAL_TIM_IC_Start_IT+0x114>)
 80056d2:	f853 f021 	ldr.w	pc, [r3, r1, lsl #2]
 80056d6:	bf00      	nop
 80056d8:	08005619 	.word	0x08005619
 80056dc:	080055e5 	.word	0x080055e5
 80056e0:	080055e5 	.word	0x080055e5
 80056e4:	080055e5 	.word	0x080055e5
 80056e8:	08005723 	.word	0x08005723
 80056ec:	080055e5 	.word	0x080055e5
 80056f0:	080055e5 	.word	0x080055e5
 80056f4:	080055e5 	.word	0x080055e5
 80056f8:	080055e5 	.word	0x080055e5
 80056fc:	080055e5 	.word	0x080055e5
 8005700:	080055e5 	.word	0x080055e5
 8005704:	080055e5 	.word	0x080055e5
 8005708:	0800570d 	.word	0x0800570d
 800570c:	6823      	ldr	r3, [r4, #0]
 800570e:	68da      	ldr	r2, [r3, #12]
 8005710:	f042 0210 	orr.w	r2, r2, #16
 8005714:	60da      	str	r2, [r3, #12]
 8005716:	e784      	b.n	8005622 <HAL_TIM_IC_Start_IT+0x5e>
 8005718:	2302      	movs	r3, #2
 800571a:	f884 303f 	strb.w	r3, [r4, #63]	; 0x3f
 800571e:	f884 3043 	strb.w	r3, [r4, #67]	; 0x43
 8005722:	6823      	ldr	r3, [r4, #0]
 8005724:	68da      	ldr	r2, [r3, #12]
 8005726:	f042 0204 	orr.w	r2, r2, #4
 800572a:	60da      	str	r2, [r3, #12]
 800572c:	e779      	b.n	8005622 <HAL_TIM_IC_Start_IT+0x5e>
 800572e:	2000      	movs	r0, #0
 8005730:	e755      	b.n	80055de <HAL_TIM_IC_Start_IT+0x1a>
 8005732:	2202      	movs	r2, #2
 8005734:	6823      	ldr	r3, [r4, #0]
 8005736:	f884 2040 	strb.w	r2, [r4, #64]	; 0x40
 800573a:	f884 2044 	strb.w	r2, [r4, #68]	; 0x44
 800573e:	68da      	ldr	r2, [r3, #12]
 8005740:	f042 0208 	orr.w	r2, r2, #8
 8005744:	60da      	str	r2, [r3, #12]
 8005746:	e76c      	b.n	8005622 <HAL_TIM_IC_Start_IT+0x5e>

08005748 <HAL_TIM_IC_Stop_IT>:
 8005748:	b410      	push	{r4}
 800574a:	290c      	cmp	r1, #12
 800574c:	d808      	bhi.n	8005760 <HAL_TIM_IC_Stop_IT+0x18>
 800574e:	e8df f001 	tbb	[pc, r1]
 8005752:	072b      	.short	0x072b
 8005754:	074a0707 	.word	0x074a0707
 8005758:	076e0707 	.word	0x076e0707
 800575c:	0707      	.short	0x0707
 800575e:	0c          	.byte	0x0c
 800575f:	00          	.byte	0x00
 8005760:	2301      	movs	r3, #1
 8005762:	4618      	mov	r0, r3
 8005764:	f85d 4b04 	ldr.w	r4, [sp], #4
 8005768:	4770      	bx	lr
 800576a:	6803      	ldr	r3, [r0, #0]
 800576c:	68da      	ldr	r2, [r3, #12]
 800576e:	f022 0210 	bic.w	r2, r2, #16
 8005772:	60da      	str	r2, [r3, #12]
 8005774:	6a1a      	ldr	r2, [r3, #32]
 8005776:	f422 5280 	bic.w	r2, r2, #4096	; 0x1000
 800577a:	621a      	str	r2, [r3, #32]
 800577c:	6a1a      	ldr	r2, [r3, #32]
 800577e:	621a      	str	r2, [r3, #32]
 8005780:	6a1c      	ldr	r4, [r3, #32]
 8005782:	f241 1211 	movw	r2, #4369	; 0x1111
 8005786:	4214      	tst	r4, r2
 8005788:	d104      	bne.n	8005794 <HAL_TIM_IC_Stop_IT+0x4c>
 800578a:	6a1c      	ldr	r4, [r3, #32]
 800578c:	f240 4244 	movw	r2, #1092	; 0x444
 8005790:	4214      	tst	r4, r2
 8005792:	d03d      	beq.n	8005810 <HAL_TIM_IC_Stop_IT+0xc8>
 8005794:	2201      	movs	r2, #1
 8005796:	f880 2041 	strb.w	r2, [r0, #65]	; 0x41
 800579a:	2300      	movs	r3, #0
 800579c:	f880 2045 	strb.w	r2, [r0, #69]	; 0x45
 80057a0:	f85d 4b04 	ldr.w	r4, [sp], #4
 80057a4:	4618      	mov	r0, r3
 80057a6:	4770      	bx	lr
 80057a8:	6803      	ldr	r3, [r0, #0]
 80057aa:	68da      	ldr	r2, [r3, #12]
 80057ac:	f022 0202 	bic.w	r2, r2, #2
 80057b0:	60da      	str	r2, [r3, #12]
 80057b2:	6a1a      	ldr	r2, [r3, #32]
 80057b4:	f022 0201 	bic.w	r2, r2, #1
 80057b8:	621a      	str	r2, [r3, #32]
 80057ba:	6a1a      	ldr	r2, [r3, #32]
 80057bc:	621a      	str	r2, [r3, #32]
 80057be:	6a19      	ldr	r1, [r3, #32]
 80057c0:	f241 1211 	movw	r2, #4369	; 0x1111
 80057c4:	4211      	tst	r1, r2
 80057c6:	d104      	bne.n	80057d2 <HAL_TIM_IC_Stop_IT+0x8a>
 80057c8:	6a19      	ldr	r1, [r3, #32]
 80057ca:	f240 4244 	movw	r2, #1092	; 0x444
 80057ce:	4211      	tst	r1, r2
 80057d0:	d04d      	beq.n	800586e <HAL_TIM_IC_Stop_IT+0x126>
 80057d2:	2201      	movs	r2, #1
 80057d4:	f880 203e 	strb.w	r2, [r0, #62]	; 0x3e
 80057d8:	2300      	movs	r3, #0
 80057da:	f880 2042 	strb.w	r2, [r0, #66]	; 0x42
 80057de:	f85d 4b04 	ldr.w	r4, [sp], #4
 80057e2:	4618      	mov	r0, r3
 80057e4:	4770      	bx	lr
 80057e6:	6803      	ldr	r3, [r0, #0]
 80057e8:	68da      	ldr	r2, [r3, #12]
 80057ea:	f022 0204 	bic.w	r2, r2, #4
 80057ee:	60da      	str	r2, [r3, #12]
 80057f0:	6a1a      	ldr	r2, [r3, #32]
 80057f2:	f022 0210 	bic.w	r2, r2, #16
 80057f6:	621a      	str	r2, [r3, #32]
 80057f8:	6a1a      	ldr	r2, [r3, #32]
 80057fa:	621a      	str	r2, [r3, #32]
 80057fc:	6a1c      	ldr	r4, [r3, #32]
 80057fe:	f241 1211 	movw	r2, #4369	; 0x1111
 8005802:	4214      	tst	r4, r2
 8005804:	d129      	bne.n	800585a <HAL_TIM_IC_Stop_IT+0x112>
 8005806:	6a1c      	ldr	r4, [r3, #32]
 8005808:	f240 4244 	movw	r2, #1092	; 0x444
 800580c:	4214      	tst	r4, r2
 800580e:	d124      	bne.n	800585a <HAL_TIM_IC_Stop_IT+0x112>
 8005810:	681a      	ldr	r2, [r3, #0]
 8005812:	2904      	cmp	r1, #4
 8005814:	f022 0201 	bic.w	r2, r2, #1
 8005818:	601a      	str	r2, [r3, #0]
 800581a:	d01e      	beq.n	800585a <HAL_TIM_IC_Stop_IT+0x112>
 800581c:	2908      	cmp	r1, #8
 800581e:	d1b9      	bne.n	8005794 <HAL_TIM_IC_Stop_IT+0x4c>
 8005820:	2201      	movs	r2, #1
 8005822:	f880 2040 	strb.w	r2, [r0, #64]	; 0x40
 8005826:	2300      	movs	r3, #0
 8005828:	f880 2044 	strb.w	r2, [r0, #68]	; 0x44
 800582c:	e799      	b.n	8005762 <HAL_TIM_IC_Stop_IT+0x1a>
 800582e:	6803      	ldr	r3, [r0, #0]
 8005830:	68da      	ldr	r2, [r3, #12]
 8005832:	f022 0208 	bic.w	r2, r2, #8
 8005836:	60da      	str	r2, [r3, #12]
 8005838:	6a1a      	ldr	r2, [r3, #32]
 800583a:	f422 7280 	bic.w	r2, r2, #256	; 0x100
 800583e:	621a      	str	r2, [r3, #32]
 8005840:	6a1a      	ldr	r2, [r3, #32]
 8005842:	621a      	str	r2, [r3, #32]
 8005844:	6a1c      	ldr	r4, [r3, #32]
 8005846:	f241 1211 	movw	r2, #4369	; 0x1111
 800584a:	4214      	tst	r4, r2
 800584c:	d1e8      	bne.n	8005820 <HAL_TIM_IC_Stop_IT+0xd8>
 800584e:	6a1c      	ldr	r4, [r3, #32]
 8005850:	f240 4244 	movw	r2, #1092	; 0x444
 8005854:	4214      	tst	r4, r2
 8005856:	d0db      	beq.n	8005810 <HAL_TIM_IC_Stop_IT+0xc8>
 8005858:	e7e2      	b.n	8005820 <HAL_TIM_IC_Stop_IT+0xd8>
 800585a:	2201      	movs	r2, #1
 800585c:	f880 203f 	strb.w	r2, [r0, #63]	; 0x3f
 8005860:	2300      	movs	r3, #0
 8005862:	f880 2043 	strb.w	r2, [r0, #67]	; 0x43
 8005866:	f85d 4b04 	ldr.w	r4, [sp], #4
 800586a:	4618      	mov	r0, r3
 800586c:	4770      	bx	lr
 800586e:	681a      	ldr	r2, [r3, #0]
 8005870:	f022 0201 	bic.w	r2, r2, #1
 8005874:	601a      	str	r2, [r3, #0]
 8005876:	e7ac      	b.n	80057d2 <HAL_TIM_IC_Stop_IT+0x8a>

08005878 <HAL_TIM_IC_Start_DMA>:
 8005878:	b5f8      	push	{r3, r4, r5, r6, r7, lr}
 800587a:	4604      	mov	r4, r0
 800587c:	2900      	cmp	r1, #0
 800587e:	d13d      	bne.n	80058fc <HAL_TIM_IC_Start_DMA+0x84>
 8005880:	f890 003e 	ldrb.w	r0, [r0, #62]	; 0x3e
 8005884:	f894 5042 	ldrb.w	r5, [r4, #66]	; 0x42
 8005888:	b2c0      	uxtb	r0, r0
 800588a:	b2ed      	uxtb	r5, r5
 800588c:	2802      	cmp	r0, #2
 800588e:	d034      	beq.n	80058fa <HAL_TIM_IC_Start_DMA+0x82>
 8005890:	2d02      	cmp	r5, #2
 8005892:	d049      	beq.n	8005928 <HAL_TIM_IC_Start_DMA+0xb0>
 8005894:	2801      	cmp	r0, #1
 8005896:	d12f      	bne.n	80058f8 <HAL_TIM_IC_Start_DMA+0x80>
 8005898:	2d01      	cmp	r5, #1
 800589a:	d12d      	bne.n	80058f8 <HAL_TIM_IC_Start_DMA+0x80>
 800589c:	b352      	cbz	r2, 80058f4 <HAL_TIM_IC_Start_DMA+0x7c>
 800589e:	2900      	cmp	r1, #0
 80058a0:	d144      	bne.n	800592c <HAL_TIM_IC_Start_DMA+0xb4>
 80058a2:	6825      	ldr	r5, [r4, #0]
 80058a4:	2102      	movs	r1, #2
 80058a6:	f884 103e 	strb.w	r1, [r4, #62]	; 0x3e
 80058aa:	f884 1042 	strb.w	r1, [r4, #66]	; 0x42
 80058ae:	6a29      	ldr	r1, [r5, #32]
 80058b0:	f021 0101 	bic.w	r1, r1, #1
 80058b4:	6229      	str	r1, [r5, #32]
 80058b6:	6a29      	ldr	r1, [r5, #32]
 80058b8:	f041 0101 	orr.w	r1, r1, #1
 80058bc:	6229      	str	r1, [r5, #32]
 80058be:	6a60      	ldr	r0, [r4, #36]	; 0x24
 80058c0:	f647 27dd 	movw	r7, #31453	; 0x7add
 80058c4:	f647 3675 	movw	r6, #31605	; 0x7b75
 80058c8:	f105 0134 	add.w	r1, r5, #52	; 0x34
 80058cc:	f647 653d 	movw	r5, #32317	; 0x7e3d
 80058d0:	f6c0 0700 	movt	r7, #2048	; 0x800
 80058d4:	f6c0 0600 	movt	r6, #2048	; 0x800
 80058d8:	f6c0 0500 	movt	r5, #2048	; 0x800
 80058dc:	63c7      	str	r7, [r0, #60]	; 0x3c
 80058de:	6406      	str	r6, [r0, #64]	; 0x40
 80058e0:	64c5      	str	r5, [r0, #76]	; 0x4c
 80058e2:	f7fb ffbf 	bl	8001864 <HAL_DMA_Start_IT>
 80058e6:	b938      	cbnz	r0, 80058f8 <HAL_TIM_IC_Start_DMA+0x80>
 80058e8:	6825      	ldr	r5, [r4, #0]
 80058ea:	68eb      	ldr	r3, [r5, #12]
 80058ec:	f443 7300 	orr.w	r3, r3, #512	; 0x200
 80058f0:	60eb      	str	r3, [r5, #12]
 80058f2:	e052      	b.n	800599a <HAL_TIM_IC_Start_DMA+0x122>
 80058f4:	2b00      	cmp	r3, #0
 80058f6:	d0d2      	beq.n	800589e <HAL_TIM_IC_Start_DMA+0x26>
 80058f8:	2001      	movs	r0, #1
 80058fa:	bdf8      	pop	{r3, r4, r5, r6, r7, pc}
 80058fc:	2904      	cmp	r1, #4
 80058fe:	d00c      	beq.n	800591a <HAL_TIM_IC_Start_DMA+0xa2>
 8005900:	2908      	cmp	r1, #8
 8005902:	bf0b      	itete	eq
 8005904:	f890 0040 	ldrbeq.w	r0, [r0, #64]	; 0x40
 8005908:	f894 0041 	ldrbne.w	r0, [r4, #65]	; 0x41
 800590c:	f894 5044 	ldrbeq.w	r5, [r4, #68]	; 0x44
 8005910:	f894 5045 	ldrbne.w	r5, [r4, #69]	; 0x45
 8005914:	b2c0      	uxtb	r0, r0
 8005916:	b2ed      	uxtb	r5, r5
 8005918:	e7b8      	b.n	800588c <HAL_TIM_IC_Start_DMA+0x14>
 800591a:	f890 003f 	ldrb.w	r0, [r0, #63]	; 0x3f
 800591e:	f894 5043 	ldrb.w	r5, [r4, #67]	; 0x43
 8005922:	b2c0      	uxtb	r0, r0
 8005924:	b2ed      	uxtb	r5, r5
 8005926:	e7b1      	b.n	800588c <HAL_TIM_IC_Start_DMA+0x14>
 8005928:	4628      	mov	r0, r5
 800592a:	bdf8      	pop	{r3, r4, r5, r6, r7, pc}
 800592c:	2904      	cmp	r1, #4
 800592e:	f000 8094 	beq.w	8005a5a <HAL_TIM_IC_Start_DMA+0x1e2>
 8005932:	2908      	cmp	r1, #8
 8005934:	f04f 0002 	mov.w	r0, #2
 8005938:	d066      	beq.n	8005a08 <HAL_TIM_IC_Start_DMA+0x190>
 800593a:	6825      	ldr	r5, [r4, #0]
 800593c:	f884 0041 	strb.w	r0, [r4, #65]	; 0x41
 8005940:	f884 0045 	strb.w	r0, [r4, #69]	; 0x45
 8005944:	6a2e      	ldr	r6, [r5, #32]
 8005946:	f001 071f 	and.w	r7, r1, #31
 800594a:	2001      	movs	r0, #1
 800594c:	40b8      	lsls	r0, r7
 800594e:	ea26 0600 	bic.w	r6, r6, r0
 8005952:	622e      	str	r6, [r5, #32]
 8005954:	6a2e      	ldr	r6, [r5, #32]
 8005956:	4330      	orrs	r0, r6
 8005958:	6228      	str	r0, [r5, #32]
 800595a:	290c      	cmp	r1, #12
 800595c:	d81c      	bhi.n	8005998 <HAL_TIM_IC_Start_DMA+0x120>
 800595e:	a001      	add	r0, pc, #4	; (adr r0, 8005964 <HAL_TIM_IC_Start_DMA+0xec>)
 8005960:	f850 f021 	ldr.w	pc, [r0, r1, lsl #2]
 8005964:	080058bf 	.word	0x080058bf
 8005968:	08005999 	.word	0x08005999
 800596c:	08005999 	.word	0x08005999
 8005970:	08005999 	.word	0x08005999
 8005974:	08005a77 	.word	0x08005a77
 8005978:	08005999 	.word	0x08005999
 800597c:	08005999 	.word	0x08005999
 8005980:	08005999 	.word	0x08005999
 8005984:	08005999 	.word	0x08005999
 8005988:	08005999 	.word	0x08005999
 800598c:	08005999 	.word	0x08005999
 8005990:	08005999 	.word	0x08005999
 8005994:	08005ab1 	.word	0x08005ab1
 8005998:	2001      	movs	r0, #1
 800599a:	2300      	movs	r3, #0
 800599c:	f2c4 0301 	movt	r3, #16385	; 0x4001
 80059a0:	429d      	cmp	r5, r3
 80059a2:	d026      	beq.n	80059f2 <HAL_TIM_IC_Start_DMA+0x17a>
 80059a4:	f1b5 4f80 	cmp.w	r5, #1073741824	; 0x40000000
 80059a8:	d023      	beq.n	80059f2 <HAL_TIM_IC_Start_DMA+0x17a>
 80059aa:	f44f 6380 	mov.w	r3, #1024	; 0x400
 80059ae:	f2c4 0300 	movt	r3, #16384	; 0x4000
 80059b2:	429d      	cmp	r5, r3
 80059b4:	d01d      	beq.n	80059f2 <HAL_TIM_IC_Start_DMA+0x17a>
 80059b6:	f44f 6300 	mov.w	r3, #2048	; 0x800
 80059ba:	f2c4 0300 	movt	r3, #16384	; 0x4000
 80059be:	429d      	cmp	r5, r3
 80059c0:	d017      	beq.n	80059f2 <HAL_TIM_IC_Start_DMA+0x17a>
 80059c2:	f44f 6340 	mov.w	r3, #3072	; 0xc00
 80059c6:	f2c4 0300 	movt	r3, #16384	; 0x4000
 80059ca:	429d      	cmp	r5, r3
 80059cc:	d011      	beq.n	80059f2 <HAL_TIM_IC_Start_DMA+0x17a>
 80059ce:	f44f 6380 	mov.w	r3, #1024	; 0x400
 80059d2:	f2c4 0301 	movt	r3, #16385	; 0x4001
 80059d6:	429d      	cmp	r5, r3
 80059d8:	d00b      	beq.n	80059f2 <HAL_TIM_IC_Start_DMA+0x17a>
 80059da:	f44f 4380 	mov.w	r3, #16384	; 0x4000
 80059de:	f2c4 0301 	movt	r3, #16385	; 0x4001
 80059e2:	429d      	cmp	r5, r3
 80059e4:	d005      	beq.n	80059f2 <HAL_TIM_IC_Start_DMA+0x17a>
 80059e6:	f44f 53c0 	mov.w	r3, #6144	; 0x1800
 80059ea:	f2c4 0300 	movt	r3, #16384	; 0x4000
 80059ee:	429d      	cmp	r5, r3
 80059f0:	d105      	bne.n	80059fe <HAL_TIM_IC_Start_DMA+0x186>
 80059f2:	68ab      	ldr	r3, [r5, #8]
 80059f4:	f003 0307 	and.w	r3, r3, #7
 80059f8:	2b06      	cmp	r3, #6
 80059fa:	f43f af7e 	beq.w	80058fa <HAL_TIM_IC_Start_DMA+0x82>
 80059fe:	682b      	ldr	r3, [r5, #0]
 8005a00:	f043 0301 	orr.w	r3, r3, #1
 8005a04:	602b      	str	r3, [r5, #0]
 8005a06:	bdf8      	pop	{r3, r4, r5, r6, r7, pc}
 8005a08:	6821      	ldr	r1, [r4, #0]
 8005a0a:	f884 0040 	strb.w	r0, [r4, #64]	; 0x40
 8005a0e:	f884 0044 	strb.w	r0, [r4, #68]	; 0x44
 8005a12:	6a0d      	ldr	r5, [r1, #32]
 8005a14:	6ae0      	ldr	r0, [r4, #44]	; 0x2c
 8005a16:	f425 7580 	bic.w	r5, r5, #256	; 0x100
 8005a1a:	620d      	str	r5, [r1, #32]
 8005a1c:	6a0e      	ldr	r6, [r1, #32]
 8005a1e:	f647 25dd 	movw	r5, #31453	; 0x7add
 8005a22:	f446 7680 	orr.w	r6, r6, #256	; 0x100
 8005a26:	f6c0 0500 	movt	r5, #2048	; 0x800
 8005a2a:	620e      	str	r6, [r1, #32]
 8005a2c:	f647 3675 	movw	r6, #31605	; 0x7b75
 8005a30:	63c5      	str	r5, [r0, #60]	; 0x3c
 8005a32:	f647 653d 	movw	r5, #32317	; 0x7e3d
 8005a36:	f6c0 0600 	movt	r6, #2048	; 0x800
 8005a3a:	f6c0 0500 	movt	r5, #2048	; 0x800
 8005a3e:	313c      	adds	r1, #60	; 0x3c
 8005a40:	6406      	str	r6, [r0, #64]	; 0x40
 8005a42:	64c5      	str	r5, [r0, #76]	; 0x4c
 8005a44:	f7fb ff0e 	bl	8001864 <HAL_DMA_Start_IT>
 8005a48:	2800      	cmp	r0, #0
 8005a4a:	f47f af55 	bne.w	80058f8 <HAL_TIM_IC_Start_DMA+0x80>
 8005a4e:	6825      	ldr	r5, [r4, #0]
 8005a50:	68eb      	ldr	r3, [r5, #12]
 8005a52:	f443 6300 	orr.w	r3, r3, #2048	; 0x800
 8005a56:	60eb      	str	r3, [r5, #12]
 8005a58:	e79f      	b.n	800599a <HAL_TIM_IC_Start_DMA+0x122>
 8005a5a:	6825      	ldr	r5, [r4, #0]
 8005a5c:	2102      	movs	r1, #2
 8005a5e:	f884 103f 	strb.w	r1, [r4, #63]	; 0x3f
 8005a62:	f884 1043 	strb.w	r1, [r4, #67]	; 0x43
 8005a66:	6a29      	ldr	r1, [r5, #32]
 8005a68:	f021 0110 	bic.w	r1, r1, #16
 8005a6c:	6229      	str	r1, [r5, #32]
 8005a6e:	6a29      	ldr	r1, [r5, #32]
 8005a70:	f041 0110 	orr.w	r1, r1, #16
 8005a74:	6229      	str	r1, [r5, #32]
 8005a76:	6aa0      	ldr	r0, [r4, #40]	; 0x28
 8005a78:	f647 27dd 	movw	r7, #31453	; 0x7add
 8005a7c:	f647 3675 	movw	r6, #31605	; 0x7b75
 8005a80:	f105 0138 	add.w	r1, r5, #56	; 0x38
 8005a84:	f647 653d 	movw	r5, #32317	; 0x7e3d
 8005a88:	f6c0 0700 	movt	r7, #2048	; 0x800
 8005a8c:	f6c0 0600 	movt	r6, #2048	; 0x800
 8005a90:	f6c0 0500 	movt	r5, #2048	; 0x800
 8005a94:	63c7      	str	r7, [r0, #60]	; 0x3c
 8005a96:	6406      	str	r6, [r0, #64]	; 0x40
 8005a98:	64c5      	str	r5, [r0, #76]	; 0x4c
 8005a9a:	f7fb fee3 	bl	8001864 <HAL_DMA_Start_IT>
 8005a9e:	2800      	cmp	r0, #0
 8005aa0:	f47f af2a 	bne.w	80058f8 <HAL_TIM_IC_Start_DMA+0x80>
 8005aa4:	6825      	ldr	r5, [r4, #0]
 8005aa6:	68eb      	ldr	r3, [r5, #12]
 8005aa8:	f443 6380 	orr.w	r3, r3, #1024	; 0x400
 8005aac:	60eb      	str	r3, [r5, #12]
 8005aae:	e774      	b.n	800599a <HAL_TIM_IC_Start_DMA+0x122>
 8005ab0:	6b20      	ldr	r0, [r4, #48]	; 0x30
 8005ab2:	f647 27dd 	movw	r7, #31453	; 0x7add
 8005ab6:	f647 3675 	movw	r6, #31605	; 0x7b75
 8005aba:	f105 0140 	add.w	r1, r5, #64	; 0x40
 8005abe:	f647 653d 	movw	r5, #32317	; 0x7e3d
 8005ac2:	f6c0 0700 	movt	r7, #2048	; 0x800
 8005ac6:	f6c0 0600 	movt	r6, #2048	; 0x800
 8005aca:	f6c0 0500 	movt	r5, #2048	; 0x800
 8005ace:	63c7      	str	r7, [r0, #60]	; 0x3c
 8005ad0:	6406      	str	r6, [r0, #64]	; 0x40
 8005ad2:	64c5      	str	r5, [r0, #76]	; 0x4c
 8005ad4:	f7fb fec6 	bl	8001864 <HAL_DMA_Start_IT>
 8005ad8:	2800      	cmp	r0, #0
 8005ada:	f47f af0d 	bne.w	80058f8 <HAL_TIM_IC_Start_DMA+0x80>
 8005ade:	6825      	ldr	r5, [r4, #0]
 8005ae0:	68eb      	ldr	r3, [r5, #12]
 8005ae2:	f443 5380 	orr.w	r3, r3, #4096	; 0x1000
 8005ae6:	60eb      	str	r3, [r5, #12]
 8005ae8:	e757      	b.n	800599a <HAL_TIM_IC_Start_DMA+0x122>
 8005aea:	bf00      	nop

08005aec <HAL_TIM_IC_Stop_DMA>:
 8005aec:	b538      	push	{r3, r4, r5, lr}
 8005aee:	6803      	ldr	r3, [r0, #0]
 8005af0:	4604      	mov	r4, r0
 8005af2:	6a1a      	ldr	r2, [r3, #32]
 8005af4:	f001 001f 	and.w	r0, r1, #31
 8005af8:	460d      	mov	r5, r1
 8005afa:	2101      	movs	r1, #1
 8005afc:	4081      	lsls	r1, r0
 8005afe:	ea22 0201 	bic.w	r2, r2, r1
 8005b02:	621a      	str	r2, [r3, #32]
 8005b04:	6a1a      	ldr	r2, [r3, #32]
 8005b06:	621a      	str	r2, [r3, #32]
 8005b08:	2d0c      	cmp	r5, #12
 8005b0a:	d808      	bhi.n	8005b1e <HAL_TIM_IC_Stop_DMA+0x32>
 8005b0c:	e8df f005 	tbb	[pc, r5]
 8005b10:	07070722 	.word	0x07070722
 8005b14:	0707073b 	.word	0x0707073b
 8005b18:	0707075c 	.word	0x0707075c
 8005b1c:	09          	.byte	0x09
 8005b1d:	00          	.byte	0x00
 8005b1e:	2001      	movs	r0, #1
 8005b20:	bd38      	pop	{r3, r4, r5, pc}
 8005b22:	68da      	ldr	r2, [r3, #12]
 8005b24:	6b20      	ldr	r0, [r4, #48]	; 0x30
 8005b26:	f422 5280 	bic.w	r2, r2, #4096	; 0x1000
 8005b2a:	60da      	str	r2, [r3, #12]
 8005b2c:	f7fb ff20 	bl	8001970 <HAL_DMA_Abort_IT>
 8005b30:	6823      	ldr	r3, [r4, #0]
 8005b32:	6a19      	ldr	r1, [r3, #32]
 8005b34:	f241 1211 	movw	r2, #4369	; 0x1111
 8005b38:	4211      	tst	r1, r2
 8005b3a:	d104      	bne.n	8005b46 <HAL_TIM_IC_Stop_DMA+0x5a>
 8005b3c:	6a19      	ldr	r1, [r3, #32]
 8005b3e:	f240 4244 	movw	r2, #1092	; 0x444
 8005b42:	4211      	tst	r1, r2
 8005b44:	d031      	beq.n	8005baa <HAL_TIM_IC_Stop_DMA+0xbe>
 8005b46:	2301      	movs	r3, #1
 8005b48:	f884 3041 	strb.w	r3, [r4, #65]	; 0x41
 8005b4c:	f884 3045 	strb.w	r3, [r4, #69]	; 0x45
 8005b50:	2000      	movs	r0, #0
 8005b52:	bd38      	pop	{r3, r4, r5, pc}
 8005b54:	68da      	ldr	r2, [r3, #12]
 8005b56:	6a60      	ldr	r0, [r4, #36]	; 0x24
 8005b58:	f422 7200 	bic.w	r2, r2, #512	; 0x200
 8005b5c:	60da      	str	r2, [r3, #12]
 8005b5e:	f7fb ff07 	bl	8001970 <HAL_DMA_Abort_IT>
 8005b62:	6823      	ldr	r3, [r4, #0]
 8005b64:	6a19      	ldr	r1, [r3, #32]
 8005b66:	f241 1211 	movw	r2, #4369	; 0x1111
 8005b6a:	4211      	tst	r1, r2
 8005b6c:	d104      	bne.n	8005b78 <HAL_TIM_IC_Stop_DMA+0x8c>
 8005b6e:	6a19      	ldr	r1, [r3, #32]
 8005b70:	f240 4244 	movw	r2, #1092	; 0x444
 8005b74:	4211      	tst	r1, r2
 8005b76:	d041      	beq.n	8005bfc <HAL_TIM_IC_Stop_DMA+0x110>
 8005b78:	2301      	movs	r3, #1
 8005b7a:	f884 303e 	strb.w	r3, [r4, #62]	; 0x3e
 8005b7e:	f884 3042 	strb.w	r3, [r4, #66]	; 0x42
 8005b82:	2000      	movs	r0, #0
 8005b84:	bd38      	pop	{r3, r4, r5, pc}
 8005b86:	68da      	ldr	r2, [r3, #12]
 8005b88:	6aa0      	ldr	r0, [r4, #40]	; 0x28
 8005b8a:	f422 6280 	bic.w	r2, r2, #1024	; 0x400
 8005b8e:	60da      	str	r2, [r3, #12]
 8005b90:	f7fb feee 	bl	8001970 <HAL_DMA_Abort_IT>
 8005b94:	6823      	ldr	r3, [r4, #0]
 8005b96:	6a19      	ldr	r1, [r3, #32]
 8005b98:	f241 1211 	movw	r2, #4369	; 0x1111
 8005b9c:	4211      	tst	r1, r2
 8005b9e:	d126      	bne.n	8005bee <HAL_TIM_IC_Stop_DMA+0x102>
 8005ba0:	6a19      	ldr	r1, [r3, #32]
 8005ba2:	f240 4244 	movw	r2, #1092	; 0x444
 8005ba6:	4211      	tst	r1, r2
 8005ba8:	d121      	bne.n	8005bee <HAL_TIM_IC_Stop_DMA+0x102>
 8005baa:	681a      	ldr	r2, [r3, #0]
 8005bac:	2d04      	cmp	r5, #4
 8005bae:	f022 0201 	bic.w	r2, r2, #1
 8005bb2:	601a      	str	r2, [r3, #0]
 8005bb4:	d01b      	beq.n	8005bee <HAL_TIM_IC_Stop_DMA+0x102>
 8005bb6:	2d08      	cmp	r5, #8
 8005bb8:	d1c5      	bne.n	8005b46 <HAL_TIM_IC_Stop_DMA+0x5a>
 8005bba:	2301      	movs	r3, #1
 8005bbc:	f884 3040 	strb.w	r3, [r4, #64]	; 0x40
 8005bc0:	f884 3044 	strb.w	r3, [r4, #68]	; 0x44
 8005bc4:	2000      	movs	r0, #0
 8005bc6:	bd38      	pop	{r3, r4, r5, pc}
 8005bc8:	68da      	ldr	r2, [r3, #12]
 8005bca:	6ae0      	ldr	r0, [r4, #44]	; 0x2c
 8005bcc:	f422 6200 	bic.w	r2, r2, #2048	; 0x800
 8005bd0:	60da      	str	r2, [r3, #12]
 8005bd2:	f7fb fecd 	bl	8001970 <HAL_DMA_Abort_IT>
 8005bd6:	6823      	ldr	r3, [r4, #0]
 8005bd8:	6a19      	ldr	r1, [r3, #32]
 8005bda:	f241 1211 	movw	r2, #4369	; 0x1111
 8005bde:	4211      	tst	r1, r2
 8005be0:	d1eb      	bne.n	8005bba <HAL_TIM_IC_Stop_DMA+0xce>
 8005be2:	6a19      	ldr	r1, [r3, #32]
 8005be4:	f240 4244 	movw	r2, #1092	; 0x444
 8005be8:	4211      	tst	r1, r2
 8005bea:	d0de      	beq.n	8005baa <HAL_TIM_IC_Stop_DMA+0xbe>
 8005bec:	e7e5      	b.n	8005bba <HAL_TIM_IC_Stop_DMA+0xce>
 8005bee:	2301      	movs	r3, #1
 8005bf0:	f884 303f 	strb.w	r3, [r4, #63]	; 0x3f
 8005bf4:	f884 3043 	strb.w	r3, [r4, #67]	; 0x43
 8005bf8:	2000      	movs	r0, #0
 8005bfa:	bd38      	pop	{r3, r4, r5, pc}
 8005bfc:	681a      	ldr	r2, [r3, #0]
 8005bfe:	f022 0201 	bic.w	r2, r2, #1
 8005c02:	601a      	str	r2, [r3, #0]
 8005c04:	e7b8      	b.n	8005b78 <HAL_TIM_IC_Stop_DMA+0x8c>
 8005c06:	bf00      	nop

08005c08 <HAL_TIM_OnePulse_MspInit>:
 8005c08:	4770      	bx	lr
 8005c0a:	bf00      	nop

08005c0c <HAL_TIM_OnePulse_Init>:
 8005c0c:	2800      	cmp	r0, #0
 8005c0e:	f000 809e 	beq.w	8005d4e <HAL_TIM_OnePulse_Init+0x142>
 8005c12:	b538      	push	{r3, r4, r5, lr}
 8005c14:	f890 303d 	ldrb.w	r3, [r0, #61]	; 0x3d
 8005c18:	460d      	mov	r5, r1
 8005c1a:	4604      	mov	r4, r0
 8005c1c:	f003 02ff 	and.w	r2, r3, #255	; 0xff
 8005c20:	2b00      	cmp	r3, #0
 8005c22:	f000 808f 	beq.w	8005d44 <HAL_TIM_OnePulse_Init+0x138>
 8005c26:	6823      	ldr	r3, [r4, #0]
 8005c28:	2100      	movs	r1, #0
 8005c2a:	2202      	movs	r2, #2
 8005c2c:	f2c4 0101 	movt	r1, #16385	; 0x4001
 8005c30:	f884 203d 	strb.w	r2, [r4, #61]	; 0x3d
 8005c34:	428b      	cmp	r3, r1
 8005c36:	681a      	ldr	r2, [r3, #0]
 8005c38:	d070      	beq.n	8005d1c <HAL_TIM_OnePulse_Init+0x110>
 8005c3a:	f1b3 4f80 	cmp.w	r3, #1073741824	; 0x40000000
 8005c3e:	d045      	beq.n	8005ccc <HAL_TIM_OnePulse_Init+0xc0>
 8005c40:	f44f 6180 	mov.w	r1, #1024	; 0x400
 8005c44:	f2c4 0100 	movt	r1, #16384	; 0x4000
 8005c48:	428b      	cmp	r3, r1
 8005c4a:	d03f      	beq.n	8005ccc <HAL_TIM_OnePulse_Init+0xc0>
 8005c4c:	f44f 6100 	mov.w	r1, #2048	; 0x800
 8005c50:	f2c4 0100 	movt	r1, #16384	; 0x4000
 8005c54:	428b      	cmp	r3, r1
 8005c56:	d039      	beq.n	8005ccc <HAL_TIM_OnePulse_Init+0xc0>
 8005c58:	f44f 6140 	mov.w	r1, #3072	; 0xc00
 8005c5c:	f2c4 0100 	movt	r1, #16384	; 0x4000
 8005c60:	428b      	cmp	r3, r1
 8005c62:	d033      	beq.n	8005ccc <HAL_TIM_OnePulse_Init+0xc0>
 8005c64:	f44f 6180 	mov.w	r1, #1024	; 0x400
 8005c68:	f2c4 0101 	movt	r1, #16385	; 0x4001
 8005c6c:	428b      	cmp	r3, r1
 8005c6e:	d055      	beq.n	8005d1c <HAL_TIM_OnePulse_Init+0x110>
 8005c70:	f44f 4180 	mov.w	r1, #16384	; 0x4000
 8005c74:	f2c4 0101 	movt	r1, #16385	; 0x4001
 8005c78:	428b      	cmp	r3, r1
 8005c7a:	d02b      	beq.n	8005cd4 <HAL_TIM_OnePulse_Init+0xc8>
 8005c7c:	f44f 4188 	mov.w	r1, #17408	; 0x4400
 8005c80:	f2c4 0101 	movt	r1, #16385	; 0x4001
 8005c84:	428b      	cmp	r3, r1
 8005c86:	d025      	beq.n	8005cd4 <HAL_TIM_OnePulse_Init+0xc8>
 8005c88:	f44f 4190 	mov.w	r1, #18432	; 0x4800
 8005c8c:	f2c4 0101 	movt	r1, #16385	; 0x4001
 8005c90:	428b      	cmp	r3, r1
 8005c92:	d01f      	beq.n	8005cd4 <HAL_TIM_OnePulse_Init+0xc8>
 8005c94:	f44f 51c0 	mov.w	r1, #6144	; 0x1800
 8005c98:	f2c4 0100 	movt	r1, #16384	; 0x4000
 8005c9c:	428b      	cmp	r3, r1
 8005c9e:	d019      	beq.n	8005cd4 <HAL_TIM_OnePulse_Init+0xc8>
 8005ca0:	f44f 51e0 	mov.w	r1, #7168	; 0x1c00
 8005ca4:	f2c4 0100 	movt	r1, #16384	; 0x4000
 8005ca8:	428b      	cmp	r3, r1
 8005caa:	d013      	beq.n	8005cd4 <HAL_TIM_OnePulse_Init+0xc8>
 8005cac:	f44f 5100 	mov.w	r1, #8192	; 0x2000
 8005cb0:	f2c4 0100 	movt	r1, #16384	; 0x4000
 8005cb4:	428b      	cmp	r3, r1
 8005cb6:	d00d      	beq.n	8005cd4 <HAL_TIM_OnePulse_Init+0xc8>
 8005cb8:	69a1      	ldr	r1, [r4, #24]
 8005cba:	68e0      	ldr	r0, [r4, #12]
 8005cbc:	f022 0280 	bic.w	r2, r2, #128	; 0x80
 8005cc0:	430a      	orrs	r2, r1
 8005cc2:	6861      	ldr	r1, [r4, #4]
 8005cc4:	601a      	str	r2, [r3, #0]
 8005cc6:	62d8      	str	r0, [r3, #44]	; 0x2c
 8005cc8:	6299      	str	r1, [r3, #40]	; 0x28
 8005cca:	e010      	b.n	8005cee <HAL_TIM_OnePulse_Init+0xe2>
 8005ccc:	68a1      	ldr	r1, [r4, #8]
 8005cce:	f022 0270 	bic.w	r2, r2, #112	; 0x70
 8005cd2:	430a      	orrs	r2, r1
 8005cd4:	6920      	ldr	r0, [r4, #16]
 8005cd6:	69a1      	ldr	r1, [r4, #24]
 8005cd8:	f422 7240 	bic.w	r2, r2, #768	; 0x300
 8005cdc:	4302      	orrs	r2, r0
 8005cde:	f022 0280 	bic.w	r2, r2, #128	; 0x80
 8005ce2:	68e0      	ldr	r0, [r4, #12]
 8005ce4:	430a      	orrs	r2, r1
 8005ce6:	6861      	ldr	r1, [r4, #4]
 8005ce8:	601a      	str	r2, [r3, #0]
 8005cea:	62d8      	str	r0, [r3, #44]	; 0x2c
 8005cec:	6299      	str	r1, [r3, #40]	; 0x28
 8005cee:	2201      	movs	r2, #1
 8005cf0:	615a      	str	r2, [r3, #20]
 8005cf2:	6818      	ldr	r0, [r3, #0]
 8005cf4:	f020 0008 	bic.w	r0, r0, #8
 8005cf8:	6018      	str	r0, [r3, #0]
 8005cfa:	6818      	ldr	r0, [r3, #0]
 8005cfc:	4328      	orrs	r0, r5
 8005cfe:	6018      	str	r0, [r3, #0]
 8005d00:	f884 2046 	strb.w	r2, [r4, #70]	; 0x46
 8005d04:	f884 203e 	strb.w	r2, [r4, #62]	; 0x3e
 8005d08:	f884 203f 	strb.w	r2, [r4, #63]	; 0x3f
 8005d0c:	f884 2042 	strb.w	r2, [r4, #66]	; 0x42
 8005d10:	f884 2043 	strb.w	r2, [r4, #67]	; 0x43
 8005d14:	f884 203d 	strb.w	r2, [r4, #61]	; 0x3d
 8005d18:	2000      	movs	r0, #0
 8005d1a:	bd38      	pop	{r3, r4, r5, pc}
 8005d1c:	68a0      	ldr	r0, [r4, #8]
 8005d1e:	6921      	ldr	r1, [r4, #16]
 8005d20:	f022 0270 	bic.w	r2, r2, #112	; 0x70
 8005d24:	4302      	orrs	r2, r0
 8005d26:	f422 7240 	bic.w	r2, r2, #768	; 0x300
 8005d2a:	430a      	orrs	r2, r1
 8005d2c:	69a1      	ldr	r1, [r4, #24]
 8005d2e:	f022 0280 	bic.w	r2, r2, #128	; 0x80
 8005d32:	430a      	orrs	r2, r1
 8005d34:	601a      	str	r2, [r3, #0]
 8005d36:	68e2      	ldr	r2, [r4, #12]
 8005d38:	62da      	str	r2, [r3, #44]	; 0x2c
 8005d3a:	6862      	ldr	r2, [r4, #4]
 8005d3c:	629a      	str	r2, [r3, #40]	; 0x28
 8005d3e:	6962      	ldr	r2, [r4, #20]
 8005d40:	631a      	str	r2, [r3, #48]	; 0x30
 8005d42:	e7d4      	b.n	8005cee <HAL_TIM_OnePulse_Init+0xe2>
 8005d44:	f880 203c 	strb.w	r2, [r0, #60]	; 0x3c
 8005d48:	f7ff ff5e 	bl	8005c08 <HAL_TIM_OnePulse_MspInit>
 8005d4c:	e76b      	b.n	8005c26 <HAL_TIM_OnePulse_Init+0x1a>
 8005d4e:	2001      	movs	r0, #1
 8005d50:	4770      	bx	lr
 8005d52:	bf00      	nop

08005d54 <HAL_TIM_OnePulse_MspDeInit>:
 8005d54:	4770      	bx	lr
 8005d56:	bf00      	nop

08005d58 <HAL_TIM_OnePulse_DeInit>:
 8005d58:	2202      	movs	r2, #2
 8005d5a:	6803      	ldr	r3, [r0, #0]
 8005d5c:	b510      	push	{r4, lr}
 8005d5e:	f880 203d 	strb.w	r2, [r0, #61]	; 0x3d
 8005d62:	6a19      	ldr	r1, [r3, #32]
 8005d64:	f241 1211 	movw	r2, #4369	; 0x1111
 8005d68:	4211      	tst	r1, r2
 8005d6a:	4604      	mov	r4, r0
 8005d6c:	d108      	bne.n	8005d80 <HAL_TIM_OnePulse_DeInit+0x28>
 8005d6e:	6a19      	ldr	r1, [r3, #32]
 8005d70:	f240 4244 	movw	r2, #1092	; 0x444
 8005d74:	4211      	tst	r1, r2
 8005d76:	d103      	bne.n	8005d80 <HAL_TIM_OnePulse_DeInit+0x28>
 8005d78:	681a      	ldr	r2, [r3, #0]
 8005d7a:	f022 0201 	bic.w	r2, r2, #1
 8005d7e:	601a      	str	r2, [r3, #0]
 8005d80:	4620      	mov	r0, r4
 8005d82:	f7ff ffe7 	bl	8005d54 <HAL_TIM_OnePulse_MspDeInit>
 8005d86:	2000      	movs	r0, #0
 8005d88:	f884 0046 	strb.w	r0, [r4, #70]	; 0x46
 8005d8c:	f884 003c 	strb.w	r0, [r4, #60]	; 0x3c
 8005d90:	f884 003e 	strb.w	r0, [r4, #62]	; 0x3e
 8005d94:	f884 003f 	strb.w	r0, [r4, #63]	; 0x3f
 8005d98:	f884 0042 	strb.w	r0, [r4, #66]	; 0x42
 8005d9c:	f884 0043 	strb.w	r0, [r4, #67]	; 0x43
 8005da0:	f884 003d 	strb.w	r0, [r4, #61]	; 0x3d
 8005da4:	bd10      	pop	{r4, pc}
 8005da6:	bf00      	nop

08005da8 <HAL_TIM_OnePulse_Start>:
 8005da8:	b430      	push	{r4, r5}
 8005daa:	f890 403e 	ldrb.w	r4, [r0, #62]	; 0x3e
 8005dae:	f890 303f 	ldrb.w	r3, [r0, #63]	; 0x3f
 8005db2:	f890 2042 	ldrb.w	r2, [r0, #66]	; 0x42
 8005db6:	f890 1043 	ldrb.w	r1, [r0, #67]	; 0x43
 8005dba:	2c01      	cmp	r4, #1
 8005dbc:	d106      	bne.n	8005dcc <HAL_TIM_OnePulse_Start+0x24>
 8005dbe:	b2db      	uxtb	r3, r3
 8005dc0:	2b01      	cmp	r3, #1
 8005dc2:	b2e5      	uxtb	r5, r4
 8005dc4:	d006      	beq.n	8005dd4 <HAL_TIM_OnePulse_Start+0x2c>
 8005dc6:	4628      	mov	r0, r5
 8005dc8:	bc30      	pop	{r4, r5}
 8005dca:	4770      	bx	lr
 8005dcc:	2501      	movs	r5, #1
 8005dce:	4628      	mov	r0, r5
 8005dd0:	bc30      	pop	{r4, r5}
 8005dd2:	4770      	bx	lr
 8005dd4:	b2d2      	uxtb	r2, r2
 8005dd6:	2a01      	cmp	r2, #1
 8005dd8:	d1f5      	bne.n	8005dc6 <HAL_TIM_OnePulse_Start+0x1e>
 8005dda:	b2c9      	uxtb	r1, r1
 8005ddc:	2901      	cmp	r1, #1
 8005dde:	d1f2      	bne.n	8005dc6 <HAL_TIM_OnePulse_Start+0x1e>
 8005de0:	6803      	ldr	r3, [r0, #0]
 8005de2:	2202      	movs	r2, #2
 8005de4:	f880 203e 	strb.w	r2, [r0, #62]	; 0x3e
 8005de8:	f880 203f 	strb.w	r2, [r0, #63]	; 0x3f
 8005dec:	f880 2042 	strb.w	r2, [r0, #66]	; 0x42
 8005df0:	f880 2043 	strb.w	r2, [r0, #67]	; 0x43
 8005df4:	6a1a      	ldr	r2, [r3, #32]
 8005df6:	f022 0201 	bic.w	r2, r2, #1
 8005dfa:	621a      	str	r2, [r3, #32]
 8005dfc:	6a1a      	ldr	r2, [r3, #32]
 8005dfe:	f042 0201 	orr.w	r2, r2, #1
 8005e02:	621a      	str	r2, [r3, #32]
 8005e04:	6a1a      	ldr	r2, [r3, #32]
 8005e06:	f022 0210 	bic.w	r2, r2, #16
 8005e0a:	621a      	str	r2, [r3, #32]
 8005e0c:	6a1a      	ldr	r2, [r3, #32]
 8005e0e:	2100      	movs	r1, #0
 8005e10:	f2c4 0101 	movt	r1, #16385	; 0x4001
 8005e14:	f042 0210 	orr.w	r2, r2, #16
 8005e18:	428b      	cmp	r3, r1
 8005e1a:	621a      	str	r2, [r3, #32]
 8005e1c:	d007      	beq.n	8005e2e <HAL_TIM_OnePulse_Start+0x86>
 8005e1e:	f44f 6280 	mov.w	r2, #1024	; 0x400
 8005e22:	f2c4 0201 	movt	r2, #16385	; 0x4001
 8005e26:	4293      	cmp	r3, r2
 8005e28:	d001      	beq.n	8005e2e <HAL_TIM_OnePulse_Start+0x86>
 8005e2a:	2500      	movs	r5, #0
 8005e2c:	e7cb      	b.n	8005dc6 <HAL_TIM_OnePulse_Start+0x1e>
 8005e2e:	6c5a      	ldr	r2, [r3, #68]	; 0x44
 8005e30:	f442 4200 	orr.w	r2, r2, #32768	; 0x8000
 8005e34:	645a      	str	r2, [r3, #68]	; 0x44
 8005e36:	2500      	movs	r5, #0
 8005e38:	e7c5      	b.n	8005dc6 <HAL_TIM_OnePulse_Start+0x1e>
 8005e3a:	bf00      	nop

08005e3c <HAL_TIM_OnePulse_Stop>:
 8005e3c:	4602      	mov	r2, r0
 8005e3e:	2000      	movs	r0, #0
 8005e40:	6813      	ldr	r3, [r2, #0]
 8005e42:	6a19      	ldr	r1, [r3, #32]
 8005e44:	f021 0101 	bic.w	r1, r1, #1
 8005e48:	6219      	str	r1, [r3, #32]
 8005e4a:	6a19      	ldr	r1, [r3, #32]
 8005e4c:	6219      	str	r1, [r3, #32]
 8005e4e:	6a19      	ldr	r1, [r3, #32]
 8005e50:	f021 0110 	bic.w	r1, r1, #16
 8005e54:	6219      	str	r1, [r3, #32]
 8005e56:	f2c4 0001 	movt	r0, #16385	; 0x4001
 8005e5a:	6a19      	ldr	r1, [r3, #32]
 8005e5c:	6219      	str	r1, [r3, #32]
 8005e5e:	4283      	cmp	r3, r0
 8005e60:	d01e      	beq.n	8005ea0 <HAL_TIM_OnePulse_Stop+0x64>
 8005e62:	f44f 6180 	mov.w	r1, #1024	; 0x400
 8005e66:	f2c4 0101 	movt	r1, #16385	; 0x4001
 8005e6a:	428b      	cmp	r3, r1
 8005e6c:	d018      	beq.n	8005ea0 <HAL_TIM_OnePulse_Stop+0x64>
 8005e6e:	6a18      	ldr	r0, [r3, #32]
 8005e70:	f241 1111 	movw	r1, #4369	; 0x1111
 8005e74:	4208      	tst	r0, r1
 8005e76:	d108      	bne.n	8005e8a <HAL_TIM_OnePulse_Stop+0x4e>
 8005e78:	6a18      	ldr	r0, [r3, #32]
 8005e7a:	f240 4144 	movw	r1, #1092	; 0x444
 8005e7e:	4208      	tst	r0, r1
 8005e80:	d103      	bne.n	8005e8a <HAL_TIM_OnePulse_Stop+0x4e>
 8005e82:	6819      	ldr	r1, [r3, #0]
 8005e84:	f021 0101 	bic.w	r1, r1, #1
 8005e88:	6019      	str	r1, [r3, #0]
 8005e8a:	2301      	movs	r3, #1
 8005e8c:	f882 303e 	strb.w	r3, [r2, #62]	; 0x3e
 8005e90:	2000      	movs	r0, #0
 8005e92:	f882 303f 	strb.w	r3, [r2, #63]	; 0x3f
 8005e96:	f882 3042 	strb.w	r3, [r2, #66]	; 0x42
 8005e9a:	f882 3043 	strb.w	r3, [r2, #67]	; 0x43
 8005e9e:	4770      	bx	lr
 8005ea0:	6a18      	ldr	r0, [r3, #32]
 8005ea2:	f241 1111 	movw	r1, #4369	; 0x1111
 8005ea6:	4208      	tst	r0, r1
 8005ea8:	d1e1      	bne.n	8005e6e <HAL_TIM_OnePulse_Stop+0x32>
 8005eaa:	6a18      	ldr	r0, [r3, #32]
 8005eac:	f240 4144 	movw	r1, #1092	; 0x444
 8005eb0:	4208      	tst	r0, r1
 8005eb2:	d1dc      	bne.n	8005e6e <HAL_TIM_OnePulse_Stop+0x32>
 8005eb4:	6c59      	ldr	r1, [r3, #68]	; 0x44
 8005eb6:	f421 4100 	bic.w	r1, r1, #32768	; 0x8000
 8005eba:	6459      	str	r1, [r3, #68]	; 0x44
 8005ebc:	e7d7      	b.n	8005e6e <HAL_TIM_OnePulse_Stop+0x32>
 8005ebe:	bf00      	nop

08005ec0 <HAL_TIM_OnePulse_Start_IT>:
 8005ec0:	b430      	push	{r4, r5}
 8005ec2:	f890 403e 	ldrb.w	r4, [r0, #62]	; 0x3e
 8005ec6:	f890 303f 	ldrb.w	r3, [r0, #63]	; 0x3f
 8005eca:	f890 2042 	ldrb.w	r2, [r0, #66]	; 0x42
 8005ece:	f890 1043 	ldrb.w	r1, [r0, #67]	; 0x43
 8005ed2:	2c01      	cmp	r4, #1
 8005ed4:	d106      	bne.n	8005ee4 <HAL_TIM_OnePulse_Start_IT+0x24>
 8005ed6:	b2db      	uxtb	r3, r3
 8005ed8:	2b01      	cmp	r3, #1
 8005eda:	b2e5      	uxtb	r5, r4
 8005edc:	d006      	beq.n	8005eec <HAL_TIM_OnePulse_Start_IT+0x2c>
 8005ede:	4628      	mov	r0, r5
 8005ee0:	bc30      	pop	{r4, r5}
 8005ee2:	4770      	bx	lr
 8005ee4:	2501      	movs	r5, #1
 8005ee6:	4628      	mov	r0, r5
 8005ee8:	bc30      	pop	{r4, r5}
 8005eea:	4770      	bx	lr
 8005eec:	b2d2      	uxtb	r2, r2
 8005eee:	2a01      	cmp	r2, #1
 8005ef0:	d1f5      	bne.n	8005ede <HAL_TIM_OnePulse_Start_IT+0x1e>
 8005ef2:	b2c9      	uxtb	r1, r1
 8005ef4:	2901      	cmp	r1, #1
 8005ef6:	d1f2      	bne.n	8005ede <HAL_TIM_OnePulse_Start_IT+0x1e>
 8005ef8:	6803      	ldr	r3, [r0, #0]
 8005efa:	2202      	movs	r2, #2
 8005efc:	f880 203e 	strb.w	r2, [r0, #62]	; 0x3e
 8005f00:	f880 203f 	strb.w	r2, [r0, #63]	; 0x3f
 8005f04:	f880 2042 	strb.w	r2, [r0, #66]	; 0x42
 8005f08:	f880 2043 	strb.w	r2, [r0, #67]	; 0x43
 8005f0c:	68da      	ldr	r2, [r3, #12]
 8005f0e:	f042 0202 	orr.w	r2, r2, #2
 8005f12:	60da      	str	r2, [r3, #12]
 8005f14:	68da      	ldr	r2, [r3, #12]
 8005f16:	f042 0204 	orr.w	r2, r2, #4
 8005f1a:	60da      	str	r2, [r3, #12]
 8005f1c:	6a1a      	ldr	r2, [r3, #32]
 8005f1e:	f022 0201 	bic.w	r2, r2, #1
 8005f22:	621a      	str	r2, [r3, #32]
 8005f24:	6a1a      	ldr	r2, [r3, #32]
 8005f26:	f042 0201 	orr.w	r2, r2, #1
 8005f2a:	621a      	str	r2, [r3, #32]
 8005f2c:	6a1a      	ldr	r2, [r3, #32]
 8005f2e:	f022 0210 	bic.w	r2, r2, #16
 8005f32:	621a      	str	r2, [r3, #32]
 8005f34:	6a1a      	ldr	r2, [r3, #32]
 8005f36:	2100      	movs	r1, #0
 8005f38:	f2c4 0101 	movt	r1, #16385	; 0x4001
 8005f3c:	f042 0210 	orr.w	r2, r2, #16
 8005f40:	428b      	cmp	r3, r1
 8005f42:	621a      	str	r2, [r3, #32]
 8005f44:	d007      	beq.n	8005f56 <HAL_TIM_OnePulse_Start_IT+0x96>
 8005f46:	f44f 6280 	mov.w	r2, #1024	; 0x400
 8005f4a:	f2c4 0201 	movt	r2, #16385	; 0x4001
 8005f4e:	4293      	cmp	r3, r2
 8005f50:	d001      	beq.n	8005f56 <HAL_TIM_OnePulse_Start_IT+0x96>
 8005f52:	2500      	movs	r5, #0
 8005f54:	e7c3      	b.n	8005ede <HAL_TIM_OnePulse_Start_IT+0x1e>
 8005f56:	6c5a      	ldr	r2, [r3, #68]	; 0x44
 8005f58:	f442 4200 	orr.w	r2, r2, #32768	; 0x8000
 8005f5c:	645a      	str	r2, [r3, #68]	; 0x44
 8005f5e:	2500      	movs	r5, #0
 8005f60:	e7bd      	b.n	8005ede <HAL_TIM_OnePulse_Start_IT+0x1e>
 8005f62:	bf00      	nop

08005f64 <HAL_TIM_OnePulse_Stop_IT>:
 8005f64:	4602      	mov	r2, r0
 8005f66:	2000      	movs	r0, #0
 8005f68:	6813      	ldr	r3, [r2, #0]
 8005f6a:	68d9      	ldr	r1, [r3, #12]
 8005f6c:	f021 0102 	bic.w	r1, r1, #2
 8005f70:	60d9      	str	r1, [r3, #12]
 8005f72:	68d9      	ldr	r1, [r3, #12]
 8005f74:	f021 0104 	bic.w	r1, r1, #4
 8005f78:	60d9      	str	r1, [r3, #12]
 8005f7a:	6a19      	ldr	r1, [r3, #32]
 8005f7c:	f021 0101 	bic.w	r1, r1, #1
 8005f80:	6219      	str	r1, [r3, #32]
 8005f82:	6a19      	ldr	r1, [r3, #32]
 8005f84:	6219      	str	r1, [r3, #32]
 8005f86:	6a19      	ldr	r1, [r3, #32]
 8005f88:	f021 0110 	bic.w	r1, r1, #16
 8005f8c:	6219      	str	r1, [r3, #32]
 8005f8e:	f2c4 0001 	movt	r0, #16385	; 0x4001
 8005f92:	6a19      	ldr	r1, [r3, #32]
 8005f94:	6219      	str	r1, [r3, #32]
 8005f96:	4283      	cmp	r3, r0
 8005f98:	d01e      	beq.n	8005fd8 <HAL_TIM_OnePulse_Stop_IT+0x74>
 8005f9a:	f44f 6180 	mov.w	r1, #1024	; 0x400
 8005f9e:	f2c4 0101 	movt	r1, #16385	; 0x4001
 8005fa2:	428b      	cmp	r3, r1
 8005fa4:	d018      	beq.n	8005fd8 <HAL_TIM_OnePulse_Stop_IT+0x74>
 8005fa6:	6a18      	ldr	r0, [r3, #32]
 8005fa8:	f241 1111 	movw	r1, #4369	; 0x1111
 8005fac:	4208      	tst	r0, r1
 8005fae:	d108      	bne.n	8005fc2 <HAL_TIM_OnePulse_Stop_IT+0x5e>
 8005fb0:	6a18      	ldr	r0, [r3, #32]
 8005fb2:	f240 4144 	movw	r1, #1092	; 0x444
 8005fb6:	4208      	tst	r0, r1
 8005fb8:	d103      	bne.n	8005fc2 <HAL_TIM_OnePulse_Stop_IT+0x5e>
 8005fba:	6819      	ldr	r1, [r3, #0]
 8005fbc:	f021 0101 	bic.w	r1, r1, #1
 8005fc0:	6019      	str	r1, [r3, #0]
 8005fc2:	2301      	movs	r3, #1
 8005fc4:	f882 303e 	strb.w	r3, [r2, #62]	; 0x3e
 8005fc8:	2000      	movs	r0, #0
 8005fca:	f882 303f 	strb.w	r3, [r2, #63]	; 0x3f
 8005fce:	f882 3042 	strb.w	r3, [r2, #66]	; 0x42
 8005fd2:	f882 3043 	strb.w	r3, [r2, #67]	; 0x43
 8005fd6:	4770      	bx	lr
 8005fd8:	6a18      	ldr	r0, [r3, #32]
 8005fda:	f241 1111 	movw	r1, #4369	; 0x1111
 8005fde:	4208      	tst	r0, r1
 8005fe0:	d1e1      	bne.n	8005fa6 <HAL_TIM_OnePulse_Stop_IT+0x42>
 8005fe2:	6a18      	ldr	r0, [r3, #32]
 8005fe4:	f240 4144 	movw	r1, #1092	; 0x444
 8005fe8:	4208      	tst	r0, r1
 8005fea:	d1dc      	bne.n	8005fa6 <HAL_TIM_OnePulse_Stop_IT+0x42>
 8005fec:	6c59      	ldr	r1, [r3, #68]	; 0x44
 8005fee:	f421 4100 	bic.w	r1, r1, #32768	; 0x8000
 8005ff2:	6459      	str	r1, [r3, #68]	; 0x44
 8005ff4:	e7d7      	b.n	8005fa6 <HAL_TIM_OnePulse_Stop_IT+0x42>
 8005ff6:	bf00      	nop

08005ff8 <HAL_TIM_Encoder_MspInit>:
 8005ff8:	4770      	bx	lr
 8005ffa:	bf00      	nop

08005ffc <HAL_TIM_Encoder_Init>:
 8005ffc:	2800      	cmp	r0, #0
 8005ffe:	f000 80cc 	beq.w	800619a <HAL_TIM_Encoder_Init+0x19e>
 8006002:	e92d 41f0 	stmdb	sp!, {r4, r5, r6, r7, r8, lr}
 8006006:	f890 303d 	ldrb.w	r3, [r0, #61]	; 0x3d
 800600a:	460d      	mov	r5, r1
 800600c:	4604      	mov	r4, r0
 800600e:	f003 02ff 	and.w	r2, r3, #255	; 0xff
 8006012:	2b00      	cmp	r3, #0
 8006014:	f000 80bc 	beq.w	8006190 <HAL_TIM_Encoder_Init+0x194>
 8006018:	6823      	ldr	r3, [r4, #0]
 800601a:	2202      	movs	r2, #2
 800601c:	f884 203d 	strb.w	r2, [r4, #61]	; 0x3d
 8006020:	689a      	ldr	r2, [r3, #8]
 8006022:	2100      	movs	r1, #0
 8006024:	f422 4280 	bic.w	r2, r2, #16384	; 0x4000
 8006028:	f022 0207 	bic.w	r2, r2, #7
 800602c:	f2c4 0101 	movt	r1, #16385	; 0x4001
 8006030:	609a      	str	r2, [r3, #8]
 8006032:	428b      	cmp	r3, r1
 8006034:	681a      	ldr	r2, [r3, #0]
 8006036:	f000 8097 	beq.w	8006168 <HAL_TIM_Encoder_Init+0x16c>
 800603a:	f1b3 4f80 	cmp.w	r3, #1073741824	; 0x40000000
 800603e:	d045      	beq.n	80060cc <HAL_TIM_Encoder_Init+0xd0>
 8006040:	f44f 6180 	mov.w	r1, #1024	; 0x400
 8006044:	f2c4 0100 	movt	r1, #16384	; 0x4000
 8006048:	428b      	cmp	r3, r1
 800604a:	d03f      	beq.n	80060cc <HAL_TIM_Encoder_Init+0xd0>
 800604c:	f44f 6100 	mov.w	r1, #2048	; 0x800
 8006050:	f2c4 0100 	movt	r1, #16384	; 0x4000
 8006054:	428b      	cmp	r3, r1
 8006056:	d039      	beq.n	80060cc <HAL_TIM_Encoder_Init+0xd0>
 8006058:	f44f 6140 	mov.w	r1, #3072	; 0xc00
 800605c:	f2c4 0100 	movt	r1, #16384	; 0x4000
 8006060:	428b      	cmp	r3, r1
 8006062:	d033      	beq.n	80060cc <HAL_TIM_Encoder_Init+0xd0>
 8006064:	f44f 6180 	mov.w	r1, #1024	; 0x400
 8006068:	f2c4 0101 	movt	r1, #16385	; 0x4001
 800606c:	428b      	cmp	r3, r1
 800606e:	d07b      	beq.n	8006168 <HAL_TIM_Encoder_Init+0x16c>
 8006070:	f44f 4180 	mov.w	r1, #16384	; 0x4000
 8006074:	f2c4 0101 	movt	r1, #16385	; 0x4001
 8006078:	428b      	cmp	r3, r1
 800607a:	d02b      	beq.n	80060d4 <HAL_TIM_Encoder_Init+0xd8>
 800607c:	f44f 4188 	mov.w	r1, #17408	; 0x4400
 8006080:	f2c4 0101 	movt	r1, #16385	; 0x4001
 8006084:	428b      	cmp	r3, r1
 8006086:	d025      	beq.n	80060d4 <HAL_TIM_Encoder_Init+0xd8>
 8006088:	f44f 4190 	mov.w	r1, #18432	; 0x4800
 800608c:	f2c4 0101 	movt	r1, #16385	; 0x4001
 8006090:	428b      	cmp	r3, r1
 8006092:	d01f      	beq.n	80060d4 <HAL_TIM_Encoder_Init+0xd8>
 8006094:	f44f 51c0 	mov.w	r1, #6144	; 0x1800
 8006098:	f2c4 0100 	movt	r1, #16384	; 0x4000
 800609c:	428b      	cmp	r3, r1
 800609e:	d019      	beq.n	80060d4 <HAL_TIM_Encoder_Init+0xd8>
 80060a0:	f44f 51e0 	mov.w	r1, #7168	; 0x1c00
 80060a4:	f2c4 0100 	movt	r1, #16384	; 0x4000
 80060a8:	428b      	cmp	r3, r1
 80060aa:	d013      	beq.n	80060d4 <HAL_TIM_Encoder_Init+0xd8>
 80060ac:	f44f 5100 	mov.w	r1, #8192	; 0x2000
 80060b0:	f2c4 0100 	movt	r1, #16384	; 0x4000
 80060b4:	428b      	cmp	r3, r1
 80060b6:	d00d      	beq.n	80060d4 <HAL_TIM_Encoder_Init+0xd8>
 80060b8:	69a1      	ldr	r1, [r4, #24]
 80060ba:	68e0      	ldr	r0, [r4, #12]
 80060bc:	f022 0280 	bic.w	r2, r2, #128	; 0x80
 80060c0:	430a      	orrs	r2, r1
 80060c2:	6861      	ldr	r1, [r4, #4]
 80060c4:	601a      	str	r2, [r3, #0]
 80060c6:	62d8      	str	r0, [r3, #44]	; 0x2c
 80060c8:	6299      	str	r1, [r3, #40]	; 0x28
 80060ca:	e010      	b.n	80060ee <HAL_TIM_Encoder_Init+0xf2>
 80060cc:	68a1      	ldr	r1, [r4, #8]
 80060ce:	f022 0270 	bic.w	r2, r2, #112	; 0x70
 80060d2:	430a      	orrs	r2, r1
 80060d4:	6920      	ldr	r0, [r4, #16]
 80060d6:	69a1      	ldr	r1, [r4, #24]
 80060d8:	f422 7240 	bic.w	r2, r2, #768	; 0x300
 80060dc:	4302      	orrs	r2, r0
 80060de:	f022 0280 	bic.w	r2, r2, #128	; 0x80
 80060e2:	68e0      	ldr	r0, [r4, #12]
 80060e4:	430a      	orrs	r2, r1
 80060e6:	6861      	ldr	r1, [r4, #4]
 80060e8:	601a      	str	r2, [r3, #0]
 80060ea:	62d8      	str	r0, [r3, #44]	; 0x2c
 80060ec:	6299      	str	r1, [r3, #40]	; 0x28
 80060ee:	2601      	movs	r6, #1
 80060f0:	615e      	str	r6, [r3, #20]
 80060f2:	f8d3 c008 	ldr.w	ip, [r3, #8]
 80060f6:	6998      	ldr	r0, [r3, #24]
 80060f8:	692a      	ldr	r2, [r5, #16]
 80060fa:	69af      	ldr	r7, [r5, #24]
 80060fc:	68a9      	ldr	r1, [r5, #8]
 80060fe:	f8d5 e000 	ldr.w	lr, [r5]
 8006102:	f420 7840 	bic.w	r8, r0, #768	; 0x300
 8006106:	69e8      	ldr	r0, [r5, #28]
 8006108:	0112      	lsls	r2, r2, #4
 800610a:	ea42 2200 	orr.w	r2, r2, r0, lsl #8
 800610e:	68e8      	ldr	r0, [r5, #12]
 8006110:	4302      	orrs	r2, r0
 8006112:	6a28      	ldr	r0, [r5, #32]
 8006114:	f028 0803 	bic.w	r8, r8, #3
 8006118:	ea41 2107 	orr.w	r1, r1, r7, lsl #8
 800611c:	ea41 0108 	orr.w	r1, r1, r8
 8006120:	6a1f      	ldr	r7, [r3, #32]
 8006122:	f8d5 8014 	ldr.w	r8, [r5, #20]
 8006126:	ea42 3200 	orr.w	r2, r2, r0, lsl #12
 800612a:	6868      	ldr	r0, [r5, #4]
 800612c:	f421 417c 	bic.w	r1, r1, #64512	; 0xfc00
 8006130:	ea40 1008 	orr.w	r0, r0, r8, lsl #4
 8006134:	f021 01fc 	bic.w	r1, r1, #252	; 0xfc
 8006138:	f027 07aa 	bic.w	r7, r7, #170	; 0xaa
 800613c:	4307      	orrs	r7, r0
 800613e:	ea4c 050e 	orr.w	r5, ip, lr
 8006142:	430a      	orrs	r2, r1
 8006144:	609d      	str	r5, [r3, #8]
 8006146:	619a      	str	r2, [r3, #24]
 8006148:	621f      	str	r7, [r3, #32]
 800614a:	f884 6046 	strb.w	r6, [r4, #70]	; 0x46
 800614e:	f884 603e 	strb.w	r6, [r4, #62]	; 0x3e
 8006152:	f884 603f 	strb.w	r6, [r4, #63]	; 0x3f
 8006156:	f884 6042 	strb.w	r6, [r4, #66]	; 0x42
 800615a:	f884 6043 	strb.w	r6, [r4, #67]	; 0x43
 800615e:	f884 603d 	strb.w	r6, [r4, #61]	; 0x3d
 8006162:	2000      	movs	r0, #0
 8006164:	e8bd 81f0 	ldmia.w	sp!, {r4, r5, r6, r7, r8, pc}
 8006168:	68a0      	ldr	r0, [r4, #8]
 800616a:	6921      	ldr	r1, [r4, #16]
 800616c:	f022 0270 	bic.w	r2, r2, #112	; 0x70
 8006170:	4302      	orrs	r2, r0
 8006172:	f422 7240 	bic.w	r2, r2, #768	; 0x300
 8006176:	430a      	orrs	r2, r1
 8006178:	69a1      	ldr	r1, [r4, #24]
 800617a:	f022 0280 	bic.w	r2, r2, #128	; 0x80
 800617e:	430a      	orrs	r2, r1
 8006180:	601a      	str	r2, [r3, #0]
 8006182:	68e2      	ldr	r2, [r4, #12]
 8006184:	62da      	str	r2, [r3, #44]	; 0x2c
 8006186:	6862      	ldr	r2, [r4, #4]
 8006188:	629a      	str	r2, [r3, #40]	; 0x28
 800618a:	6962      	ldr	r2, [r4, #20]
 800618c:	631a      	str	r2, [r3, #48]	; 0x30
 800618e:	e7ae      	b.n	80060ee <HAL_TIM_Encoder_Init+0xf2>
 8006190:	f880 203c 	strb.w	r2, [r0, #60]	; 0x3c
 8006194:	f7ff ff30 	bl	8005ff8 <HAL_TIM_Encoder_MspInit>
 8006198:	e73e      	b.n	8006018 <HAL_TIM_Encoder_Init+0x1c>
 800619a:	2001      	movs	r0, #1
 800619c:	4770      	bx	lr
 800619e:	bf00      	nop

080061a0 <HAL_TIM_Encoder_MspDeInit>:
 80061a0:	4770      	bx	lr
 80061a2:	bf00      	nop

080061a4 <HAL_TIM_Encoder_DeInit>:
 80061a4:	2202      	movs	r2, #2
 80061a6:	6803      	ldr	r3, [r0, #0]
 80061a8:	b510      	push	{r4, lr}
 80061aa:	f880 203d 	strb.w	r2, [r0, #61]	; 0x3d
 80061ae:	6a19      	ldr	r1, [r3, #32]
 80061b0:	f241 1211 	movw	r2, #4369	; 0x1111
 80061b4:	4211      	tst	r1, r2
 80061b6:	4604      	mov	r4, r0
 80061b8:	d108      	bne.n	80061cc <HAL_TIM_Encoder_DeInit+0x28>
 80061ba:	6a19      	ldr	r1, [r3, #32]
 80061bc:	f240 4244 	movw	r2, #1092	; 0x444
 80061c0:	4211      	tst	r1, r2
 80061c2:	d103      	bne.n	80061cc <HAL_TIM_Encoder_DeInit+0x28>
 80061c4:	681a      	ldr	r2, [r3, #0]
 80061c6:	f022 0201 	bic.w	r2, r2, #1
 80061ca:	601a      	str	r2, [r3, #0]
 80061cc:	4620      	mov	r0, r4
 80061ce:	f7ff ffe7 	bl	80061a0 <HAL_TIM_Encoder_MspDeInit>
 80061d2:	2000      	movs	r0, #0
 80061d4:	f884 0046 	strb.w	r0, [r4, #70]	; 0x46
 80061d8:	f884 003c 	strb.w	r0, [r4, #60]	; 0x3c
 80061dc:	f884 003e 	strb.w	r0, [r4, #62]	; 0x3e
 80061e0:	f884 003f 	strb.w	r0, [r4, #63]	; 0x3f
 80061e4:	f884 0042 	strb.w	r0, [r4, #66]	; 0x42
 80061e8:	f884 0043 	strb.w	r0, [r4, #67]	; 0x43
 80061ec:	f884 003d 	strb.w	r0, [r4, #61]	; 0x3d
 80061f0:	bd10      	pop	{r4, pc}
 80061f2:	bf00      	nop

080061f4 <HAL_TIM_Encoder_Start>:
 80061f4:	b430      	push	{r4, r5}
 80061f6:	f890 303e 	ldrb.w	r3, [r0, #62]	; 0x3e
 80061fa:	f890 203f 	ldrb.w	r2, [r0, #63]	; 0x3f
 80061fe:	f890 4042 	ldrb.w	r4, [r0, #66]	; 0x42
 8006202:	f890 5043 	ldrb.w	r5, [r0, #67]	; 0x43
 8006206:	b2db      	uxtb	r3, r3
 8006208:	b2e4      	uxtb	r4, r4
 800620a:	b929      	cbnz	r1, 8006218 <HAL_TIM_Encoder_Start+0x24>
 800620c:	2b01      	cmp	r3, #1
 800620e:	d022      	beq.n	8006256 <HAL_TIM_Encoder_Start+0x62>
 8006210:	2301      	movs	r3, #1
 8006212:	4618      	mov	r0, r3
 8006214:	bc30      	pop	{r4, r5}
 8006216:	4770      	bx	lr
 8006218:	2904      	cmp	r1, #4
 800621a:	b2d2      	uxtb	r2, r2
 800621c:	b2ed      	uxtb	r5, r5
 800621e:	d032      	beq.n	8006286 <HAL_TIM_Encoder_Start+0x92>
 8006220:	2b01      	cmp	r3, #1
 8006222:	d1f5      	bne.n	8006210 <HAL_TIM_Encoder_Start+0x1c>
 8006224:	2a01      	cmp	r2, #1
 8006226:	d1f4      	bne.n	8006212 <HAL_TIM_Encoder_Start+0x1e>
 8006228:	2c01      	cmp	r4, #1
 800622a:	d1f2      	bne.n	8006212 <HAL_TIM_Encoder_Start+0x1e>
 800622c:	2d01      	cmp	r5, #1
 800622e:	d1f0      	bne.n	8006212 <HAL_TIM_Encoder_Start+0x1e>
 8006230:	2202      	movs	r2, #2
 8006232:	6803      	ldr	r3, [r0, #0]
 8006234:	f880 203e 	strb.w	r2, [r0, #62]	; 0x3e
 8006238:	f880 203f 	strb.w	r2, [r0, #63]	; 0x3f
 800623c:	f880 2042 	strb.w	r2, [r0, #66]	; 0x42
 8006240:	f880 2043 	strb.w	r2, [r0, #67]	; 0x43
 8006244:	6a1a      	ldr	r2, [r3, #32]
 8006246:	f022 0201 	bic.w	r2, r2, #1
 800624a:	621a      	str	r2, [r3, #32]
 800624c:	6a1a      	ldr	r2, [r3, #32]
 800624e:	f042 0201 	orr.w	r2, r2, #1
 8006252:	621a      	str	r2, [r3, #32]
 8006254:	e021      	b.n	800629a <HAL_TIM_Encoder_Start+0xa6>
 8006256:	2c01      	cmp	r4, #1
 8006258:	d1db      	bne.n	8006212 <HAL_TIM_Encoder_Start+0x1e>
 800625a:	6803      	ldr	r3, [r0, #0]
 800625c:	2202      	movs	r2, #2
 800625e:	f880 203e 	strb.w	r2, [r0, #62]	; 0x3e
 8006262:	f880 2042 	strb.w	r2, [r0, #66]	; 0x42
 8006266:	6a1a      	ldr	r2, [r3, #32]
 8006268:	f022 0201 	bic.w	r2, r2, #1
 800626c:	621a      	str	r2, [r3, #32]
 800626e:	6a1a      	ldr	r2, [r3, #32]
 8006270:	f042 0201 	orr.w	r2, r2, #1
 8006274:	621a      	str	r2, [r3, #32]
 8006276:	681a      	ldr	r2, [r3, #0]
 8006278:	f042 0201 	orr.w	r2, r2, #1
 800627c:	601a      	str	r2, [r3, #0]
 800627e:	2300      	movs	r3, #0
 8006280:	4618      	mov	r0, r3
 8006282:	bc30      	pop	{r4, r5}
 8006284:	4770      	bx	lr
 8006286:	2a01      	cmp	r2, #1
 8006288:	d1c2      	bne.n	8006210 <HAL_TIM_Encoder_Start+0x1c>
 800628a:	2d01      	cmp	r5, #1
 800628c:	d1c0      	bne.n	8006210 <HAL_TIM_Encoder_Start+0x1c>
 800628e:	2202      	movs	r2, #2
 8006290:	6803      	ldr	r3, [r0, #0]
 8006292:	f880 203f 	strb.w	r2, [r0, #63]	; 0x3f
 8006296:	f880 2043 	strb.w	r2, [r0, #67]	; 0x43
 800629a:	6a1a      	ldr	r2, [r3, #32]
 800629c:	f022 0210 	bic.w	r2, r2, #16
 80062a0:	621a      	str	r2, [r3, #32]
 80062a2:	6a1a      	ldr	r2, [r3, #32]
 80062a4:	f042 0210 	orr.w	r2, r2, #16
 80062a8:	621a      	str	r2, [r3, #32]
 80062aa:	e7e4      	b.n	8006276 <HAL_TIM_Encoder_Start+0x82>

080062ac <HAL_TIM_Encoder_Stop>:
 80062ac:	b410      	push	{r4}
 80062ae:	b311      	cbz	r1, 80062f6 <HAL_TIM_Encoder_Stop+0x4a>
 80062b0:	2904      	cmp	r1, #4
 80062b2:	d049      	beq.n	8006348 <HAL_TIM_Encoder_Stop+0x9c>
 80062b4:	6803      	ldr	r3, [r0, #0]
 80062b6:	6a1a      	ldr	r2, [r3, #32]
 80062b8:	f022 0201 	bic.w	r2, r2, #1
 80062bc:	621a      	str	r2, [r3, #32]
 80062be:	6a1a      	ldr	r2, [r3, #32]
 80062c0:	621a      	str	r2, [r3, #32]
 80062c2:	6a1a      	ldr	r2, [r3, #32]
 80062c4:	f022 0210 	bic.w	r2, r2, #16
 80062c8:	621a      	str	r2, [r3, #32]
 80062ca:	6a1a      	ldr	r2, [r3, #32]
 80062cc:	621a      	str	r2, [r3, #32]
 80062ce:	6a1c      	ldr	r4, [r3, #32]
 80062d0:	f241 1211 	movw	r2, #4369	; 0x1111
 80062d4:	4214      	tst	r4, r2
 80062d6:	d01a      	beq.n	800630e <HAL_TIM_Encoder_Stop+0x62>
 80062d8:	2904      	cmp	r1, #4
 80062da:	d02c      	beq.n	8006336 <HAL_TIM_Encoder_Stop+0x8a>
 80062dc:	2301      	movs	r3, #1
 80062de:	f880 303e 	strb.w	r3, [r0, #62]	; 0x3e
 80062e2:	f880 303f 	strb.w	r3, [r0, #63]	; 0x3f
 80062e6:	f880 3042 	strb.w	r3, [r0, #66]	; 0x42
 80062ea:	f880 3043 	strb.w	r3, [r0, #67]	; 0x43
 80062ee:	f85d 4b04 	ldr.w	r4, [sp], #4
 80062f2:	2000      	movs	r0, #0
 80062f4:	4770      	bx	lr
 80062f6:	6803      	ldr	r3, [r0, #0]
 80062f8:	6a1a      	ldr	r2, [r3, #32]
 80062fa:	f022 0201 	bic.w	r2, r2, #1
 80062fe:	621a      	str	r2, [r3, #32]
 8006300:	6a1a      	ldr	r2, [r3, #32]
 8006302:	621a      	str	r2, [r3, #32]
 8006304:	6a1c      	ldr	r4, [r3, #32]
 8006306:	f241 1211 	movw	r2, #4369	; 0x1111
 800630a:	4214      	tst	r4, r2
 800630c:	d10a      	bne.n	8006324 <HAL_TIM_Encoder_Stop+0x78>
 800630e:	6a1c      	ldr	r4, [r3, #32]
 8006310:	f240 4244 	movw	r2, #1092	; 0x444
 8006314:	4214      	tst	r4, r2
 8006316:	d103      	bne.n	8006320 <HAL_TIM_Encoder_Stop+0x74>
 8006318:	681a      	ldr	r2, [r3, #0]
 800631a:	f022 0201 	bic.w	r2, r2, #1
 800631e:	601a      	str	r2, [r3, #0]
 8006320:	2900      	cmp	r1, #0
 8006322:	d1d9      	bne.n	80062d8 <HAL_TIM_Encoder_Stop+0x2c>
 8006324:	2301      	movs	r3, #1
 8006326:	f880 303e 	strb.w	r3, [r0, #62]	; 0x3e
 800632a:	f880 3042 	strb.w	r3, [r0, #66]	; 0x42
 800632e:	f85d 4b04 	ldr.w	r4, [sp], #4
 8006332:	2000      	movs	r0, #0
 8006334:	4770      	bx	lr
 8006336:	2301      	movs	r3, #1
 8006338:	f880 303f 	strb.w	r3, [r0, #63]	; 0x3f
 800633c:	f880 3043 	strb.w	r3, [r0, #67]	; 0x43
 8006340:	f85d 4b04 	ldr.w	r4, [sp], #4
 8006344:	2000      	movs	r0, #0
 8006346:	4770      	bx	lr
 8006348:	6803      	ldr	r3, [r0, #0]
 800634a:	e7ba      	b.n	80062c2 <HAL_TIM_Encoder_Stop+0x16>

0800634c <HAL_TIM_Encoder_Start_IT>:
 800634c:	b430      	push	{r4, r5}
 800634e:	f890 303e 	ldrb.w	r3, [r0, #62]	; 0x3e
 8006352:	f890 203f 	ldrb.w	r2, [r0, #63]	; 0x3f
 8006356:	f890 4042 	ldrb.w	r4, [r0, #66]	; 0x42
 800635a:	f890 5043 	ldrb.w	r5, [r0, #67]	; 0x43
 800635e:	b2db      	uxtb	r3, r3
 8006360:	b2e4      	uxtb	r4, r4
 8006362:	b929      	cbnz	r1, 8006370 <HAL_TIM_Encoder_Start_IT+0x24>
 8006364:	2b01      	cmp	r3, #1
 8006366:	d032      	beq.n	80063ce <HAL_TIM_Encoder_Start_IT+0x82>
 8006368:	2301      	movs	r3, #1
 800636a:	4618      	mov	r0, r3
 800636c:	bc30      	pop	{r4, r5}
 800636e:	4770      	bx	lr
 8006370:	2904      	cmp	r1, #4
 8006372:	b2d2      	uxtb	r2, r2
 8006374:	b2ed      	uxtb	r5, r5
 8006376:	d046      	beq.n	8006406 <HAL_TIM_Encoder_Start_IT+0xba>
 8006378:	2b01      	cmp	r3, #1
 800637a:	d1f5      	bne.n	8006368 <HAL_TIM_Encoder_Start_IT+0x1c>
 800637c:	2a01      	cmp	r2, #1
 800637e:	d1f4      	bne.n	800636a <HAL_TIM_Encoder_Start_IT+0x1e>
 8006380:	2c01      	cmp	r4, #1
 8006382:	d1f2      	bne.n	800636a <HAL_TIM_Encoder_Start_IT+0x1e>
 8006384:	2d01      	cmp	r5, #1
 8006386:	d1f0      	bne.n	800636a <HAL_TIM_Encoder_Start_IT+0x1e>
 8006388:	6803      	ldr	r3, [r0, #0]
 800638a:	2202      	movs	r2, #2
 800638c:	f880 203e 	strb.w	r2, [r0, #62]	; 0x3e
 8006390:	f880 203f 	strb.w	r2, [r0, #63]	; 0x3f
 8006394:	f880 2042 	strb.w	r2, [r0, #66]	; 0x42
 8006398:	f880 2043 	strb.w	r2, [r0, #67]	; 0x43
 800639c:	6a1a      	ldr	r2, [r3, #32]
 800639e:	f022 0201 	bic.w	r2, r2, #1
 80063a2:	621a      	str	r2, [r3, #32]
 80063a4:	6a1a      	ldr	r2, [r3, #32]
 80063a6:	f042 0201 	orr.w	r2, r2, #1
 80063aa:	621a      	str	r2, [r3, #32]
 80063ac:	6a1a      	ldr	r2, [r3, #32]
 80063ae:	f022 0210 	bic.w	r2, r2, #16
 80063b2:	621a      	str	r2, [r3, #32]
 80063b4:	6a1a      	ldr	r2, [r3, #32]
 80063b6:	f042 0210 	orr.w	r2, r2, #16
 80063ba:	621a      	str	r2, [r3, #32]
 80063bc:	68da      	ldr	r2, [r3, #12]
 80063be:	f042 0202 	orr.w	r2, r2, #2
 80063c2:	60da      	str	r2, [r3, #12]
 80063c4:	68da      	ldr	r2, [r3, #12]
 80063c6:	f042 0204 	orr.w	r2, r2, #4
 80063ca:	60da      	str	r2, [r3, #12]
 80063cc:	e013      	b.n	80063f6 <HAL_TIM_Encoder_Start_IT+0xaa>
 80063ce:	2c01      	cmp	r4, #1
 80063d0:	d1cb      	bne.n	800636a <HAL_TIM_Encoder_Start_IT+0x1e>
 80063d2:	6803      	ldr	r3, [r0, #0]
 80063d4:	2202      	movs	r2, #2
 80063d6:	f880 203e 	strb.w	r2, [r0, #62]	; 0x3e
 80063da:	f880 2042 	strb.w	r2, [r0, #66]	; 0x42
 80063de:	6a1a      	ldr	r2, [r3, #32]
 80063e0:	f022 0201 	bic.w	r2, r2, #1
 80063e4:	621a      	str	r2, [r3, #32]
 80063e6:	6a1a      	ldr	r2, [r3, #32]
 80063e8:	f042 0201 	orr.w	r2, r2, #1
 80063ec:	621a      	str	r2, [r3, #32]
 80063ee:	68da      	ldr	r2, [r3, #12]
 80063f0:	f042 0202 	orr.w	r2, r2, #2
 80063f4:	60da      	str	r2, [r3, #12]
 80063f6:	681a      	ldr	r2, [r3, #0]
 80063f8:	f042 0201 	orr.w	r2, r2, #1
 80063fc:	601a      	str	r2, [r3, #0]
 80063fe:	2300      	movs	r3, #0
 8006400:	4618      	mov	r0, r3
 8006402:	bc30      	pop	{r4, r5}
 8006404:	4770      	bx	lr
 8006406:	2a01      	cmp	r2, #1
 8006408:	d1ae      	bne.n	8006368 <HAL_TIM_Encoder_Start_IT+0x1c>
 800640a:	2d01      	cmp	r5, #1
 800640c:	d1ac      	bne.n	8006368 <HAL_TIM_Encoder_Start_IT+0x1c>
 800640e:	6803      	ldr	r3, [r0, #0]
 8006410:	2202      	movs	r2, #2
 8006412:	f880 203f 	strb.w	r2, [r0, #63]	; 0x3f
 8006416:	f880 2043 	strb.w	r2, [r0, #67]	; 0x43
 800641a:	6a1a      	ldr	r2, [r3, #32]
 800641c:	f022 0210 	bic.w	r2, r2, #16
 8006420:	621a      	str	r2, [r3, #32]
 8006422:	6a1a      	ldr	r2, [r3, #32]
 8006424:	f042 0210 	orr.w	r2, r2, #16
 8006428:	621a      	str	r2, [r3, #32]
 800642a:	68da      	ldr	r2, [r3, #12]
 800642c:	f042 0204 	orr.w	r2, r2, #4
 8006430:	60da      	str	r2, [r3, #12]
 8006432:	e7e0      	b.n	80063f6 <HAL_TIM_Encoder_Start_IT+0xaa>

08006434 <HAL_TIM_Encoder_Stop_IT>:
 8006434:	b9f9      	cbnz	r1, 8006476 <HAL_TIM_Encoder_Stop_IT+0x42>
 8006436:	6803      	ldr	r3, [r0, #0]
 8006438:	6a1a      	ldr	r2, [r3, #32]
 800643a:	f022 0201 	bic.w	r2, r2, #1
 800643e:	621a      	str	r2, [r3, #32]
 8006440:	6a1a      	ldr	r2, [r3, #32]
 8006442:	621a      	str	r2, [r3, #32]
 8006444:	68da      	ldr	r2, [r3, #12]
 8006446:	f022 0202 	bic.w	r2, r2, #2
 800644a:	60da      	str	r2, [r3, #12]
 800644c:	6a19      	ldr	r1, [r3, #32]
 800644e:	f241 1211 	movw	r2, #4369	; 0x1111
 8006452:	4211      	tst	r1, r2
 8006454:	d108      	bne.n	8006468 <HAL_TIM_Encoder_Stop_IT+0x34>
 8006456:	6a19      	ldr	r1, [r3, #32]
 8006458:	f240 4244 	movw	r2, #1092	; 0x444
 800645c:	4211      	tst	r1, r2
 800645e:	d103      	bne.n	8006468 <HAL_TIM_Encoder_Stop_IT+0x34>
 8006460:	681a      	ldr	r2, [r3, #0]
 8006462:	f022 0201 	bic.w	r2, r2, #1
 8006466:	601a      	str	r2, [r3, #0]
 8006468:	2301      	movs	r3, #1
 800646a:	f880 303e 	strb.w	r3, [r0, #62]	; 0x3e
 800646e:	f880 3042 	strb.w	r3, [r0, #66]	; 0x42
 8006472:	2000      	movs	r0, #0
 8006474:	4770      	bx	lr
 8006476:	6803      	ldr	r3, [r0, #0]
 8006478:	2904      	cmp	r1, #4
 800647a:	b410      	push	{r4}
 800647c:	6a1a      	ldr	r2, [r3, #32]
 800647e:	d024      	beq.n	80064ca <HAL_TIM_Encoder_Stop_IT+0x96>
 8006480:	f022 0201 	bic.w	r2, r2, #1
 8006484:	621a      	str	r2, [r3, #32]
 8006486:	6a1a      	ldr	r2, [r3, #32]
 8006488:	621a      	str	r2, [r3, #32]
 800648a:	6a1a      	ldr	r2, [r3, #32]
 800648c:	f022 0210 	bic.w	r2, r2, #16
 8006490:	621a      	str	r2, [r3, #32]
 8006492:	6a1a      	ldr	r2, [r3, #32]
 8006494:	621a      	str	r2, [r3, #32]
 8006496:	68da      	ldr	r2, [r3, #12]
 8006498:	f022 0202 	bic.w	r2, r2, #2
 800649c:	60da      	str	r2, [r3, #12]
 800649e:	68da      	ldr	r2, [r3, #12]
 80064a0:	f022 0204 	bic.w	r2, r2, #4
 80064a4:	60da      	str	r2, [r3, #12]
 80064a6:	6a1c      	ldr	r4, [r3, #32]
 80064a8:	f241 1211 	movw	r2, #4369	; 0x1111
 80064ac:	4214      	tst	r4, r2
 80064ae:	d01a      	beq.n	80064e6 <HAL_TIM_Encoder_Stop_IT+0xb2>
 80064b0:	2301      	movs	r3, #1
 80064b2:	f880 303e 	strb.w	r3, [r0, #62]	; 0x3e
 80064b6:	f880 303f 	strb.w	r3, [r0, #63]	; 0x3f
 80064ba:	f880 3042 	strb.w	r3, [r0, #66]	; 0x42
 80064be:	f880 3043 	strb.w	r3, [r0, #67]	; 0x43
 80064c2:	f85d 4b04 	ldr.w	r4, [sp], #4
 80064c6:	2000      	movs	r0, #0
 80064c8:	4770      	bx	lr
 80064ca:	f022 0210 	bic.w	r2, r2, #16
 80064ce:	621a      	str	r2, [r3, #32]
 80064d0:	6a1a      	ldr	r2, [r3, #32]
 80064d2:	621a      	str	r2, [r3, #32]
 80064d4:	68da      	ldr	r2, [r3, #12]
 80064d6:	f022 0204 	bic.w	r2, r2, #4
 80064da:	60da      	str	r2, [r3, #12]
 80064dc:	6a1c      	ldr	r4, [r3, #32]
 80064de:	f241 1211 	movw	r2, #4369	; 0x1111
 80064e2:	4214      	tst	r4, r2
 80064e4:	d10a      	bne.n	80064fc <HAL_TIM_Encoder_Stop_IT+0xc8>
 80064e6:	6a1c      	ldr	r4, [r3, #32]
 80064e8:	f240 4244 	movw	r2, #1092	; 0x444
 80064ec:	4214      	tst	r4, r2
 80064ee:	d103      	bne.n	80064f8 <HAL_TIM_Encoder_Stop_IT+0xc4>
 80064f0:	681a      	ldr	r2, [r3, #0]
 80064f2:	f022 0201 	bic.w	r2, r2, #1
 80064f6:	601a      	str	r2, [r3, #0]
 80064f8:	2904      	cmp	r1, #4
 80064fa:	d1d9      	bne.n	80064b0 <HAL_TIM_Encoder_Stop_IT+0x7c>
 80064fc:	2301      	movs	r3, #1
 80064fe:	f880 303f 	strb.w	r3, [r0, #63]	; 0x3f
 8006502:	f880 3043 	strb.w	r3, [r0, #67]	; 0x43
 8006506:	f85d 4b04 	ldr.w	r4, [sp], #4
 800650a:	2000      	movs	r0, #0
 800650c:	4770      	bx	lr
 800650e:	bf00      	nop

08006510 <HAL_TIM_Encoder_Start_DMA>:
 8006510:	e92d 43f8 	stmdb	sp!, {r3, r4, r5, r6, r7, r8, r9, lr}
 8006514:	4604      	mov	r4, r0
 8006516:	f890 003e 	ldrb.w	r0, [r0, #62]	; 0x3e
 800651a:	f894 603f 	ldrb.w	r6, [r4, #63]	; 0x3f
 800651e:	f894 5042 	ldrb.w	r5, [r4, #66]	; 0x42
 8006522:	f8bd 8020 	ldrh.w	r8, [sp, #32]
 8006526:	f894 c043 	ldrb.w	ip, [r4, #67]	; 0x43
 800652a:	b2c0      	uxtb	r0, r0
 800652c:	b2ed      	uxtb	r5, r5
 800652e:	2900      	cmp	r1, #0
 8006530:	d13d      	bne.n	80065ae <HAL_TIM_Encoder_Start_DMA+0x9e>
 8006532:	2802      	cmp	r0, #2
 8006534:	d039      	beq.n	80065aa <HAL_TIM_Encoder_Start_DMA+0x9a>
 8006536:	2d02      	cmp	r5, #2
 8006538:	f000 80ab 	beq.w	8006692 <HAL_TIM_Encoder_Start_DMA+0x182>
 800653c:	2801      	cmp	r0, #1
 800653e:	f040 80a5 	bne.w	800668c <HAL_TIM_Encoder_Start_DMA+0x17c>
 8006542:	2d01      	cmp	r5, #1
 8006544:	f040 80a2 	bne.w	800668c <HAL_TIM_Encoder_Start_DMA+0x17c>
 8006548:	2a00      	cmp	r2, #0
 800654a:	f000 80cc 	beq.w	80066e6 <HAL_TIM_Encoder_Start_DMA+0x1d6>
 800654e:	6a60      	ldr	r0, [r4, #36]	; 0x24
 8006550:	6821      	ldr	r1, [r4, #0]
 8006552:	f647 25dd 	movw	r5, #31453	; 0x7add
 8006556:	2602      	movs	r6, #2
 8006558:	f6c0 0500 	movt	r5, #2048	; 0x800
 800655c:	f884 603e 	strb.w	r6, [r4, #62]	; 0x3e
 8006560:	f884 6042 	strb.w	r6, [r4, #66]	; 0x42
 8006564:	63c5      	str	r5, [r0, #60]	; 0x3c
 8006566:	f647 3575 	movw	r5, #31605	; 0x7b75
 800656a:	f6c0 0500 	movt	r5, #2048	; 0x800
 800656e:	6405      	str	r5, [r0, #64]	; 0x40
 8006570:	f647 653d 	movw	r5, #32317	; 0x7e3d
 8006574:	f6c0 0500 	movt	r5, #2048	; 0x800
 8006578:	4643      	mov	r3, r8
 800657a:	3134      	adds	r1, #52	; 0x34
 800657c:	64c5      	str	r5, [r0, #76]	; 0x4c
 800657e:	f7fb f971 	bl	8001864 <HAL_DMA_Start_IT>
 8006582:	2800      	cmp	r0, #0
 8006584:	f040 8082 	bne.w	800668c <HAL_TIM_Encoder_Start_DMA+0x17c>
 8006588:	6823      	ldr	r3, [r4, #0]
 800658a:	68da      	ldr	r2, [r3, #12]
 800658c:	f442 7200 	orr.w	r2, r2, #512	; 0x200
 8006590:	60da      	str	r2, [r3, #12]
 8006592:	6a1a      	ldr	r2, [r3, #32]
 8006594:	f022 0201 	bic.w	r2, r2, #1
 8006598:	621a      	str	r2, [r3, #32]
 800659a:	6a1a      	ldr	r2, [r3, #32]
 800659c:	f042 0201 	orr.w	r2, r2, #1
 80065a0:	621a      	str	r2, [r3, #32]
 80065a2:	681a      	ldr	r2, [r3, #0]
 80065a4:	f042 0201 	orr.w	r2, r2, #1
 80065a8:	601a      	str	r2, [r3, #0]
 80065aa:	e8bd 83f8 	ldmia.w	sp!, {r3, r4, r5, r6, r7, r8, r9, pc}
 80065ae:	2904      	cmp	r1, #4
 80065b0:	461f      	mov	r7, r3
 80065b2:	b2f6      	uxtb	r6, r6
 80065b4:	fa5f f38c 	uxtb.w	r3, ip
 80065b8:	d060      	beq.n	800667c <HAL_TIM_Encoder_Start_DMA+0x16c>
 80065ba:	2802      	cmp	r0, #2
 80065bc:	d0f5      	beq.n	80065aa <HAL_TIM_Encoder_Start_DMA+0x9a>
 80065be:	2e02      	cmp	r6, #2
 80065c0:	d069      	beq.n	8006696 <HAL_TIM_Encoder_Start_DMA+0x186>
 80065c2:	2d02      	cmp	r5, #2
 80065c4:	d065      	beq.n	8006692 <HAL_TIM_Encoder_Start_DMA+0x182>
 80065c6:	2b02      	cmp	r3, #2
 80065c8:	f000 808b 	beq.w	80066e2 <HAL_TIM_Encoder_Start_DMA+0x1d2>
 80065cc:	2801      	cmp	r0, #1
 80065ce:	d15d      	bne.n	800668c <HAL_TIM_Encoder_Start_DMA+0x17c>
 80065d0:	2e01      	cmp	r6, #1
 80065d2:	d15b      	bne.n	800668c <HAL_TIM_Encoder_Start_DMA+0x17c>
 80065d4:	2d01      	cmp	r5, #1
 80065d6:	d159      	bne.n	800668c <HAL_TIM_Encoder_Start_DMA+0x17c>
 80065d8:	2b01      	cmp	r3, #1
 80065da:	d157      	bne.n	800668c <HAL_TIM_Encoder_Start_DMA+0x17c>
 80065dc:	2a00      	cmp	r2, #0
 80065de:	f000 808b 	beq.w	80066f8 <HAL_TIM_Encoder_Start_DMA+0x1e8>
 80065e2:	2f00      	cmp	r7, #0
 80065e4:	f000 8088 	beq.w	80066f8 <HAL_TIM_Encoder_Start_DMA+0x1e8>
 80065e8:	6821      	ldr	r1, [r4, #0]
 80065ea:	6a60      	ldr	r0, [r4, #36]	; 0x24
 80065ec:	f647 29dd 	movw	r9, #31453	; 0x7add
 80065f0:	f647 3675 	movw	r6, #31605	; 0x7b75
 80065f4:	f647 653d 	movw	r5, #32317	; 0x7e3d
 80065f8:	2302      	movs	r3, #2
 80065fa:	f6c0 0900 	movt	r9, #2048	; 0x800
 80065fe:	f6c0 0600 	movt	r6, #2048	; 0x800
 8006602:	f6c0 0500 	movt	r5, #2048	; 0x800
 8006606:	f884 303e 	strb.w	r3, [r4, #62]	; 0x3e
 800660a:	3134      	adds	r1, #52	; 0x34
 800660c:	f884 303f 	strb.w	r3, [r4, #63]	; 0x3f
 8006610:	f884 3042 	strb.w	r3, [r4, #66]	; 0x42
 8006614:	f884 3043 	strb.w	r3, [r4, #67]	; 0x43
 8006618:	e9c0 960f 	strd	r9, r6, [r0, #60]	; 0x3c
 800661c:	64c5      	str	r5, [r0, #76]	; 0x4c
 800661e:	4643      	mov	r3, r8
 8006620:	f7fb f920 	bl	8001864 <HAL_DMA_Start_IT>
 8006624:	2800      	cmp	r0, #0
 8006626:	d131      	bne.n	800668c <HAL_TIM_Encoder_Start_DMA+0x17c>
 8006628:	6821      	ldr	r1, [r4, #0]
 800662a:	6aa0      	ldr	r0, [r4, #40]	; 0x28
 800662c:	4643      	mov	r3, r8
 800662e:	f8c0 903c 	str.w	r9, [r0, #60]	; 0x3c
 8006632:	463a      	mov	r2, r7
 8006634:	6406      	str	r6, [r0, #64]	; 0x40
 8006636:	64c5      	str	r5, [r0, #76]	; 0x4c
 8006638:	3138      	adds	r1, #56	; 0x38
 800663a:	f7fb f913 	bl	8001864 <HAL_DMA_Start_IT>
 800663e:	bb28      	cbnz	r0, 800668c <HAL_TIM_Encoder_Start_DMA+0x17c>
 8006640:	6823      	ldr	r3, [r4, #0]
 8006642:	68da      	ldr	r2, [r3, #12]
 8006644:	f442 7200 	orr.w	r2, r2, #512	; 0x200
 8006648:	60da      	str	r2, [r3, #12]
 800664a:	68da      	ldr	r2, [r3, #12]
 800664c:	f442 6280 	orr.w	r2, r2, #1024	; 0x400
 8006650:	60da      	str	r2, [r3, #12]
 8006652:	6a1a      	ldr	r2, [r3, #32]
 8006654:	f022 0201 	bic.w	r2, r2, #1
 8006658:	621a      	str	r2, [r3, #32]
 800665a:	6a1a      	ldr	r2, [r3, #32]
 800665c:	f042 0201 	orr.w	r2, r2, #1
 8006660:	621a      	str	r2, [r3, #32]
 8006662:	6a1a      	ldr	r2, [r3, #32]
 8006664:	f022 0210 	bic.w	r2, r2, #16
 8006668:	621a      	str	r2, [r3, #32]
 800666a:	6a1a      	ldr	r2, [r3, #32]
 800666c:	f042 0210 	orr.w	r2, r2, #16
 8006670:	621a      	str	r2, [r3, #32]
 8006672:	681a      	ldr	r2, [r3, #0]
 8006674:	f042 0201 	orr.w	r2, r2, #1
 8006678:	601a      	str	r2, [r3, #0]
 800667a:	e796      	b.n	80065aa <HAL_TIM_Encoder_Start_DMA+0x9a>
 800667c:	2e02      	cmp	r6, #2
 800667e:	d00a      	beq.n	8006696 <HAL_TIM_Encoder_Start_DMA+0x186>
 8006680:	2b02      	cmp	r3, #2
 8006682:	d02e      	beq.n	80066e2 <HAL_TIM_Encoder_Start_DMA+0x1d2>
 8006684:	2e01      	cmp	r6, #1
 8006686:	d101      	bne.n	800668c <HAL_TIM_Encoder_Start_DMA+0x17c>
 8006688:	2b01      	cmp	r3, #1
 800668a:	d006      	beq.n	800669a <HAL_TIM_Encoder_Start_DMA+0x18a>
 800668c:	2001      	movs	r0, #1
 800668e:	e8bd 83f8 	ldmia.w	sp!, {r3, r4, r5, r6, r7, r8, r9, pc}
 8006692:	4628      	mov	r0, r5
 8006694:	e789      	b.n	80065aa <HAL_TIM_Encoder_Start_DMA+0x9a>
 8006696:	4630      	mov	r0, r6
 8006698:	e787      	b.n	80065aa <HAL_TIM_Encoder_Start_DMA+0x9a>
 800669a:	b34f      	cbz	r7, 80066f0 <HAL_TIM_Encoder_Start_DMA+0x1e0>
 800669c:	6aa0      	ldr	r0, [r4, #40]	; 0x28
 800669e:	6821      	ldr	r1, [r4, #0]
 80066a0:	f647 25dd 	movw	r5, #31453	; 0x7add
 80066a4:	2602      	movs	r6, #2
 80066a6:	f6c0 0500 	movt	r5, #2048	; 0x800
 80066aa:	f884 603f 	strb.w	r6, [r4, #63]	; 0x3f
 80066ae:	f884 6043 	strb.w	r6, [r4, #67]	; 0x43
 80066b2:	63c5      	str	r5, [r0, #60]	; 0x3c
 80066b4:	f647 3575 	movw	r5, #31605	; 0x7b75
 80066b8:	f6c0 0500 	movt	r5, #2048	; 0x800
 80066bc:	6405      	str	r5, [r0, #64]	; 0x40
 80066be:	f647 653d 	movw	r5, #32317	; 0x7e3d
 80066c2:	f6c0 0500 	movt	r5, #2048	; 0x800
 80066c6:	4643      	mov	r3, r8
 80066c8:	463a      	mov	r2, r7
 80066ca:	3138      	adds	r1, #56	; 0x38
 80066cc:	64c5      	str	r5, [r0, #76]	; 0x4c
 80066ce:	f7fb f8c9 	bl	8001864 <HAL_DMA_Start_IT>
 80066d2:	2800      	cmp	r0, #0
 80066d4:	d1da      	bne.n	800668c <HAL_TIM_Encoder_Start_DMA+0x17c>
 80066d6:	6823      	ldr	r3, [r4, #0]
 80066d8:	68da      	ldr	r2, [r3, #12]
 80066da:	f442 6280 	orr.w	r2, r2, #1024	; 0x400
 80066de:	60da      	str	r2, [r3, #12]
 80066e0:	e7bf      	b.n	8006662 <HAL_TIM_Encoder_Start_DMA+0x152>
 80066e2:	4618      	mov	r0, r3
 80066e4:	e761      	b.n	80065aa <HAL_TIM_Encoder_Start_DMA+0x9a>
 80066e6:	f1b8 0f00 	cmp.w	r8, #0
 80066ea:	f43f af30 	beq.w	800654e <HAL_TIM_Encoder_Start_DMA+0x3e>
 80066ee:	e7cd      	b.n	800668c <HAL_TIM_Encoder_Start_DMA+0x17c>
 80066f0:	f1b8 0f00 	cmp.w	r8, #0
 80066f4:	d0d2      	beq.n	800669c <HAL_TIM_Encoder_Start_DMA+0x18c>
 80066f6:	e7c9      	b.n	800668c <HAL_TIM_Encoder_Start_DMA+0x17c>
 80066f8:	f1b8 0f00 	cmp.w	r8, #0
 80066fc:	f43f af74 	beq.w	80065e8 <HAL_TIM_Encoder_Start_DMA+0xd8>
 8006700:	e7c4      	b.n	800668c <HAL_TIM_Encoder_Start_DMA+0x17c>
 8006702:	bf00      	nop

08006704 <HAL_TIM_Encoder_Stop_DMA>:
 8006704:	b538      	push	{r3, r4, r5, lr}
 8006706:	4604      	mov	r4, r0
 8006708:	2900      	cmp	r1, #0
 800670a:	d053      	beq.n	80067b4 <HAL_TIM_Encoder_Stop_DMA+0xb0>
 800670c:	2904      	cmp	r1, #4
 800670e:	6803      	ldr	r3, [r0, #0]
 8006710:	460d      	mov	r5, r1
 8006712:	d035      	beq.n	8006780 <HAL_TIM_Encoder_Stop_DMA+0x7c>
 8006714:	6a1a      	ldr	r2, [r3, #32]
 8006716:	6a40      	ldr	r0, [r0, #36]	; 0x24
 8006718:	f022 0201 	bic.w	r2, r2, #1
 800671c:	621a      	str	r2, [r3, #32]
 800671e:	6a1a      	ldr	r2, [r3, #32]
 8006720:	621a      	str	r2, [r3, #32]
 8006722:	6a1a      	ldr	r2, [r3, #32]
 8006724:	f022 0210 	bic.w	r2, r2, #16
 8006728:	621a      	str	r2, [r3, #32]
 800672a:	6a1a      	ldr	r2, [r3, #32]
 800672c:	621a      	str	r2, [r3, #32]
 800672e:	68da      	ldr	r2, [r3, #12]
 8006730:	f422 7200 	bic.w	r2, r2, #512	; 0x200
 8006734:	60da      	str	r2, [r3, #12]
 8006736:	68da      	ldr	r2, [r3, #12]
 8006738:	f422 6280 	bic.w	r2, r2, #1024	; 0x400
 800673c:	60da      	str	r2, [r3, #12]
 800673e:	f7fb f917 	bl	8001970 <HAL_DMA_Abort_IT>
 8006742:	6aa0      	ldr	r0, [r4, #40]	; 0x28
 8006744:	f7fb f914 	bl	8001970 <HAL_DMA_Abort_IT>
 8006748:	6823      	ldr	r3, [r4, #0]
 800674a:	6a19      	ldr	r1, [r3, #32]
 800674c:	f241 1211 	movw	r2, #4369	; 0x1111
 8006750:	4211      	tst	r1, r2
 8006752:	d10a      	bne.n	800676a <HAL_TIM_Encoder_Stop_DMA+0x66>
 8006754:	6a19      	ldr	r1, [r3, #32]
 8006756:	f240 4244 	movw	r2, #1092	; 0x444
 800675a:	4211      	tst	r1, r2
 800675c:	d103      	bne.n	8006766 <HAL_TIM_Encoder_Stop_DMA+0x62>
 800675e:	681a      	ldr	r2, [r3, #0]
 8006760:	f022 0201 	bic.w	r2, r2, #1
 8006764:	601a      	str	r2, [r3, #0]
 8006766:	2d04      	cmp	r5, #4
 8006768:	d01d      	beq.n	80067a6 <HAL_TIM_Encoder_Stop_DMA+0xa2>
 800676a:	2301      	movs	r3, #1
 800676c:	f884 303e 	strb.w	r3, [r4, #62]	; 0x3e
 8006770:	f884 303f 	strb.w	r3, [r4, #63]	; 0x3f
 8006774:	f884 3042 	strb.w	r3, [r4, #66]	; 0x42
 8006778:	f884 3043 	strb.w	r3, [r4, #67]	; 0x43
 800677c:	2000      	movs	r0, #0
 800677e:	bd38      	pop	{r3, r4, r5, pc}
 8006780:	6a1a      	ldr	r2, [r3, #32]
 8006782:	6a80      	ldr	r0, [r0, #40]	; 0x28
 8006784:	f022 0210 	bic.w	r2, r2, #16
 8006788:	621a      	str	r2, [r3, #32]
 800678a:	6a1a      	ldr	r2, [r3, #32]
 800678c:	621a      	str	r2, [r3, #32]
 800678e:	68da      	ldr	r2, [r3, #12]
 8006790:	f422 6280 	bic.w	r2, r2, #1024	; 0x400
 8006794:	60da      	str	r2, [r3, #12]
 8006796:	f7fb f8eb 	bl	8001970 <HAL_DMA_Abort_IT>
 800679a:	6823      	ldr	r3, [r4, #0]
 800679c:	6a19      	ldr	r1, [r3, #32]
 800679e:	f241 1211 	movw	r2, #4369	; 0x1111
 80067a2:	4211      	tst	r1, r2
 80067a4:	d0d6      	beq.n	8006754 <HAL_TIM_Encoder_Stop_DMA+0x50>
 80067a6:	2301      	movs	r3, #1
 80067a8:	f884 303f 	strb.w	r3, [r4, #63]	; 0x3f
 80067ac:	f884 3043 	strb.w	r3, [r4, #67]	; 0x43
 80067b0:	2000      	movs	r0, #0
 80067b2:	bd38      	pop	{r3, r4, r5, pc}
 80067b4:	6803      	ldr	r3, [r0, #0]
 80067b6:	6a40      	ldr	r0, [r0, #36]	; 0x24
 80067b8:	6a1a      	ldr	r2, [r3, #32]
 80067ba:	f022 0201 	bic.w	r2, r2, #1
 80067be:	621a      	str	r2, [r3, #32]
 80067c0:	6a1a      	ldr	r2, [r3, #32]
 80067c2:	621a      	str	r2, [r3, #32]
 80067c4:	68da      	ldr	r2, [r3, #12]
 80067c6:	f422 7200 	bic.w	r2, r2, #512	; 0x200
 80067ca:	60da      	str	r2, [r3, #12]
 80067cc:	f7fb f8d0 	bl	8001970 <HAL_DMA_Abort_IT>
 80067d0:	6823      	ldr	r3, [r4, #0]
 80067d2:	6a19      	ldr	r1, [r3, #32]
 80067d4:	f241 1211 	movw	r2, #4369	; 0x1111
 80067d8:	4211      	tst	r1, r2
 80067da:	d108      	bne.n	80067ee <HAL_TIM_Encoder_Stop_DMA+0xea>
 80067dc:	6a19      	ldr	r1, [r3, #32]
 80067de:	f240 4244 	movw	r2, #1092	; 0x444
 80067e2:	4211      	tst	r1, r2
 80067e4:	d103      	bne.n	80067ee <HAL_TIM_Encoder_Stop_DMA+0xea>
 80067e6:	681a      	ldr	r2, [r3, #0]
 80067e8:	f022 0201 	bic.w	r2, r2, #1
 80067ec:	601a      	str	r2, [r3, #0]
 80067ee:	2301      	movs	r3, #1
 80067f0:	f884 303e 	strb.w	r3, [r4, #62]	; 0x3e
 80067f4:	f884 3042 	strb.w	r3, [r4, #66]	; 0x42
 80067f8:	2000      	movs	r0, #0
 80067fa:	bd38      	pop	{r3, r4, r5, pc}

080067fc <HAL_TIM_OC_ConfigChannel>:
 80067fc:	f890 303c 	ldrb.w	r3, [r0, #60]	; 0x3c
 8006800:	2b01      	cmp	r3, #1
 8006802:	f000 80bd 	beq.w	8006980 <HAL_TIM_OC_ConfigChannel+0x184>
 8006806:	2301      	movs	r3, #1
 8006808:	b4f0      	push	{r4, r5, r6, r7}
 800680a:	f880 303c 	strb.w	r3, [r0, #60]	; 0x3c
 800680e:	2a0c      	cmp	r2, #12
 8006810:	d808      	bhi.n	8006824 <HAL_TIM_OC_ConfigChannel+0x28>
 8006812:	e8df f002 	tbb	[pc, r2]
 8006816:	0739      	.short	0x0739
 8006818:	07610707 	.word	0x07610707
 800681c:	078c0707 	.word	0x078c0707
 8006820:	0707      	.short	0x0707
 8006822:	0e          	.byte	0x0e
 8006823:	00          	.byte	0x00
 8006824:	2200      	movs	r2, #0
 8006826:	f880 203c 	strb.w	r2, [r0, #60]	; 0x3c
 800682a:	2301      	movs	r3, #1
 800682c:	4618      	mov	r0, r3
 800682e:	bcf0      	pop	{r4, r5, r6, r7}
 8006830:	4770      	bx	lr
 8006832:	6802      	ldr	r2, [r0, #0]
 8006834:	688e      	ldr	r6, [r1, #8]
 8006836:	6a13      	ldr	r3, [r2, #32]
 8006838:	680f      	ldr	r7, [r1, #0]
 800683a:	f423 5380 	bic.w	r3, r3, #4096	; 0x1000
 800683e:	6213      	str	r3, [r2, #32]
 8006840:	6a14      	ldr	r4, [r2, #32]
 8006842:	6853      	ldr	r3, [r2, #4]
 8006844:	69d5      	ldr	r5, [r2, #28]
 8006846:	f424 5400 	bic.w	r4, r4, #8192	; 0x2000
 800684a:	ea44 3406 	orr.w	r4, r4, r6, lsl #12
 800684e:	2600      	movs	r6, #0
 8006850:	f2c4 0601 	movt	r6, #16385	; 0x4001
 8006854:	f425 45e6 	bic.w	r5, r5, #29440	; 0x7300
 8006858:	42b2      	cmp	r2, r6
 800685a:	ea45 2507 	orr.w	r5, r5, r7, lsl #8
 800685e:	f000 80af 	beq.w	80069c0 <HAL_TIM_OC_ConfigChannel+0x1c4>
 8006862:	f44f 6680 	mov.w	r6, #1024	; 0x400
 8006866:	f2c4 0601 	movt	r6, #16385	; 0x4001
 800686a:	42b2      	cmp	r2, r6
 800686c:	f000 80a8 	beq.w	80069c0 <HAL_TIM_OC_ConfigChannel+0x1c4>
 8006870:	6849      	ldr	r1, [r1, #4]
 8006872:	6053      	str	r3, [r2, #4]
 8006874:	61d5      	str	r5, [r2, #28]
 8006876:	6411      	str	r1, [r2, #64]	; 0x40
 8006878:	6214      	str	r4, [r2, #32]
 800687a:	2200      	movs	r2, #0
 800687c:	f880 203c 	strb.w	r2, [r0, #60]	; 0x3c
 8006880:	2300      	movs	r3, #0
 8006882:	4618      	mov	r0, r3
 8006884:	bcf0      	pop	{r4, r5, r6, r7}
 8006886:	4770      	bx	lr
 8006888:	6802      	ldr	r2, [r0, #0]
 800688a:	688e      	ldr	r6, [r1, #8]
 800688c:	6a13      	ldr	r3, [r2, #32]
 800688e:	680f      	ldr	r7, [r1, #0]
 8006890:	f023 0301 	bic.w	r3, r3, #1
 8006894:	6213      	str	r3, [r2, #32]
 8006896:	6a14      	ldr	r4, [r2, #32]
 8006898:	6853      	ldr	r3, [r2, #4]
 800689a:	6995      	ldr	r5, [r2, #24]
 800689c:	f024 0402 	bic.w	r4, r4, #2
 80068a0:	4334      	orrs	r4, r6
 80068a2:	2600      	movs	r6, #0
 80068a4:	f2c4 0601 	movt	r6, #16385	; 0x4001
 80068a8:	f025 0573 	bic.w	r5, r5, #115	; 0x73
 80068ac:	42b2      	cmp	r2, r6
 80068ae:	ea45 0507 	orr.w	r5, r5, r7
 80068b2:	d068      	beq.n	8006986 <HAL_TIM_OC_ConfigChannel+0x18a>
 80068b4:	f44f 6680 	mov.w	r6, #1024	; 0x400
 80068b8:	f2c4 0601 	movt	r6, #16385	; 0x4001
 80068bc:	42b2      	cmp	r2, r6
 80068be:	d062      	beq.n	8006986 <HAL_TIM_OC_ConfigChannel+0x18a>
 80068c0:	6849      	ldr	r1, [r1, #4]
 80068c2:	6053      	str	r3, [r2, #4]
 80068c4:	6195      	str	r5, [r2, #24]
 80068c6:	6351      	str	r1, [r2, #52]	; 0x34
 80068c8:	6214      	str	r4, [r2, #32]
 80068ca:	2200      	movs	r2, #0
 80068cc:	f880 203c 	strb.w	r2, [r0, #60]	; 0x3c
 80068d0:	2300      	movs	r3, #0
 80068d2:	4618      	mov	r0, r3
 80068d4:	bcf0      	pop	{r4, r5, r6, r7}
 80068d6:	4770      	bx	lr
 80068d8:	6802      	ldr	r2, [r0, #0]
 80068da:	688f      	ldr	r7, [r1, #8]
 80068dc:	6a15      	ldr	r5, [r2, #32]
 80068de:	680e      	ldr	r6, [r1, #0]
 80068e0:	f025 0510 	bic.w	r5, r5, #16
 80068e4:	6215      	str	r5, [r2, #32]
 80068e6:	6a14      	ldr	r4, [r2, #32]
 80068e8:	f8d2 c004 	ldr.w	ip, [r2, #4]
 80068ec:	6993      	ldr	r3, [r2, #24]
 80068ee:	2500      	movs	r5, #0
 80068f0:	f2c4 0501 	movt	r5, #16385	; 0x4001
 80068f4:	f024 0420 	bic.w	r4, r4, #32
 80068f8:	f423 43e6 	bic.w	r3, r3, #29440	; 0x7300
 80068fc:	42aa      	cmp	r2, r5
 80068fe:	ea44 1407 	orr.w	r4, r4, r7, lsl #4
 8006902:	ea43 2606 	orr.w	r6, r3, r6, lsl #8
 8006906:	d04b      	beq.n	80069a0 <HAL_TIM_OC_ConfigChannel+0x1a4>
 8006908:	f44f 6580 	mov.w	r5, #1024	; 0x400
 800690c:	f2c4 0501 	movt	r5, #16385	; 0x4001
 8006910:	42aa      	cmp	r2, r5
 8006912:	d045      	beq.n	80069a0 <HAL_TIM_OC_ConfigChannel+0x1a4>
 8006914:	6849      	ldr	r1, [r1, #4]
 8006916:	f8c2 c004 	str.w	ip, [r2, #4]
 800691a:	6196      	str	r6, [r2, #24]
 800691c:	6391      	str	r1, [r2, #56]	; 0x38
 800691e:	6214      	str	r4, [r2, #32]
 8006920:	2200      	movs	r2, #0
 8006922:	f880 203c 	strb.w	r2, [r0, #60]	; 0x3c
 8006926:	2300      	movs	r3, #0
 8006928:	4618      	mov	r0, r3
 800692a:	bcf0      	pop	{r4, r5, r6, r7}
 800692c:	4770      	bx	lr
 800692e:	6802      	ldr	r2, [r0, #0]
 8006930:	688e      	ldr	r6, [r1, #8]
 8006932:	6a15      	ldr	r5, [r2, #32]
 8006934:	680f      	ldr	r7, [r1, #0]
 8006936:	f425 7580 	bic.w	r5, r5, #256	; 0x100
 800693a:	6215      	str	r5, [r2, #32]
 800693c:	6a14      	ldr	r4, [r2, #32]
 800693e:	6855      	ldr	r5, [r2, #4]
 8006940:	69d3      	ldr	r3, [r2, #28]
 8006942:	f424 7400 	bic.w	r4, r4, #512	; 0x200
 8006946:	ea44 2406 	orr.w	r4, r4, r6, lsl #8
 800694a:	2600      	movs	r6, #0
 800694c:	f2c4 0601 	movt	r6, #16385	; 0x4001
 8006950:	f023 0373 	bic.w	r3, r3, #115	; 0x73
 8006954:	42b2      	cmp	r2, r6
 8006956:	ea47 0703 	orr.w	r7, r7, r3
 800695a:	d037      	beq.n	80069cc <HAL_TIM_OC_ConfigChannel+0x1d0>
 800695c:	f44f 6680 	mov.w	r6, #1024	; 0x400
 8006960:	f2c4 0601 	movt	r6, #16385	; 0x4001
 8006964:	42b2      	cmp	r2, r6
 8006966:	d031      	beq.n	80069cc <HAL_TIM_OC_ConfigChannel+0x1d0>
 8006968:	6849      	ldr	r1, [r1, #4]
 800696a:	6055      	str	r5, [r2, #4]
 800696c:	61d7      	str	r7, [r2, #28]
 800696e:	63d1      	str	r1, [r2, #60]	; 0x3c
 8006970:	6214      	str	r4, [r2, #32]
 8006972:	2200      	movs	r2, #0
 8006974:	f880 203c 	strb.w	r2, [r0, #60]	; 0x3c
 8006978:	2300      	movs	r3, #0
 800697a:	4618      	mov	r0, r3
 800697c:	bcf0      	pop	{r4, r5, r6, r7}
 800697e:	4770      	bx	lr
 8006980:	2302      	movs	r3, #2
 8006982:	4618      	mov	r0, r3
 8006984:	4770      	bx	lr
 8006986:	68ce      	ldr	r6, [r1, #12]
 8006988:	f024 0408 	bic.w	r4, r4, #8
 800698c:	4334      	orrs	r4, r6
 800698e:	e9d1 6705 	ldrd	r6, r7, [r1, #20]
 8006992:	f423 7340 	bic.w	r3, r3, #768	; 0x300
 8006996:	433e      	orrs	r6, r7
 8006998:	f024 0404 	bic.w	r4, r4, #4
 800699c:	4333      	orrs	r3, r6
 800699e:	e78f      	b.n	80068c0 <HAL_TIM_OC_ConfigChannel+0xc4>
 80069a0:	68cb      	ldr	r3, [r1, #12]
 80069a2:	f024 0480 	bic.w	r4, r4, #128	; 0x80
 80069a6:	ea44 1403 	orr.w	r4, r4, r3, lsl #4
 80069aa:	e9d1 3705 	ldrd	r3, r7, [r1, #20]
 80069ae:	f42c 6c40 	bic.w	ip, ip, #3072	; 0xc00
 80069b2:	ea43 0507 	orr.w	r5, r3, r7
 80069b6:	f024 0440 	bic.w	r4, r4, #64	; 0x40
 80069ba:	ea4c 0c85 	orr.w	ip, ip, r5, lsl #2
 80069be:	e7a9      	b.n	8006914 <HAL_TIM_OC_ConfigChannel+0x118>
 80069c0:	694e      	ldr	r6, [r1, #20]
 80069c2:	f423 4380 	bic.w	r3, r3, #16384	; 0x4000
 80069c6:	ea43 1386 	orr.w	r3, r3, r6, lsl #6
 80069ca:	e751      	b.n	8006870 <HAL_TIM_OC_ConfigChannel+0x74>
 80069cc:	68cb      	ldr	r3, [r1, #12]
 80069ce:	f424 6400 	bic.w	r4, r4, #2048	; 0x800
 80069d2:	ea44 2403 	orr.w	r4, r4, r3, lsl #8
 80069d6:	e9d1 6305 	ldrd	r6, r3, [r1, #20]
 80069da:	f425 5540 	bic.w	r5, r5, #12288	; 0x3000
 80069de:	431e      	orrs	r6, r3
 80069e0:	f424 6480 	bic.w	r4, r4, #1024	; 0x400
 80069e4:	ea45 1506 	orr.w	r5, r5, r6, lsl #4
 80069e8:	e7be      	b.n	8006968 <HAL_TIM_OC_ConfigChannel+0x16c>
 80069ea:	bf00      	nop

080069ec <HAL_TIM_IC_ConfigChannel>:
 80069ec:	4603      	mov	r3, r0
 80069ee:	f890 003c 	ldrb.w	r0, [r0, #60]	; 0x3c
 80069f2:	2801      	cmp	r0, #1
 80069f4:	f000 80e4 	beq.w	8006bc0 <HAL_TIM_IC_ConfigChannel+0x1d4>
 80069f8:	2001      	movs	r0, #1
 80069fa:	b4f0      	push	{r4, r5, r6, r7}
 80069fc:	f883 003c 	strb.w	r0, [r3, #60]	; 0x3c
 8006a00:	b162      	cbz	r2, 8006a1c <HAL_TIM_IC_ConfigChannel+0x30>
 8006a02:	2a04      	cmp	r2, #4
 8006a04:	d061      	beq.n	8006aca <HAL_TIM_IC_ConfigChannel+0xde>
 8006a06:	2a08      	cmp	r2, #8
 8006a08:	f000 80b1 	beq.w	8006b6e <HAL_TIM_IC_ConfigChannel+0x182>
 8006a0c:	2a0c      	cmp	r2, #12
 8006a0e:	f000 8087 	beq.w	8006b20 <HAL_TIM_IC_ConfigChannel+0x134>
 8006a12:	2200      	movs	r2, #0
 8006a14:	f883 203c 	strb.w	r2, [r3, #60]	; 0x3c
 8006a18:	bcf0      	pop	{r4, r5, r6, r7}
 8006a1a:	4770      	bx	lr
 8006a1c:	681a      	ldr	r2, [r3, #0]
 8006a1e:	680c      	ldr	r4, [r1, #0]
 8006a20:	6a16      	ldr	r6, [r2, #32]
 8006a22:	684d      	ldr	r5, [r1, #4]
 8006a24:	68c8      	ldr	r0, [r1, #12]
 8006a26:	f04f 0c00 	mov.w	ip, #0
 8006a2a:	f026 0601 	bic.w	r6, r6, #1
 8006a2e:	f2c4 0c01 	movt	ip, #16385	; 0x4001
 8006a32:	6216      	str	r6, [r2, #32]
 8006a34:	4562      	cmp	r2, ip
 8006a36:	6997      	ldr	r7, [r2, #24]
 8006a38:	6a16      	ldr	r6, [r2, #32]
 8006a3a:	d029      	beq.n	8006a90 <HAL_TIM_IC_ConfigChannel+0xa4>
 8006a3c:	f1b2 4f80 	cmp.w	r2, #1073741824	; 0x40000000
 8006a40:	d026      	beq.n	8006a90 <HAL_TIM_IC_ConfigChannel+0xa4>
 8006a42:	f44f 6c80 	mov.w	ip, #1024	; 0x400
 8006a46:	f2c4 0c00 	movt	ip, #16384	; 0x4000
 8006a4a:	4562      	cmp	r2, ip
 8006a4c:	d020      	beq.n	8006a90 <HAL_TIM_IC_ConfigChannel+0xa4>
 8006a4e:	f44f 6c00 	mov.w	ip, #2048	; 0x800
 8006a52:	f2c4 0c00 	movt	ip, #16384	; 0x4000
 8006a56:	4562      	cmp	r2, ip
 8006a58:	d01a      	beq.n	8006a90 <HAL_TIM_IC_ConfigChannel+0xa4>
 8006a5a:	f44f 6c40 	mov.w	ip, #3072	; 0xc00
 8006a5e:	f2c4 0c00 	movt	ip, #16384	; 0x4000
 8006a62:	4562      	cmp	r2, ip
 8006a64:	d014      	beq.n	8006a90 <HAL_TIM_IC_ConfigChannel+0xa4>
 8006a66:	f44f 6c80 	mov.w	ip, #1024	; 0x400
 8006a6a:	f2c4 0c01 	movt	ip, #16385	; 0x4001
 8006a6e:	4562      	cmp	r2, ip
 8006a70:	d00e      	beq.n	8006a90 <HAL_TIM_IC_ConfigChannel+0xa4>
 8006a72:	f44f 4c80 	mov.w	ip, #16384	; 0x4000
 8006a76:	f2c4 0c01 	movt	ip, #16385	; 0x4001
 8006a7a:	4562      	cmp	r2, ip
 8006a7c:	d008      	beq.n	8006a90 <HAL_TIM_IC_ConfigChannel+0xa4>
 8006a7e:	f44f 5cc0 	mov.w	ip, #6144	; 0x1800
 8006a82:	f2c4 0c00 	movt	ip, #16384	; 0x4000
 8006a86:	4562      	cmp	r2, ip
 8006a88:	d002      	beq.n	8006a90 <HAL_TIM_IC_ConfigChannel+0xa4>
 8006a8a:	f047 0501 	orr.w	r5, r7, #1
 8006a8e:	e002      	b.n	8006a96 <HAL_TIM_IC_ConfigChannel+0xaa>
 8006a90:	f027 0703 	bic.w	r7, r7, #3
 8006a94:	433d      	orrs	r5, r7
 8006a96:	0100      	lsls	r0, r0, #4
 8006a98:	f025 05f0 	bic.w	r5, r5, #240	; 0xf0
 8006a9c:	f026 060a 	bic.w	r6, r6, #10
 8006aa0:	b2c0      	uxtb	r0, r0
 8006aa2:	f004 040a 	and.w	r4, r4, #10
 8006aa6:	4328      	orrs	r0, r5
 8006aa8:	4334      	orrs	r4, r6
 8006aaa:	6190      	str	r0, [r2, #24]
 8006aac:	6214      	str	r4, [r2, #32]
 8006aae:	6990      	ldr	r0, [r2, #24]
 8006ab0:	688c      	ldr	r4, [r1, #8]
 8006ab2:	f020 000c 	bic.w	r0, r0, #12
 8006ab6:	6190      	str	r0, [r2, #24]
 8006ab8:	6991      	ldr	r1, [r2, #24]
 8006aba:	4321      	orrs	r1, r4
 8006abc:	6191      	str	r1, [r2, #24]
 8006abe:	2200      	movs	r2, #0
 8006ac0:	f883 203c 	strb.w	r2, [r3, #60]	; 0x3c
 8006ac4:	2000      	movs	r0, #0
 8006ac6:	bcf0      	pop	{r4, r5, r6, r7}
 8006ac8:	4770      	bx	lr
 8006aca:	681a      	ldr	r2, [r3, #0]
 8006acc:	6808      	ldr	r0, [r1, #0]
 8006ace:	6a15      	ldr	r5, [r2, #32]
 8006ad0:	f8d1 c004 	ldr.w	ip, [r1, #4]
 8006ad4:	f025 0510 	bic.w	r5, r5, #16
 8006ad8:	e9d1 6402 	ldrd	r6, r4, [r1, #8]
 8006adc:	6215      	str	r5, [r2, #32]
 8006ade:	6995      	ldr	r5, [r2, #24]
 8006ae0:	6a17      	ldr	r7, [r2, #32]
 8006ae2:	f425 7540 	bic.w	r5, r5, #768	; 0x300
 8006ae6:	0101      	lsls	r1, r0, #4
 8006ae8:	0320      	lsls	r0, r4, #12
 8006aea:	ea45 240c 	orr.w	r4, r5, ip, lsl #8
 8006aee:	f424 4470 	bic.w	r4, r4, #61440	; 0xf000
 8006af2:	f027 05a0 	bic.w	r5, r7, #160	; 0xa0
 8006af6:	f001 01a0 	and.w	r1, r1, #160	; 0xa0
 8006afa:	b280      	uxth	r0, r0
 8006afc:	4320      	orrs	r0, r4
 8006afe:	4329      	orrs	r1, r5
 8006b00:	6190      	str	r0, [r2, #24]
 8006b02:	6211      	str	r1, [r2, #32]
 8006b04:	6991      	ldr	r1, [r2, #24]
 8006b06:	f421 6140 	bic.w	r1, r1, #3072	; 0xc00
 8006b0a:	6191      	str	r1, [r2, #24]
 8006b0c:	6991      	ldr	r1, [r2, #24]
 8006b0e:	ea41 2606 	orr.w	r6, r1, r6, lsl #8
 8006b12:	6196      	str	r6, [r2, #24]
 8006b14:	2200      	movs	r2, #0
 8006b16:	f883 203c 	strb.w	r2, [r3, #60]	; 0x3c
 8006b1a:	2000      	movs	r0, #0
 8006b1c:	bcf0      	pop	{r4, r5, r6, r7}
 8006b1e:	4770      	bx	lr
 8006b20:	681a      	ldr	r2, [r3, #0]
 8006b22:	6808      	ldr	r0, [r1, #0]
 8006b24:	6a15      	ldr	r5, [r2, #32]
 8006b26:	f8d1 c004 	ldr.w	ip, [r1, #4]
 8006b2a:	f425 5580 	bic.w	r5, r5, #4096	; 0x1000
 8006b2e:	e9d1 6402 	ldrd	r6, r4, [r1, #8]
 8006b32:	6215      	str	r5, [r2, #32]
 8006b34:	69d5      	ldr	r5, [r2, #28]
 8006b36:	6a17      	ldr	r7, [r2, #32]
 8006b38:	f425 7540 	bic.w	r5, r5, #768	; 0x300
 8006b3c:	0301      	lsls	r1, r0, #12
 8006b3e:	0320      	lsls	r0, r4, #12
 8006b40:	ea45 240c 	orr.w	r4, r5, ip, lsl #8
 8006b44:	f401 4120 	and.w	r1, r1, #40960	; 0xa000
 8006b48:	b280      	uxth	r0, r0
 8006b4a:	f424 4470 	bic.w	r4, r4, #61440	; 0xf000
 8006b4e:	f427 4520 	bic.w	r5, r7, #40960	; 0xa000
 8006b52:	4320      	orrs	r0, r4
 8006b54:	4329      	orrs	r1, r5
 8006b56:	61d0      	str	r0, [r2, #28]
 8006b58:	6211      	str	r1, [r2, #32]
 8006b5a:	69d1      	ldr	r1, [r2, #28]
 8006b5c:	f421 6140 	bic.w	r1, r1, #3072	; 0xc00
 8006b60:	61d1      	str	r1, [r2, #28]
 8006b62:	69d1      	ldr	r1, [r2, #28]
 8006b64:	ea41 2606 	orr.w	r6, r1, r6, lsl #8
 8006b68:	61d6      	str	r6, [r2, #28]
 8006b6a:	2000      	movs	r0, #0
 8006b6c:	e751      	b.n	8006a12 <HAL_TIM_IC_ConfigChannel+0x26>
 8006b6e:	681a      	ldr	r2, [r3, #0]
 8006b70:	6808      	ldr	r0, [r1, #0]
 8006b72:	6a17      	ldr	r7, [r2, #32]
 8006b74:	684d      	ldr	r5, [r1, #4]
 8006b76:	f427 7780 	bic.w	r7, r7, #256	; 0x100
 8006b7a:	e9d1 6402 	ldrd	r6, r4, [r1, #8]
 8006b7e:	6217      	str	r7, [r2, #32]
 8006b80:	69d1      	ldr	r1, [r2, #28]
 8006b82:	6a17      	ldr	r7, [r2, #32]
 8006b84:	f021 0c03 	bic.w	ip, r1, #3
 8006b88:	0201      	lsls	r1, r0, #8
 8006b8a:	0120      	lsls	r0, r4, #4
 8006b8c:	ea45 040c 	orr.w	r4, r5, ip
 8006b90:	f024 04f0 	bic.w	r4, r4, #240	; 0xf0
 8006b94:	f427 6520 	bic.w	r5, r7, #2560	; 0xa00
 8006b98:	f401 6120 	and.w	r1, r1, #2560	; 0xa00
 8006b9c:	b2c0      	uxtb	r0, r0
 8006b9e:	4320      	orrs	r0, r4
 8006ba0:	4329      	orrs	r1, r5
 8006ba2:	61d0      	str	r0, [r2, #28]
 8006ba4:	6211      	str	r1, [r2, #32]
 8006ba6:	69d1      	ldr	r1, [r2, #28]
 8006ba8:	f021 010c 	bic.w	r1, r1, #12
 8006bac:	61d1      	str	r1, [r2, #28]
 8006bae:	69d1      	ldr	r1, [r2, #28]
 8006bb0:	4331      	orrs	r1, r6
 8006bb2:	61d1      	str	r1, [r2, #28]
 8006bb4:	2200      	movs	r2, #0
 8006bb6:	f883 203c 	strb.w	r2, [r3, #60]	; 0x3c
 8006bba:	2000      	movs	r0, #0
 8006bbc:	bcf0      	pop	{r4, r5, r6, r7}
 8006bbe:	4770      	bx	lr
 8006bc0:	2002      	movs	r0, #2
 8006bc2:	4770      	bx	lr

08006bc4 <HAL_TIM_PWM_ConfigChannel>:
 8006bc4:	f890 303c 	ldrb.w	r3, [r0, #60]	; 0x3c
 8006bc8:	2b01      	cmp	r3, #1
 8006bca:	f000 80ed 	beq.w	8006da8 <HAL_TIM_PWM_ConfigChannel+0x1e4>
 8006bce:	2301      	movs	r3, #1
 8006bd0:	b4f0      	push	{r4, r5, r6, r7}
 8006bd2:	4604      	mov	r4, r0
 8006bd4:	f880 303c 	strb.w	r3, [r0, #60]	; 0x3c
 8006bd8:	2a0c      	cmp	r2, #12
 8006bda:	d808      	bhi.n	8006bee <HAL_TIM_PWM_ConfigChannel+0x2a>
 8006bdc:	e8df f002 	tbb	[pc, r2]
 8006be0:	07070744 	.word	0x07070744
 8006be4:	07070779 	.word	0x07070779
 8006be8:	070707b0 	.word	0x070707b0
 8006bec:	0d          	.byte	0x0d
 8006bed:	00          	.byte	0x00
 8006bee:	2300      	movs	r3, #0
 8006bf0:	f884 303c 	strb.w	r3, [r4, #60]	; 0x3c
 8006bf4:	2001      	movs	r0, #1
 8006bf6:	bcf0      	pop	{r4, r5, r6, r7}
 8006bf8:	4770      	bx	lr
 8006bfa:	6803      	ldr	r3, [r0, #0]
 8006bfc:	688e      	ldr	r6, [r1, #8]
 8006bfe:	6a1d      	ldr	r5, [r3, #32]
 8006c00:	680f      	ldr	r7, [r1, #0]
 8006c02:	f425 5580 	bic.w	r5, r5, #4096	; 0x1000
 8006c06:	621d      	str	r5, [r3, #32]
 8006c08:	6a1a      	ldr	r2, [r3, #32]
 8006c0a:	685d      	ldr	r5, [r3, #4]
 8006c0c:	69d8      	ldr	r0, [r3, #28]
 8006c0e:	f422 5200 	bic.w	r2, r2, #8192	; 0x2000
 8006c12:	ea42 3206 	orr.w	r2, r2, r6, lsl #12
 8006c16:	2600      	movs	r6, #0
 8006c18:	f2c4 0601 	movt	r6, #16385	; 0x4001
 8006c1c:	f420 40e6 	bic.w	r0, r0, #29440	; 0x7300
 8006c20:	42b3      	cmp	r3, r6
 8006c22:	ea40 2007 	orr.w	r0, r0, r7, lsl #8
 8006c26:	f000 80de 	beq.w	8006de6 <HAL_TIM_PWM_ConfigChannel+0x222>
 8006c2a:	f44f 6680 	mov.w	r6, #1024	; 0x400
 8006c2e:	f2c4 0601 	movt	r6, #16385	; 0x4001
 8006c32:	42b3      	cmp	r3, r6
 8006c34:	f000 80d7 	beq.w	8006de6 <HAL_TIM_PWM_ConfigChannel+0x222>
 8006c38:	684e      	ldr	r6, [r1, #4]
 8006c3a:	605d      	str	r5, [r3, #4]
 8006c3c:	61d8      	str	r0, [r3, #28]
 8006c3e:	641e      	str	r6, [r3, #64]	; 0x40
 8006c40:	621a      	str	r2, [r3, #32]
 8006c42:	69d8      	ldr	r0, [r3, #28]
 8006c44:	690d      	ldr	r5, [r1, #16]
 8006c46:	f440 6000 	orr.w	r0, r0, #2048	; 0x800
 8006c4a:	61d8      	str	r0, [r3, #28]
 8006c4c:	69d9      	ldr	r1, [r3, #28]
 8006c4e:	f421 6180 	bic.w	r1, r1, #1024	; 0x400
 8006c52:	61d9      	str	r1, [r3, #28]
 8006c54:	69da      	ldr	r2, [r3, #28]
 8006c56:	ea42 2205 	orr.w	r2, r2, r5, lsl #8
 8006c5a:	61da      	str	r2, [r3, #28]
 8006c5c:	2300      	movs	r3, #0
 8006c5e:	f884 303c 	strb.w	r3, [r4, #60]	; 0x3c
 8006c62:	2000      	movs	r0, #0
 8006c64:	bcf0      	pop	{r4, r5, r6, r7}
 8006c66:	4770      	bx	lr
 8006c68:	6803      	ldr	r3, [r0, #0]
 8006c6a:	688e      	ldr	r6, [r1, #8]
 8006c6c:	6a1d      	ldr	r5, [r3, #32]
 8006c6e:	680f      	ldr	r7, [r1, #0]
 8006c70:	f025 0501 	bic.w	r5, r5, #1
 8006c74:	621d      	str	r5, [r3, #32]
 8006c76:	6a1a      	ldr	r2, [r3, #32]
 8006c78:	685d      	ldr	r5, [r3, #4]
 8006c7a:	6998      	ldr	r0, [r3, #24]
 8006c7c:	f022 0202 	bic.w	r2, r2, #2
 8006c80:	4332      	orrs	r2, r6
 8006c82:	2600      	movs	r6, #0
 8006c84:	f2c4 0601 	movt	r6, #16385	; 0x4001
 8006c88:	f020 0073 	bic.w	r0, r0, #115	; 0x73
 8006c8c:	42b3      	cmp	r3, r6
 8006c8e:	ea40 0007 	orr.w	r0, r0, r7
 8006c92:	f000 808b 	beq.w	8006dac <HAL_TIM_PWM_ConfigChannel+0x1e8>
 8006c96:	f44f 6680 	mov.w	r6, #1024	; 0x400
 8006c9a:	f2c4 0601 	movt	r6, #16385	; 0x4001
 8006c9e:	42b3      	cmp	r3, r6
 8006ca0:	f000 8084 	beq.w	8006dac <HAL_TIM_PWM_ConfigChannel+0x1e8>
 8006ca4:	684e      	ldr	r6, [r1, #4]
 8006ca6:	605d      	str	r5, [r3, #4]
 8006ca8:	6198      	str	r0, [r3, #24]
 8006caa:	635e      	str	r6, [r3, #52]	; 0x34
 8006cac:	621a      	str	r2, [r3, #32]
 8006cae:	6998      	ldr	r0, [r3, #24]
 8006cb0:	690d      	ldr	r5, [r1, #16]
 8006cb2:	f040 0008 	orr.w	r0, r0, #8
 8006cb6:	6198      	str	r0, [r3, #24]
 8006cb8:	6999      	ldr	r1, [r3, #24]
 8006cba:	f021 0104 	bic.w	r1, r1, #4
 8006cbe:	6199      	str	r1, [r3, #24]
 8006cc0:	699a      	ldr	r2, [r3, #24]
 8006cc2:	432a      	orrs	r2, r5
 8006cc4:	619a      	str	r2, [r3, #24]
 8006cc6:	2300      	movs	r3, #0
 8006cc8:	f884 303c 	strb.w	r3, [r4, #60]	; 0x3c
 8006ccc:	2000      	movs	r0, #0
 8006cce:	bcf0      	pop	{r4, r5, r6, r7}
 8006cd0:	4770      	bx	lr
 8006cd2:	6803      	ldr	r3, [r0, #0]
 8006cd4:	688f      	ldr	r7, [r1, #8]
 8006cd6:	6a1d      	ldr	r5, [r3, #32]
 8006cd8:	680e      	ldr	r6, [r1, #0]
 8006cda:	f025 0510 	bic.w	r5, r5, #16
 8006cde:	621d      	str	r5, [r3, #32]
 8006ce0:	6a1a      	ldr	r2, [r3, #32]
 8006ce2:	f8d3 c004 	ldr.w	ip, [r3, #4]
 8006ce6:	6998      	ldr	r0, [r3, #24]
 8006ce8:	2500      	movs	r5, #0
 8006cea:	f2c4 0501 	movt	r5, #16385	; 0x4001
 8006cee:	f022 0220 	bic.w	r2, r2, #32
 8006cf2:	f420 40e6 	bic.w	r0, r0, #29440	; 0x7300
 8006cf6:	42ab      	cmp	r3, r5
 8006cf8:	ea42 1207 	orr.w	r2, r2, r7, lsl #4
 8006cfc:	ea40 2006 	orr.w	r0, r0, r6, lsl #8
 8006d00:	d061      	beq.n	8006dc6 <HAL_TIM_PWM_ConfigChannel+0x202>
 8006d02:	f44f 6580 	mov.w	r5, #1024	; 0x400
 8006d06:	f2c4 0501 	movt	r5, #16385	; 0x4001
 8006d0a:	42ab      	cmp	r3, r5
 8006d0c:	d05b      	beq.n	8006dc6 <HAL_TIM_PWM_ConfigChannel+0x202>
 8006d0e:	684e      	ldr	r6, [r1, #4]
 8006d10:	f8c3 c004 	str.w	ip, [r3, #4]
 8006d14:	6198      	str	r0, [r3, #24]
 8006d16:	639e      	str	r6, [r3, #56]	; 0x38
 8006d18:	621a      	str	r2, [r3, #32]
 8006d1a:	6998      	ldr	r0, [r3, #24]
 8006d1c:	690d      	ldr	r5, [r1, #16]
 8006d1e:	f440 6000 	orr.w	r0, r0, #2048	; 0x800
 8006d22:	6198      	str	r0, [r3, #24]
 8006d24:	6999      	ldr	r1, [r3, #24]
 8006d26:	f421 6180 	bic.w	r1, r1, #1024	; 0x400
 8006d2a:	6199      	str	r1, [r3, #24]
 8006d2c:	699a      	ldr	r2, [r3, #24]
 8006d2e:	ea42 2205 	orr.w	r2, r2, r5, lsl #8
 8006d32:	619a      	str	r2, [r3, #24]
 8006d34:	2300      	movs	r3, #0
 8006d36:	f884 303c 	strb.w	r3, [r4, #60]	; 0x3c
 8006d3a:	2000      	movs	r0, #0
 8006d3c:	bcf0      	pop	{r4, r5, r6, r7}
 8006d3e:	4770      	bx	lr
 8006d40:	6803      	ldr	r3, [r0, #0]
 8006d42:	688e      	ldr	r6, [r1, #8]
 8006d44:	6a1d      	ldr	r5, [r3, #32]
 8006d46:	680f      	ldr	r7, [r1, #0]
 8006d48:	f425 7580 	bic.w	r5, r5, #256	; 0x100
 8006d4c:	621d      	str	r5, [r3, #32]
 8006d4e:	6a1a      	ldr	r2, [r3, #32]
 8006d50:	685d      	ldr	r5, [r3, #4]
 8006d52:	69d8      	ldr	r0, [r3, #28]
 8006d54:	f422 7200 	bic.w	r2, r2, #512	; 0x200
 8006d58:	ea42 2206 	orr.w	r2, r2, r6, lsl #8
 8006d5c:	2600      	movs	r6, #0
 8006d5e:	f2c4 0601 	movt	r6, #16385	; 0x4001
 8006d62:	f020 0073 	bic.w	r0, r0, #115	; 0x73
 8006d66:	42b3      	cmp	r3, r6
 8006d68:	ea40 0007 	orr.w	r0, r0, r7
 8006d6c:	d041      	beq.n	8006df2 <HAL_TIM_PWM_ConfigChannel+0x22e>
 8006d6e:	f44f 6680 	mov.w	r6, #1024	; 0x400
 8006d72:	f2c4 0601 	movt	r6, #16385	; 0x4001
 8006d76:	42b3      	cmp	r3, r6
 8006d78:	d03b      	beq.n	8006df2 <HAL_TIM_PWM_ConfigChannel+0x22e>
 8006d7a:	684e      	ldr	r6, [r1, #4]
 8006d7c:	605d      	str	r5, [r3, #4]
 8006d7e:	61d8      	str	r0, [r3, #28]
 8006d80:	63de      	str	r6, [r3, #60]	; 0x3c
 8006d82:	621a      	str	r2, [r3, #32]
 8006d84:	69d8      	ldr	r0, [r3, #28]
 8006d86:	690d      	ldr	r5, [r1, #16]
 8006d88:	f040 0008 	orr.w	r0, r0, #8
 8006d8c:	61d8      	str	r0, [r3, #28]
 8006d8e:	69d9      	ldr	r1, [r3, #28]
 8006d90:	f021 0104 	bic.w	r1, r1, #4
 8006d94:	61d9      	str	r1, [r3, #28]
 8006d96:	69da      	ldr	r2, [r3, #28]
 8006d98:	432a      	orrs	r2, r5
 8006d9a:	61da      	str	r2, [r3, #28]
 8006d9c:	2300      	movs	r3, #0
 8006d9e:	f884 303c 	strb.w	r3, [r4, #60]	; 0x3c
 8006da2:	2000      	movs	r0, #0
 8006da4:	bcf0      	pop	{r4, r5, r6, r7}
 8006da6:	4770      	bx	lr
 8006da8:	2002      	movs	r0, #2
 8006daa:	4770      	bx	lr
 8006dac:	68ce      	ldr	r6, [r1, #12]
 8006dae:	f022 0208 	bic.w	r2, r2, #8
 8006db2:	4332      	orrs	r2, r6
 8006db4:	e9d1 6705 	ldrd	r6, r7, [r1, #20]
 8006db8:	f425 7540 	bic.w	r5, r5, #768	; 0x300
 8006dbc:	433e      	orrs	r6, r7
 8006dbe:	f022 0204 	bic.w	r2, r2, #4
 8006dc2:	4335      	orrs	r5, r6
 8006dc4:	e76e      	b.n	8006ca4 <HAL_TIM_PWM_ConfigChannel+0xe0>
 8006dc6:	e9d1 6705 	ldrd	r6, r7, [r1, #20]
 8006dca:	68cd      	ldr	r5, [r1, #12]
 8006dcc:	f022 0280 	bic.w	r2, r2, #128	; 0x80
 8006dd0:	ea42 1205 	orr.w	r2, r2, r5, lsl #4
 8006dd4:	f42c 6c40 	bic.w	ip, ip, #3072	; 0xc00
 8006dd8:	ea46 0507 	orr.w	r5, r6, r7
 8006ddc:	f022 0240 	bic.w	r2, r2, #64	; 0x40
 8006de0:	ea4c 0c85 	orr.w	ip, ip, r5, lsl #2
 8006de4:	e793      	b.n	8006d0e <HAL_TIM_PWM_ConfigChannel+0x14a>
 8006de6:	694e      	ldr	r6, [r1, #20]
 8006de8:	f425 4580 	bic.w	r5, r5, #16384	; 0x4000
 8006dec:	ea45 1586 	orr.w	r5, r5, r6, lsl #6
 8006df0:	e722      	b.n	8006c38 <HAL_TIM_PWM_ConfigChannel+0x74>
 8006df2:	68ce      	ldr	r6, [r1, #12]
 8006df4:	f422 6200 	bic.w	r2, r2, #2048	; 0x800
 8006df8:	ea42 2206 	orr.w	r2, r2, r6, lsl #8
 8006dfc:	e9d1 6705 	ldrd	r6, r7, [r1, #20]
 8006e00:	f425 5540 	bic.w	r5, r5, #12288	; 0x3000
 8006e04:	433e      	orrs	r6, r7
 8006e06:	f422 6280 	bic.w	r2, r2, #1024	; 0x400
 8006e0a:	ea45 1506 	orr.w	r5, r5, r6, lsl #4
 8006e0e:	e7b4      	b.n	8006d7a <HAL_TIM_PWM_ConfigChannel+0x1b6>

08006e10 <HAL_TIM_OnePulse_ConfigChannel>:
 8006e10:	429a      	cmp	r2, r3
 8006e12:	f000 80d7 	beq.w	8006fc4 <HAL_TIM_OnePulse_ConfigChannel+0x1b4>
 8006e16:	e92d 47f0 	stmdb	sp!, {r4, r5, r6, r7, r8, r9, sl, lr}
 8006e1a:	4604      	mov	r4, r0
 8006e1c:	f890 003c 	ldrb.w	r0, [r0, #60]	; 0x3c
 8006e20:	2801      	cmp	r0, #1
 8006e22:	f000 80eb 	beq.w	8006ffc <HAL_TIM_OnePulse_ConfigChannel+0x1ec>
 8006e26:	2501      	movs	r5, #1
 8006e28:	2002      	movs	r0, #2
 8006e2a:	f884 503c 	strb.w	r5, [r4, #60]	; 0x3c
 8006e2e:	f884 003d 	strb.w	r0, [r4, #61]	; 0x3d
 8006e32:	e9d1 7600 	ldrd	r7, r6, [r1]
 8006e36:	e9d1 8e02 	ldrd	r8, lr, [r1, #8]
 8006e3a:	e9d1 5c04 	ldrd	r5, ip, [r1, #16]
 8006e3e:	2a00      	cmp	r2, #0
 8006e40:	d063      	beq.n	8006f0a <HAL_TIM_OnePulse_ConfigChannel+0xfa>
 8006e42:	2a04      	cmp	r2, #4
 8006e44:	d008      	beq.n	8006e58 <HAL_TIM_OnePulse_ConfigChannel+0x48>
 8006e46:	2001      	movs	r0, #1
 8006e48:	2201      	movs	r2, #1
 8006e4a:	2300      	movs	r3, #0
 8006e4c:	f884 203d 	strb.w	r2, [r4, #61]	; 0x3d
 8006e50:	f884 303c 	strb.w	r3, [r4, #60]	; 0x3c
 8006e54:	e8bd 87f0 	ldmia.w	sp!, {r4, r5, r6, r7, r8, r9, sl, pc}
 8006e58:	6822      	ldr	r2, [r4, #0]
 8006e5a:	6a10      	ldr	r0, [r2, #32]
 8006e5c:	f020 0010 	bic.w	r0, r0, #16
 8006e60:	6210      	str	r0, [r2, #32]
 8006e62:	6a10      	ldr	r0, [r2, #32]
 8006e64:	f8d2 9004 	ldr.w	r9, [r2, #4]
 8006e68:	f8d2 a018 	ldr.w	sl, [r2, #24]
 8006e6c:	f020 0020 	bic.w	r0, r0, #32
 8006e70:	ea40 1008 	orr.w	r0, r0, r8, lsl #4
 8006e74:	f04f 0800 	mov.w	r8, #0
 8006e78:	f2c4 0801 	movt	r8, #16385	; 0x4001
 8006e7c:	f42a 4ae6 	bic.w	sl, sl, #29440	; 0x7300
 8006e80:	4542      	cmp	r2, r8
 8006e82:	ea4a 2707 	orr.w	r7, sl, r7, lsl #8
 8006e86:	f000 809f 	beq.w	8006fc8 <HAL_TIM_OnePulse_ConfigChannel+0x1b8>
 8006e8a:	f44f 6880 	mov.w	r8, #1024	; 0x400
 8006e8e:	f2c4 0801 	movt	r8, #16385	; 0x4001
 8006e92:	4542      	cmp	r2, r8
 8006e94:	f000 8098 	beq.w	8006fc8 <HAL_TIM_OnePulse_ConfigChannel+0x1b8>
 8006e98:	f8c2 9004 	str.w	r9, [r2, #4]
 8006e9c:	6197      	str	r7, [r2, #24]
 8006e9e:	6396      	str	r6, [r2, #56]	; 0x38
 8006ea0:	6210      	str	r0, [r2, #32]
 8006ea2:	2b00      	cmp	r3, #0
 8006ea4:	d056      	beq.n	8006f54 <HAL_TIM_OnePulse_ConfigChannel+0x144>
 8006ea6:	2b04      	cmp	r3, #4
 8006ea8:	d1cd      	bne.n	8006e46 <HAL_TIM_OnePulse_ConfigChannel+0x36>
 8006eaa:	6a15      	ldr	r5, [r2, #32]
 8006eac:	f025 0510 	bic.w	r5, r5, #16
 8006eb0:	e9d1 3606 	ldrd	r3, r6, [r1, #24]
 8006eb4:	6a09      	ldr	r1, [r1, #32]
 8006eb6:	6215      	str	r5, [r2, #32]
 8006eb8:	6990      	ldr	r0, [r2, #24]
 8006eba:	6a15      	ldr	r5, [r2, #32]
 8006ebc:	f420 7040 	bic.w	r0, r0, #768	; 0x300
 8006ec0:	011b      	lsls	r3, r3, #4
 8006ec2:	0309      	lsls	r1, r1, #12
 8006ec4:	ea40 2006 	orr.w	r0, r0, r6, lsl #8
 8006ec8:	f003 03a0 	and.w	r3, r3, #160	; 0xa0
 8006ecc:	b289      	uxth	r1, r1
 8006ece:	f420 4070 	bic.w	r0, r0, #61440	; 0xf000
 8006ed2:	f025 05a0 	bic.w	r5, r5, #160	; 0xa0
 8006ed6:	432b      	orrs	r3, r5
 8006ed8:	4301      	orrs	r1, r0
 8006eda:	6191      	str	r1, [r2, #24]
 8006edc:	6213      	str	r3, [r2, #32]
 8006ede:	6993      	ldr	r3, [r2, #24]
 8006ee0:	f423 6340 	bic.w	r3, r3, #3072	; 0xc00
 8006ee4:	6193      	str	r3, [r2, #24]
 8006ee6:	6893      	ldr	r3, [r2, #8]
 8006ee8:	f023 0370 	bic.w	r3, r3, #112	; 0x70
 8006eec:	6093      	str	r3, [r2, #8]
 8006eee:	6893      	ldr	r3, [r2, #8]
 8006ef0:	f043 0360 	orr.w	r3, r3, #96	; 0x60
 8006ef4:	6093      	str	r3, [r2, #8]
 8006ef6:	6893      	ldr	r3, [r2, #8]
 8006ef8:	f023 0307 	bic.w	r3, r3, #7
 8006efc:	6093      	str	r3, [r2, #8]
 8006efe:	6893      	ldr	r3, [r2, #8]
 8006f00:	f043 0306 	orr.w	r3, r3, #6
 8006f04:	6093      	str	r3, [r2, #8]
 8006f06:	2000      	movs	r0, #0
 8006f08:	e79e      	b.n	8006e48 <HAL_TIM_OnePulse_ConfigChannel+0x38>
 8006f0a:	6822      	ldr	r2, [r4, #0]
 8006f0c:	6a10      	ldr	r0, [r2, #32]
 8006f0e:	f020 0001 	bic.w	r0, r0, #1
 8006f12:	6210      	str	r0, [r2, #32]
 8006f14:	6a10      	ldr	r0, [r2, #32]
 8006f16:	f8d2 9004 	ldr.w	r9, [r2, #4]
 8006f1a:	f8d2 a018 	ldr.w	sl, [r2, #24]
 8006f1e:	f020 0002 	bic.w	r0, r0, #2
 8006f22:	ea48 0000 	orr.w	r0, r8, r0
 8006f26:	f04f 0800 	mov.w	r8, #0
 8006f2a:	f2c4 0801 	movt	r8, #16385	; 0x4001
 8006f2e:	f02a 0a73 	bic.w	sl, sl, #115	; 0x73
 8006f32:	4542      	cmp	r2, r8
 8006f34:	ea47 070a 	orr.w	r7, r7, sl
 8006f38:	d053      	beq.n	8006fe2 <HAL_TIM_OnePulse_ConfigChannel+0x1d2>
 8006f3a:	f44f 6880 	mov.w	r8, #1024	; 0x400
 8006f3e:	f2c4 0801 	movt	r8, #16385	; 0x4001
 8006f42:	4542      	cmp	r2, r8
 8006f44:	d04d      	beq.n	8006fe2 <HAL_TIM_OnePulse_ConfigChannel+0x1d2>
 8006f46:	f8c2 9004 	str.w	r9, [r2, #4]
 8006f4a:	6197      	str	r7, [r2, #24]
 8006f4c:	6356      	str	r6, [r2, #52]	; 0x34
 8006f4e:	6210      	str	r0, [r2, #32]
 8006f50:	2b00      	cmp	r3, #0
 8006f52:	d1a8      	bne.n	8006ea6 <HAL_TIM_OnePulse_ConfigChannel+0x96>
 8006f54:	6a16      	ldr	r6, [r2, #32]
 8006f56:	6a0b      	ldr	r3, [r1, #32]
 8006f58:	2700      	movs	r7, #0
 8006f5a:	f026 0601 	bic.w	r6, r6, #1
 8006f5e:	f2c4 0701 	movt	r7, #16385	; 0x4001
 8006f62:	e9d1 0506 	ldrd	r0, r5, [r1, #24]
 8006f66:	42ba      	cmp	r2, r7
 8006f68:	6216      	str	r6, [r2, #32]
 8006f6a:	6996      	ldr	r6, [r2, #24]
 8006f6c:	6a11      	ldr	r1, [r2, #32]
 8006f6e:	d048      	beq.n	8007002 <HAL_TIM_OnePulse_ConfigChannel+0x1f2>
 8006f70:	f1b2 4f80 	cmp.w	r2, #1073741824	; 0x40000000
 8006f74:	d045      	beq.n	8007002 <HAL_TIM_OnePulse_ConfigChannel+0x1f2>
 8006f76:	f44f 6780 	mov.w	r7, #1024	; 0x400
 8006f7a:	f2c4 0700 	movt	r7, #16384	; 0x4000
 8006f7e:	42ba      	cmp	r2, r7
 8006f80:	d03f      	beq.n	8007002 <HAL_TIM_OnePulse_ConfigChannel+0x1f2>
 8006f82:	f44f 6700 	mov.w	r7, #2048	; 0x800
 8006f86:	f2c4 0700 	movt	r7, #16384	; 0x4000
 8006f8a:	42ba      	cmp	r2, r7
 8006f8c:	d039      	beq.n	8007002 <HAL_TIM_OnePulse_ConfigChannel+0x1f2>
 8006f8e:	f44f 6740 	mov.w	r7, #3072	; 0xc00
 8006f92:	f2c4 0700 	movt	r7, #16384	; 0x4000
 8006f96:	42ba      	cmp	r2, r7
 8006f98:	d033      	beq.n	8007002 <HAL_TIM_OnePulse_ConfigChannel+0x1f2>
 8006f9a:	f44f 6780 	mov.w	r7, #1024	; 0x400
 8006f9e:	f2c4 0701 	movt	r7, #16385	; 0x4001
 8006fa2:	42ba      	cmp	r2, r7
 8006fa4:	d02d      	beq.n	8007002 <HAL_TIM_OnePulse_ConfigChannel+0x1f2>
 8006fa6:	f44f 4780 	mov.w	r7, #16384	; 0x4000
 8006faa:	f2c4 0701 	movt	r7, #16385	; 0x4001
 8006fae:	42ba      	cmp	r2, r7
 8006fb0:	d027      	beq.n	8007002 <HAL_TIM_OnePulse_ConfigChannel+0x1f2>
 8006fb2:	f44f 57c0 	mov.w	r7, #6144	; 0x1800
 8006fb6:	f2c4 0700 	movt	r7, #16384	; 0x4000
 8006fba:	42ba      	cmp	r2, r7
 8006fbc:	d021      	beq.n	8007002 <HAL_TIM_OnePulse_ConfigChannel+0x1f2>
 8006fbe:	f046 0501 	orr.w	r5, r6, #1
 8006fc2:	e021      	b.n	8007008 <HAL_TIM_OnePulse_ConfigChannel+0x1f8>
 8006fc4:	2001      	movs	r0, #1
 8006fc6:	4770      	bx	lr
 8006fc8:	f020 0080 	bic.w	r0, r0, #128	; 0x80
 8006fcc:	ea40 100e 	orr.w	r0, r0, lr, lsl #4
 8006fd0:	f429 6940 	bic.w	r9, r9, #3072	; 0xc00
 8006fd4:	ea45 050c 	orr.w	r5, r5, ip
 8006fd8:	f020 0040 	bic.w	r0, r0, #64	; 0x40
 8006fdc:	ea49 0985 	orr.w	r9, r9, r5, lsl #2
 8006fe0:	e75a      	b.n	8006e98 <HAL_TIM_OnePulse_ConfigChannel+0x88>
 8006fe2:	f020 0008 	bic.w	r0, r0, #8
 8006fe6:	ea4e 0000 	orr.w	r0, lr, r0
 8006fea:	f429 7940 	bic.w	r9, r9, #768	; 0x300
 8006fee:	ea45 050c 	orr.w	r5, r5, ip
 8006ff2:	f020 0004 	bic.w	r0, r0, #4
 8006ff6:	ea45 0909 	orr.w	r9, r5, r9
 8006ffa:	e7a4      	b.n	8006f46 <HAL_TIM_OnePulse_ConfigChannel+0x136>
 8006ffc:	2002      	movs	r0, #2
 8006ffe:	e8bd 87f0 	ldmia.w	sp!, {r4, r5, r6, r7, r8, r9, sl, pc}
 8007002:	f026 0603 	bic.w	r6, r6, #3
 8007006:	4335      	orrs	r5, r6
 8007008:	011b      	lsls	r3, r3, #4
 800700a:	f021 060a 	bic.w	r6, r1, #10
 800700e:	b2db      	uxtb	r3, r3
 8007010:	f025 05f0 	bic.w	r5, r5, #240	; 0xf0
 8007014:	f000 010a 	and.w	r1, r0, #10
 8007018:	432b      	orrs	r3, r5
 800701a:	4331      	orrs	r1, r6
 800701c:	6193      	str	r3, [r2, #24]
 800701e:	6211      	str	r1, [r2, #32]
 8007020:	6993      	ldr	r3, [r2, #24]
 8007022:	f023 030c 	bic.w	r3, r3, #12
 8007026:	6193      	str	r3, [r2, #24]
 8007028:	6893      	ldr	r3, [r2, #8]
 800702a:	f023 0370 	bic.w	r3, r3, #112	; 0x70
 800702e:	6093      	str	r3, [r2, #8]
 8007030:	6893      	ldr	r3, [r2, #8]
 8007032:	f043 0350 	orr.w	r3, r3, #80	; 0x50
 8007036:	e75d      	b.n	8006ef4 <HAL_TIM_OnePulse_ConfigChannel+0xe4>

08007038 <HAL_TIM_DMABurst_WriteStart>:
 8007038:	e92d 41f0 	stmdb	sp!, {r4, r5, r6, r7, r8, lr}
 800703c:	f890 c046 	ldrb.w	ip, [r0, #70]	; 0x46
 8007040:	f8dd 8018 	ldr.w	r8, [sp, #24]
 8007044:	f1bc 0f02 	cmp.w	ip, #2
 8007048:	4605      	mov	r5, r0
 800704a:	fa5f f08c 	uxtb.w	r0, ip
 800704e:	d049      	beq.n	80070e4 <HAL_TIM_DMABurst_WriteStart+0xac>
 8007050:	4614      	mov	r4, r2
 8007052:	f895 2046 	ldrb.w	r2, [r5, #70]	; 0x46
 8007056:	ea4f 2718 	mov.w	r7, r8, lsr #8
 800705a:	2a01      	cmp	r2, #1
 800705c:	460e      	mov	r6, r1
 800705e:	4619      	mov	r1, r3
 8007060:	f107 0301 	add.w	r3, r7, #1
 8007064:	d056      	beq.n	8007114 <HAL_TIM_DMABurst_WriteStart+0xdc>
 8007066:	f5b4 6f00 	cmp.w	r4, #2048	; 0x800
 800706a:	d05b      	beq.n	8007124 <HAL_TIM_DMABurst_WriteStart+0xec>
 800706c:	d824      	bhi.n	80070b8 <HAL_TIM_DMABurst_WriteStart+0x80>
 800706e:	f5b4 7f00 	cmp.w	r4, #512	; 0x200
 8007072:	d067      	beq.n	8007144 <HAL_TIM_DMABurst_WriteStart+0x10c>
 8007074:	f5b4 6f80 	cmp.w	r4, #1024	; 0x400
 8007078:	d13d      	bne.n	80070f6 <HAL_TIM_DMABurst_WriteStart+0xbe>
 800707a:	6aa8      	ldr	r0, [r5, #40]	; 0x28
 800707c:	f647 37d5 	movw	r7, #31701	; 0x7bd5
 8007080:	f6c0 0700 	movt	r7, #2048	; 0x800
 8007084:	682a      	ldr	r2, [r5, #0]
 8007086:	63c7      	str	r7, [r0, #60]	; 0x3c
 8007088:	f647 475d 	movw	r7, #31837	; 0x7c5d
 800708c:	f6c0 0700 	movt	r7, #2048	; 0x800
 8007090:	6407      	str	r7, [r0, #64]	; 0x40
 8007092:	f647 673d 	movw	r7, #32317	; 0x7e3d
 8007096:	f6c0 0700 	movt	r7, #2048	; 0x800
 800709a:	64c7      	str	r7, [r0, #76]	; 0x4c
 800709c:	324c      	adds	r2, #76	; 0x4c
 800709e:	f7fa fbe1 	bl	8001864 <HAL_DMA_Start_IT>
 80070a2:	b9f0      	cbnz	r0, 80070e2 <HAL_TIM_DMABurst_WriteStart+0xaa>
 80070a4:	682b      	ldr	r3, [r5, #0]
 80070a6:	ea48 0606 	orr.w	r6, r8, r6
 80070aa:	649e      	str	r6, [r3, #72]	; 0x48
 80070ac:	68da      	ldr	r2, [r3, #12]
 80070ae:	4314      	orrs	r4, r2
 80070b0:	60dc      	str	r4, [r3, #12]
 80070b2:	2000      	movs	r0, #0
 80070b4:	e8bd 81f0 	ldmia.w	sp!, {r4, r5, r6, r7, r8, pc}
 80070b8:	f5b4 5f00 	cmp.w	r4, #8192	; 0x2000
 80070bc:	d036      	beq.n	800712c <HAL_TIM_DMABurst_WriteStart+0xf4>
 80070be:	f5b4 4f80 	cmp.w	r4, #16384	; 0x4000
 80070c2:	d111      	bne.n	80070e8 <HAL_TIM_DMABurst_WriteStart+0xb0>
 80070c4:	6ba8      	ldr	r0, [r5, #56]	; 0x38
 80070c6:	682a      	ldr	r2, [r5, #0]
 80070c8:	f647 6711 	movw	r7, #32273	; 0x7e11
 80070cc:	f6c0 0700 	movt	r7, #2048	; 0x800
 80070d0:	63c7      	str	r7, [r0, #60]	; 0x3c
 80070d2:	f647 672d 	movw	r7, #32301	; 0x7e2d
 80070d6:	f6c0 0700 	movt	r7, #2048	; 0x800
 80070da:	e7d9      	b.n	8007090 <HAL_TIM_DMABurst_WriteStart+0x58>
 80070dc:	f1b8 0f00 	cmp.w	r8, #0
 80070e0:	d01a      	beq.n	8007118 <HAL_TIM_DMABurst_WriteStart+0xe0>
 80070e2:	2001      	movs	r0, #1
 80070e4:	e8bd 81f0 	ldmia.w	sp!, {r4, r5, r6, r7, r8, pc}
 80070e8:	f5b4 5f80 	cmp.w	r4, #4096	; 0x1000
 80070ec:	d1f9      	bne.n	80070e2 <HAL_TIM_DMABurst_WriteStart+0xaa>
 80070ee:	6b28      	ldr	r0, [r5, #48]	; 0x30
 80070f0:	f647 37d5 	movw	r7, #31701	; 0x7bd5
 80070f4:	e7c4      	b.n	8007080 <HAL_TIM_DMABurst_WriteStart+0x48>
 80070f6:	f5b4 7f80 	cmp.w	r4, #256	; 0x100
 80070fa:	d1f2      	bne.n	80070e2 <HAL_TIM_DMABurst_WriteStart+0xaa>
 80070fc:	6a28      	ldr	r0, [r5, #32]
 80070fe:	682a      	ldr	r2, [r5, #0]
 8007100:	f647 27ad 	movw	r7, #31405	; 0x7aad
 8007104:	f6c0 0700 	movt	r7, #2048	; 0x800
 8007108:	63c7      	str	r7, [r0, #60]	; 0x3c
 800710a:	f647 27c9 	movw	r7, #31433	; 0x7ac9
 800710e:	f6c0 0700 	movt	r7, #2048	; 0x800
 8007112:	e7bd      	b.n	8007090 <HAL_TIM_DMABurst_WriteStart+0x58>
 8007114:	2900      	cmp	r1, #0
 8007116:	d0e1      	beq.n	80070dc <HAL_TIM_DMABurst_WriteStart+0xa4>
 8007118:	2202      	movs	r2, #2
 800711a:	f5b4 6f00 	cmp.w	r4, #2048	; 0x800
 800711e:	f885 2046 	strb.w	r2, [r5, #70]	; 0x46
 8007122:	d1a3      	bne.n	800706c <HAL_TIM_DMABurst_WriteStart+0x34>
 8007124:	6ae8      	ldr	r0, [r5, #44]	; 0x2c
 8007126:	f647 37d5 	movw	r7, #31701	; 0x7bd5
 800712a:	e7a9      	b.n	8007080 <HAL_TIM_DMABurst_WriteStart+0x48>
 800712c:	6b68      	ldr	r0, [r5, #52]	; 0x34
 800712e:	682a      	ldr	r2, [r5, #0]
 8007130:	f249 7729 	movw	r7, #38697	; 0x9729
 8007134:	f6c0 0700 	movt	r7, #2048	; 0x800
 8007138:	63c7      	str	r7, [r0, #60]	; 0x3c
 800713a:	f249 773d 	movw	r7, #38717	; 0x973d
 800713e:	f6c0 0700 	movt	r7, #2048	; 0x800
 8007142:	e7a5      	b.n	8007090 <HAL_TIM_DMABurst_WriteStart+0x58>
 8007144:	6a68      	ldr	r0, [r5, #36]	; 0x24
 8007146:	f647 37d5 	movw	r7, #31701	; 0x7bd5
 800714a:	e799      	b.n	8007080 <HAL_TIM_DMABurst_WriteStart+0x48>

0800714c <HAL_TIM_DMABurst_MultiWriteStart>:
 800714c:	b5f8      	push	{r3, r4, r5, r6, r7, lr}
 800714e:	f890 5046 	ldrb.w	r5, [r0, #70]	; 0x46
 8007152:	2d02      	cmp	r5, #2
 8007154:	4606      	mov	r6, r0
 8007156:	b2e8      	uxtb	r0, r5
 8007158:	d030      	beq.n	80071bc <HAL_TIM_DMABurst_MultiWriteStart+0x70>
 800715a:	4614      	mov	r4, r2
 800715c:	f896 2046 	ldrb.w	r2, [r6, #70]	; 0x46
 8007160:	2a01      	cmp	r2, #1
 8007162:	460f      	mov	r7, r1
 8007164:	4619      	mov	r1, r3
 8007166:	d05e      	beq.n	8007226 <HAL_TIM_DMABurst_MultiWriteStart+0xda>
 8007168:	f5b4 6f00 	cmp.w	r4, #2048	; 0x800
 800716c:	d063      	beq.n	8007236 <HAL_TIM_DMABurst_MultiWriteStart+0xea>
 800716e:	d826      	bhi.n	80071be <HAL_TIM_DMABurst_MultiWriteStart+0x72>
 8007170:	f5b4 7f00 	cmp.w	r4, #512	; 0x200
 8007174:	d06b      	beq.n	800724e <HAL_TIM_DMABurst_MultiWriteStart+0x102>
 8007176:	f5b4 6f80 	cmp.w	r4, #1024	; 0x400
 800717a:	d145      	bne.n	8007208 <HAL_TIM_DMABurst_MultiWriteStart+0xbc>
 800717c:	f647 32d5 	movw	r2, #31701	; 0x7bd5
 8007180:	f647 455d 	movw	r5, #31837	; 0x7c5d
 8007184:	6ab0      	ldr	r0, [r6, #40]	; 0x28
 8007186:	f8d6 c000 	ldr.w	ip, [r6]
 800718a:	f6c0 0200 	movt	r2, #2048	; 0x800
 800718e:	f6c0 0500 	movt	r5, #2048	; 0x800
 8007192:	f647 633d 	movw	r3, #32317	; 0x7e3d
 8007196:	f6c0 0300 	movt	r3, #2048	; 0x800
 800719a:	63c2      	str	r2, [r0, #60]	; 0x3c
 800719c:	64c3      	str	r3, [r0, #76]	; 0x4c
 800719e:	6405      	str	r5, [r0, #64]	; 0x40
 80071a0:	9b07      	ldr	r3, [sp, #28]
 80071a2:	f10c 024c 	add.w	r2, ip, #76	; 0x4c
 80071a6:	f7fa fb5d 	bl	8001864 <HAL_DMA_Start_IT>
 80071aa:	b9e0      	cbnz	r0, 80071e6 <HAL_TIM_DMABurst_MultiWriteStart+0x9a>
 80071ac:	9a06      	ldr	r2, [sp, #24]
 80071ae:	6833      	ldr	r3, [r6, #0]
 80071b0:	4317      	orrs	r7, r2
 80071b2:	649f      	str	r7, [r3, #72]	; 0x48
 80071b4:	68da      	ldr	r2, [r3, #12]
 80071b6:	4314      	orrs	r4, r2
 80071b8:	60dc      	str	r4, [r3, #12]
 80071ba:	2000      	movs	r0, #0
 80071bc:	bdf8      	pop	{r3, r4, r5, r6, r7, pc}
 80071be:	f5b4 5f00 	cmp.w	r4, #8192	; 0x2000
 80071c2:	d050      	beq.n	8007266 <HAL_TIM_DMABurst_MultiWriteStart+0x11a>
 80071c4:	f5b4 4f80 	cmp.w	r4, #16384	; 0x4000
 80071c8:	d10f      	bne.n	80071ea <HAL_TIM_DMABurst_MultiWriteStart+0x9e>
 80071ca:	f647 6211 	movw	r2, #32273	; 0x7e11
 80071ce:	f647 652d 	movw	r5, #32301	; 0x7e2d
 80071d2:	6bb0      	ldr	r0, [r6, #56]	; 0x38
 80071d4:	f8d6 c000 	ldr.w	ip, [r6]
 80071d8:	f6c0 0200 	movt	r2, #2048	; 0x800
 80071dc:	f6c0 0500 	movt	r5, #2048	; 0x800
 80071e0:	e7d7      	b.n	8007192 <HAL_TIM_DMABurst_MultiWriteStart+0x46>
 80071e2:	9b06      	ldr	r3, [sp, #24]
 80071e4:	b30b      	cbz	r3, 800722a <HAL_TIM_DMABurst_MultiWriteStart+0xde>
 80071e6:	2001      	movs	r0, #1
 80071e8:	bdf8      	pop	{r3, r4, r5, r6, r7, pc}
 80071ea:	f5b4 5f80 	cmp.w	r4, #4096	; 0x1000
 80071ee:	d1fa      	bne.n	80071e6 <HAL_TIM_DMABurst_MultiWriteStart+0x9a>
 80071f0:	f647 32d5 	movw	r2, #31701	; 0x7bd5
 80071f4:	f647 455d 	movw	r5, #31837	; 0x7c5d
 80071f8:	6b30      	ldr	r0, [r6, #48]	; 0x30
 80071fa:	f8d6 c000 	ldr.w	ip, [r6]
 80071fe:	f6c0 0200 	movt	r2, #2048	; 0x800
 8007202:	f6c0 0500 	movt	r5, #2048	; 0x800
 8007206:	e7c4      	b.n	8007192 <HAL_TIM_DMABurst_MultiWriteStart+0x46>
 8007208:	f5b4 7f80 	cmp.w	r4, #256	; 0x100
 800720c:	d1eb      	bne.n	80071e6 <HAL_TIM_DMABurst_MultiWriteStart+0x9a>
 800720e:	f647 22ad 	movw	r2, #31405	; 0x7aad
 8007212:	f647 25c9 	movw	r5, #31433	; 0x7ac9
 8007216:	6a30      	ldr	r0, [r6, #32]
 8007218:	f8d6 c000 	ldr.w	ip, [r6]
 800721c:	f6c0 0200 	movt	r2, #2048	; 0x800
 8007220:	f6c0 0500 	movt	r5, #2048	; 0x800
 8007224:	e7b5      	b.n	8007192 <HAL_TIM_DMABurst_MultiWriteStart+0x46>
 8007226:	2b00      	cmp	r3, #0
 8007228:	d0db      	beq.n	80071e2 <HAL_TIM_DMABurst_MultiWriteStart+0x96>
 800722a:	2202      	movs	r2, #2
 800722c:	f5b4 6f00 	cmp.w	r4, #2048	; 0x800
 8007230:	f886 2046 	strb.w	r2, [r6, #70]	; 0x46
 8007234:	d19b      	bne.n	800716e <HAL_TIM_DMABurst_MultiWriteStart+0x22>
 8007236:	f647 32d5 	movw	r2, #31701	; 0x7bd5
 800723a:	f647 455d 	movw	r5, #31837	; 0x7c5d
 800723e:	6af0      	ldr	r0, [r6, #44]	; 0x2c
 8007240:	f8d6 c000 	ldr.w	ip, [r6]
 8007244:	f6c0 0200 	movt	r2, #2048	; 0x800
 8007248:	f6c0 0500 	movt	r5, #2048	; 0x800
 800724c:	e7a1      	b.n	8007192 <HAL_TIM_DMABurst_MultiWriteStart+0x46>
 800724e:	f647 32d5 	movw	r2, #31701	; 0x7bd5
 8007252:	f647 455d 	movw	r5, #31837	; 0x7c5d
 8007256:	6a70      	ldr	r0, [r6, #36]	; 0x24
 8007258:	f8d6 c000 	ldr.w	ip, [r6]
 800725c:	f6c0 0200 	movt	r2, #2048	; 0x800
 8007260:	f6c0 0500 	movt	r5, #2048	; 0x800
 8007264:	e795      	b.n	8007192 <HAL_TIM_DMABurst_MultiWriteStart+0x46>
 8007266:	f249 7229 	movw	r2, #38697	; 0x9729
 800726a:	f249 753d 	movw	r5, #38717	; 0x973d
 800726e:	6b70      	ldr	r0, [r6, #52]	; 0x34
 8007270:	f8d6 c000 	ldr.w	ip, [r6]
 8007274:	f6c0 0200 	movt	r2, #2048	; 0x800
 8007278:	f6c0 0500 	movt	r5, #2048	; 0x800
 800727c:	e789      	b.n	8007192 <HAL_TIM_DMABurst_MultiWriteStart+0x46>
 800727e:	bf00      	nop

08007280 <HAL_TIM_DMABurst_WriteStop>:
 8007280:	f5b1 6f00 	cmp.w	r1, #2048	; 0x800
 8007284:	b538      	push	{r3, r4, r5, lr}
 8007286:	460c      	mov	r4, r1
 8007288:	4605      	mov	r5, r0
 800728a:	d035      	beq.n	80072f8 <HAL_TIM_DMABurst_WriteStop+0x78>
 800728c:	d819      	bhi.n	80072c2 <HAL_TIM_DMABurst_WriteStop+0x42>
 800728e:	f5b1 7f00 	cmp.w	r1, #512	; 0x200
 8007292:	d029      	beq.n	80072e8 <HAL_TIM_DMABurst_WriteStop+0x68>
 8007294:	f5b1 6f80 	cmp.w	r1, #1024	; 0x400
 8007298:	d10c      	bne.n	80072b4 <HAL_TIM_DMABurst_WriteStop+0x34>
 800729a:	6a80      	ldr	r0, [r0, #40]	; 0x28
 800729c:	f7fa fb68 	bl	8001970 <HAL_DMA_Abort_IT>
 80072a0:	682b      	ldr	r3, [r5, #0]
 80072a2:	68d9      	ldr	r1, [r3, #12]
 80072a4:	2201      	movs	r2, #1
 80072a6:	ea21 0404 	bic.w	r4, r1, r4
 80072aa:	60dc      	str	r4, [r3, #12]
 80072ac:	f885 2046 	strb.w	r2, [r5, #70]	; 0x46
 80072b0:	2000      	movs	r0, #0
 80072b2:	bd38      	pop	{r3, r4, r5, pc}
 80072b4:	f5b1 7f80 	cmp.w	r1, #256	; 0x100
 80072b8:	d114      	bne.n	80072e4 <HAL_TIM_DMABurst_WriteStop+0x64>
 80072ba:	6a00      	ldr	r0, [r0, #32]
 80072bc:	f7fa fb58 	bl	8001970 <HAL_DMA_Abort_IT>
 80072c0:	e7ee      	b.n	80072a0 <HAL_TIM_DMABurst_WriteStop+0x20>
 80072c2:	f5b1 5f00 	cmp.w	r1, #8192	; 0x2000
 80072c6:	d013      	beq.n	80072f0 <HAL_TIM_DMABurst_WriteStop+0x70>
 80072c8:	f5b1 4f80 	cmp.w	r1, #16384	; 0x4000
 80072cc:	d103      	bne.n	80072d6 <HAL_TIM_DMABurst_WriteStop+0x56>
 80072ce:	6b80      	ldr	r0, [r0, #56]	; 0x38
 80072d0:	f7fa fb4e 	bl	8001970 <HAL_DMA_Abort_IT>
 80072d4:	e7e4      	b.n	80072a0 <HAL_TIM_DMABurst_WriteStop+0x20>
 80072d6:	f5b1 5f80 	cmp.w	r1, #4096	; 0x1000
 80072da:	d103      	bne.n	80072e4 <HAL_TIM_DMABurst_WriteStop+0x64>
 80072dc:	6b00      	ldr	r0, [r0, #48]	; 0x30
 80072de:	f7fa fb47 	bl	8001970 <HAL_DMA_Abort_IT>
 80072e2:	e7dd      	b.n	80072a0 <HAL_TIM_DMABurst_WriteStop+0x20>
 80072e4:	2001      	movs	r0, #1
 80072e6:	bd38      	pop	{r3, r4, r5, pc}
 80072e8:	6a40      	ldr	r0, [r0, #36]	; 0x24
 80072ea:	f7fa fb41 	bl	8001970 <HAL_DMA_Abort_IT>
 80072ee:	e7d7      	b.n	80072a0 <HAL_TIM_DMABurst_WriteStop+0x20>
 80072f0:	6b40      	ldr	r0, [r0, #52]	; 0x34
 80072f2:	f7fa fb3d 	bl	8001970 <HAL_DMA_Abort_IT>
 80072f6:	e7d3      	b.n	80072a0 <HAL_TIM_DMABurst_WriteStop+0x20>
 80072f8:	6ac0      	ldr	r0, [r0, #44]	; 0x2c
 80072fa:	f7fa fb39 	bl	8001970 <HAL_DMA_Abort_IT>
 80072fe:	e7cf      	b.n	80072a0 <HAL_TIM_DMABurst_WriteStop+0x20>

08007300 <HAL_TIM_DMABurst_ReadStart>:
 8007300:	e92d 41f0 	stmdb	sp!, {r4, r5, r6, r7, r8, lr}
 8007304:	f890 c046 	ldrb.w	ip, [r0, #70]	; 0x46
 8007308:	f8dd 8018 	ldr.w	r8, [sp, #24]
 800730c:	f1bc 0f02 	cmp.w	ip, #2
 8007310:	4605      	mov	r5, r0
 8007312:	fa5f f08c 	uxtb.w	r0, ip
 8007316:	d049      	beq.n	80073ac <HAL_TIM_DMABurst_ReadStart+0xac>
 8007318:	460e      	mov	r6, r1
 800731a:	f895 1046 	ldrb.w	r1, [r5, #70]	; 0x46
 800731e:	ea4f 2718 	mov.w	r7, r8, lsr #8
 8007322:	2901      	cmp	r1, #1
 8007324:	4614      	mov	r4, r2
 8007326:	461a      	mov	r2, r3
 8007328:	f107 0301 	add.w	r3, r7, #1
 800732c:	d056      	beq.n	80073dc <HAL_TIM_DMABurst_ReadStart+0xdc>
 800732e:	f5b4 6f00 	cmp.w	r4, #2048	; 0x800
 8007332:	d05b      	beq.n	80073ec <HAL_TIM_DMABurst_ReadStart+0xec>
 8007334:	d824      	bhi.n	8007380 <HAL_TIM_DMABurst_ReadStart+0x80>
 8007336:	f5b4 7f00 	cmp.w	r4, #512	; 0x200
 800733a:	d067      	beq.n	800740c <HAL_TIM_DMABurst_ReadStart+0x10c>
 800733c:	f5b4 6f80 	cmp.w	r4, #1024	; 0x400
 8007340:	d13d      	bne.n	80073be <HAL_TIM_DMABurst_ReadStart+0xbe>
 8007342:	6aa8      	ldr	r0, [r5, #40]	; 0x28
 8007344:	f647 27dd 	movw	r7, #31453	; 0x7add
 8007348:	f6c0 0700 	movt	r7, #2048	; 0x800
 800734c:	6829      	ldr	r1, [r5, #0]
 800734e:	63c7      	str	r7, [r0, #60]	; 0x3c
 8007350:	f647 3775 	movw	r7, #31605	; 0x7b75
 8007354:	f6c0 0700 	movt	r7, #2048	; 0x800
 8007358:	6407      	str	r7, [r0, #64]	; 0x40
 800735a:	f647 673d 	movw	r7, #32317	; 0x7e3d
 800735e:	f6c0 0700 	movt	r7, #2048	; 0x800
 8007362:	64c7      	str	r7, [r0, #76]	; 0x4c
 8007364:	314c      	adds	r1, #76	; 0x4c
 8007366:	f7fa fa7d 	bl	8001864 <HAL_DMA_Start_IT>
 800736a:	b9f0      	cbnz	r0, 80073aa <HAL_TIM_DMABurst_ReadStart+0xaa>
 800736c:	682b      	ldr	r3, [r5, #0]
 800736e:	ea48 0606 	orr.w	r6, r8, r6
 8007372:	649e      	str	r6, [r3, #72]	; 0x48
 8007374:	68da      	ldr	r2, [r3, #12]
 8007376:	4314      	orrs	r4, r2
 8007378:	60dc      	str	r4, [r3, #12]
 800737a:	2000      	movs	r0, #0
 800737c:	e8bd 81f0 	ldmia.w	sp!, {r4, r5, r6, r7, r8, pc}
 8007380:	f5b4 5f00 	cmp.w	r4, #8192	; 0x2000
 8007384:	d036      	beq.n	80073f4 <HAL_TIM_DMABurst_ReadStart+0xf4>
 8007386:	f5b4 4f80 	cmp.w	r4, #16384	; 0x4000
 800738a:	d111      	bne.n	80073b0 <HAL_TIM_DMABurst_ReadStart+0xb0>
 800738c:	6ba8      	ldr	r0, [r5, #56]	; 0x38
 800738e:	6829      	ldr	r1, [r5, #0]
 8007390:	f647 6711 	movw	r7, #32273	; 0x7e11
 8007394:	f6c0 0700 	movt	r7, #2048	; 0x800
 8007398:	63c7      	str	r7, [r0, #60]	; 0x3c
 800739a:	f647 672d 	movw	r7, #32301	; 0x7e2d
 800739e:	f6c0 0700 	movt	r7, #2048	; 0x800
 80073a2:	e7d9      	b.n	8007358 <HAL_TIM_DMABurst_ReadStart+0x58>
 80073a4:	f1b8 0f00 	cmp.w	r8, #0
 80073a8:	d01a      	beq.n	80073e0 <HAL_TIM_DMABurst_ReadStart+0xe0>
 80073aa:	2001      	movs	r0, #1
 80073ac:	e8bd 81f0 	ldmia.w	sp!, {r4, r5, r6, r7, r8, pc}
 80073b0:	f5b4 5f80 	cmp.w	r4, #4096	; 0x1000
 80073b4:	d1f9      	bne.n	80073aa <HAL_TIM_DMABurst_ReadStart+0xaa>
 80073b6:	6b28      	ldr	r0, [r5, #48]	; 0x30
 80073b8:	f647 27dd 	movw	r7, #31453	; 0x7add
 80073bc:	e7c4      	b.n	8007348 <HAL_TIM_DMABurst_ReadStart+0x48>
 80073be:	f5b4 7f80 	cmp.w	r4, #256	; 0x100
 80073c2:	d1f2      	bne.n	80073aa <HAL_TIM_DMABurst_ReadStart+0xaa>
 80073c4:	6a28      	ldr	r0, [r5, #32]
 80073c6:	6829      	ldr	r1, [r5, #0]
 80073c8:	f647 27ad 	movw	r7, #31405	; 0x7aad
 80073cc:	f6c0 0700 	movt	r7, #2048	; 0x800
 80073d0:	63c7      	str	r7, [r0, #60]	; 0x3c
 80073d2:	f647 27c9 	movw	r7, #31433	; 0x7ac9
 80073d6:	f6c0 0700 	movt	r7, #2048	; 0x800
 80073da:	e7bd      	b.n	8007358 <HAL_TIM_DMABurst_ReadStart+0x58>
 80073dc:	2a00      	cmp	r2, #0
 80073de:	d0e1      	beq.n	80073a4 <HAL_TIM_DMABurst_ReadStart+0xa4>
 80073e0:	2102      	movs	r1, #2
 80073e2:	f5b4 6f00 	cmp.w	r4, #2048	; 0x800
 80073e6:	f885 1046 	strb.w	r1, [r5, #70]	; 0x46
 80073ea:	d1a3      	bne.n	8007334 <HAL_TIM_DMABurst_ReadStart+0x34>
 80073ec:	6ae8      	ldr	r0, [r5, #44]	; 0x2c
 80073ee:	f647 27dd 	movw	r7, #31453	; 0x7add
 80073f2:	e7a9      	b.n	8007348 <HAL_TIM_DMABurst_ReadStart+0x48>
 80073f4:	6b68      	ldr	r0, [r5, #52]	; 0x34
 80073f6:	6829      	ldr	r1, [r5, #0]
 80073f8:	f249 7729 	movw	r7, #38697	; 0x9729
 80073fc:	f6c0 0700 	movt	r7, #2048	; 0x800
 8007400:	63c7      	str	r7, [r0, #60]	; 0x3c
 8007402:	f249 773d 	movw	r7, #38717	; 0x973d
 8007406:	f6c0 0700 	movt	r7, #2048	; 0x800
 800740a:	e7a5      	b.n	8007358 <HAL_TIM_DMABurst_ReadStart+0x58>
 800740c:	6a68      	ldr	r0, [r5, #36]	; 0x24
 800740e:	f647 27dd 	movw	r7, #31453	; 0x7add
 8007412:	e799      	b.n	8007348 <HAL_TIM_DMABurst_ReadStart+0x48>

08007414 <HAL_TIM_DMABurst_MultiReadStart>:
 8007414:	b5f8      	push	{r3, r4, r5, r6, r7, lr}
 8007416:	f890 5046 	ldrb.w	r5, [r0, #70]	; 0x46
 800741a:	2d02      	cmp	r5, #2
 800741c:	4606      	mov	r6, r0
 800741e:	b2e8      	uxtb	r0, r5
 8007420:	d030      	beq.n	8007484 <HAL_TIM_DMABurst_MultiReadStart+0x70>
 8007422:	4614      	mov	r4, r2
 8007424:	f896 2046 	ldrb.w	r2, [r6, #70]	; 0x46
 8007428:	2a01      	cmp	r2, #1
 800742a:	460f      	mov	r7, r1
 800742c:	d05f      	beq.n	80074ee <HAL_TIM_DMABurst_MultiReadStart+0xda>
 800742e:	f5b4 6f00 	cmp.w	r4, #2048	; 0x800
 8007432:	d064      	beq.n	80074fe <HAL_TIM_DMABurst_MultiReadStart+0xea>
 8007434:	d827      	bhi.n	8007486 <HAL_TIM_DMABurst_MultiReadStart+0x72>
 8007436:	f5b4 7f00 	cmp.w	r4, #512	; 0x200
 800743a:	d06c      	beq.n	8007516 <HAL_TIM_DMABurst_MultiReadStart+0x102>
 800743c:	f5b4 6f80 	cmp.w	r4, #1024	; 0x400
 8007440:	d146      	bne.n	80074d0 <HAL_TIM_DMABurst_MultiReadStart+0xbc>
 8007442:	f647 21dd 	movw	r1, #31453	; 0x7add
 8007446:	f647 3575 	movw	r5, #31605	; 0x7b75
 800744a:	6ab0      	ldr	r0, [r6, #40]	; 0x28
 800744c:	f8d6 c000 	ldr.w	ip, [r6]
 8007450:	f6c0 0100 	movt	r1, #2048	; 0x800
 8007454:	f6c0 0500 	movt	r5, #2048	; 0x800
 8007458:	461a      	mov	r2, r3
 800745a:	f647 633d 	movw	r3, #32317	; 0x7e3d
 800745e:	f6c0 0300 	movt	r3, #2048	; 0x800
 8007462:	63c1      	str	r1, [r0, #60]	; 0x3c
 8007464:	64c3      	str	r3, [r0, #76]	; 0x4c
 8007466:	6405      	str	r5, [r0, #64]	; 0x40
 8007468:	9b07      	ldr	r3, [sp, #28]
 800746a:	f10c 014c 	add.w	r1, ip, #76	; 0x4c
 800746e:	f7fa f9f9 	bl	8001864 <HAL_DMA_Start_IT>
 8007472:	b9e0      	cbnz	r0, 80074ae <HAL_TIM_DMABurst_MultiReadStart+0x9a>
 8007474:	9a06      	ldr	r2, [sp, #24]
 8007476:	6833      	ldr	r3, [r6, #0]
 8007478:	4317      	orrs	r7, r2
 800747a:	649f      	str	r7, [r3, #72]	; 0x48
 800747c:	68da      	ldr	r2, [r3, #12]
 800747e:	4314      	orrs	r4, r2
 8007480:	60dc      	str	r4, [r3, #12]
 8007482:	2000      	movs	r0, #0
 8007484:	bdf8      	pop	{r3, r4, r5, r6, r7, pc}
 8007486:	f5b4 5f00 	cmp.w	r4, #8192	; 0x2000
 800748a:	d050      	beq.n	800752e <HAL_TIM_DMABurst_MultiReadStart+0x11a>
 800748c:	f5b4 4f80 	cmp.w	r4, #16384	; 0x4000
 8007490:	d10f      	bne.n	80074b2 <HAL_TIM_DMABurst_MultiReadStart+0x9e>
 8007492:	f647 6111 	movw	r1, #32273	; 0x7e11
 8007496:	f647 652d 	movw	r5, #32301	; 0x7e2d
 800749a:	6bb0      	ldr	r0, [r6, #56]	; 0x38
 800749c:	f8d6 c000 	ldr.w	ip, [r6]
 80074a0:	f6c0 0100 	movt	r1, #2048	; 0x800
 80074a4:	f6c0 0500 	movt	r5, #2048	; 0x800
 80074a8:	e7d6      	b.n	8007458 <HAL_TIM_DMABurst_MultiReadStart+0x44>
 80074aa:	9a06      	ldr	r2, [sp, #24]
 80074ac:	b30a      	cbz	r2, 80074f2 <HAL_TIM_DMABurst_MultiReadStart+0xde>
 80074ae:	2001      	movs	r0, #1
 80074b0:	bdf8      	pop	{r3, r4, r5, r6, r7, pc}
 80074b2:	f5b4 5f80 	cmp.w	r4, #4096	; 0x1000
 80074b6:	d1fa      	bne.n	80074ae <HAL_TIM_DMABurst_MultiReadStart+0x9a>
 80074b8:	f647 21dd 	movw	r1, #31453	; 0x7add
 80074bc:	f647 3575 	movw	r5, #31605	; 0x7b75
 80074c0:	6b30      	ldr	r0, [r6, #48]	; 0x30
 80074c2:	f8d6 c000 	ldr.w	ip, [r6]
 80074c6:	f6c0 0100 	movt	r1, #2048	; 0x800
 80074ca:	f6c0 0500 	movt	r5, #2048	; 0x800
 80074ce:	e7c3      	b.n	8007458 <HAL_TIM_DMABurst_MultiReadStart+0x44>
 80074d0:	f5b4 7f80 	cmp.w	r4, #256	; 0x100
 80074d4:	d1eb      	bne.n	80074ae <HAL_TIM_DMABurst_MultiReadStart+0x9a>
 80074d6:	f647 21ad 	movw	r1, #31405	; 0x7aad
 80074da:	f647 25c9 	movw	r5, #31433	; 0x7ac9
 80074de:	6a30      	ldr	r0, [r6, #32]
 80074e0:	f8d6 c000 	ldr.w	ip, [r6]
 80074e4:	f6c0 0100 	movt	r1, #2048	; 0x800
 80074e8:	f6c0 0500 	movt	r5, #2048	; 0x800
 80074ec:	e7b4      	b.n	8007458 <HAL_TIM_DMABurst_MultiReadStart+0x44>
 80074ee:	2b00      	cmp	r3, #0
 80074f0:	d0db      	beq.n	80074aa <HAL_TIM_DMABurst_MultiReadStart+0x96>
 80074f2:	2202      	movs	r2, #2
 80074f4:	f5b4 6f00 	cmp.w	r4, #2048	; 0x800
 80074f8:	f886 2046 	strb.w	r2, [r6, #70]	; 0x46
 80074fc:	d19a      	bne.n	8007434 <HAL_TIM_DMABurst_MultiReadStart+0x20>
 80074fe:	f647 21dd 	movw	r1, #31453	; 0x7add
 8007502:	f647 3575 	movw	r5, #31605	; 0x7b75
 8007506:	6af0      	ldr	r0, [r6, #44]	; 0x2c
 8007508:	f8d6 c000 	ldr.w	ip, [r6]
 800750c:	f6c0 0100 	movt	r1, #2048	; 0x800
 8007510:	f6c0 0500 	movt	r5, #2048	; 0x800
 8007514:	e7a0      	b.n	8007458 <HAL_TIM_DMABurst_MultiReadStart+0x44>
 8007516:	f647 21dd 	movw	r1, #31453	; 0x7add
 800751a:	f647 3575 	movw	r5, #31605	; 0x7b75
 800751e:	6a70      	ldr	r0, [r6, #36]	; 0x24
 8007520:	f8d6 c000 	ldr.w	ip, [r6]
 8007524:	f6c0 0100 	movt	r1, #2048	; 0x800
 8007528:	f6c0 0500 	movt	r5, #2048	; 0x800
 800752c:	e794      	b.n	8007458 <HAL_TIM_DMABurst_MultiReadStart+0x44>
 800752e:	f249 7129 	movw	r1, #38697	; 0x9729
 8007532:	f249 753d 	movw	r5, #38717	; 0x973d
 8007536:	6b70      	ldr	r0, [r6, #52]	; 0x34
 8007538:	f8d6 c000 	ldr.w	ip, [r6]
 800753c:	f6c0 0100 	movt	r1, #2048	; 0x800
 8007540:	f6c0 0500 	movt	r5, #2048	; 0x800
 8007544:	e788      	b.n	8007458 <HAL_TIM_DMABurst_MultiReadStart+0x44>
 8007546:	bf00      	nop

08007548 <HAL_TIM_DMABurst_ReadStop>:
 8007548:	f5b1 6f00 	cmp.w	r1, #2048	; 0x800
 800754c:	b538      	push	{r3, r4, r5, lr}
 800754e:	460c      	mov	r4, r1
 8007550:	4605      	mov	r5, r0
 8007552:	d035      	beq.n	80075c0 <HAL_TIM_DMABurst_ReadStop+0x78>
 8007554:	d819      	bhi.n	800758a <HAL_TIM_DMABurst_ReadStop+0x42>
 8007556:	f5b1 7f00 	cmp.w	r1, #512	; 0x200
 800755a:	d029      	beq.n	80075b0 <HAL_TIM_DMABurst_ReadStop+0x68>
 800755c:	f5b1 6f80 	cmp.w	r1, #1024	; 0x400
 8007560:	d10c      	bne.n	800757c <HAL_TIM_DMABurst_ReadStop+0x34>
 8007562:	6a80      	ldr	r0, [r0, #40]	; 0x28
 8007564:	f7fa fa04 	bl	8001970 <HAL_DMA_Abort_IT>
 8007568:	682b      	ldr	r3, [r5, #0]
 800756a:	68d9      	ldr	r1, [r3, #12]
 800756c:	2201      	movs	r2, #1
 800756e:	ea21 0404 	bic.w	r4, r1, r4
 8007572:	60dc      	str	r4, [r3, #12]
 8007574:	f885 2046 	strb.w	r2, [r5, #70]	; 0x46
 8007578:	2000      	movs	r0, #0
 800757a:	bd38      	pop	{r3, r4, r5, pc}
 800757c:	f5b1 7f80 	cmp.w	r1, #256	; 0x100
 8007580:	d114      	bne.n	80075ac <HAL_TIM_DMABurst_ReadStop+0x64>
 8007582:	6a00      	ldr	r0, [r0, #32]
 8007584:	f7fa f9f4 	bl	8001970 <HAL_DMA_Abort_IT>
 8007588:	e7ee      	b.n	8007568 <HAL_TIM_DMABurst_ReadStop+0x20>
 800758a:	f5b1 5f00 	cmp.w	r1, #8192	; 0x2000
 800758e:	d013      	beq.n	80075b8 <HAL_TIM_DMABurst_ReadStop+0x70>
 8007590:	f5b1 4f80 	cmp.w	r1, #16384	; 0x4000
 8007594:	d103      	bne.n	800759e <HAL_TIM_DMABurst_ReadStop+0x56>
 8007596:	6b80      	ldr	r0, [r0, #56]	; 0x38
 8007598:	f7fa f9ea 	bl	8001970 <HAL_DMA_Abort_IT>
 800759c:	e7e4      	b.n	8007568 <HAL_TIM_DMABurst_ReadStop+0x20>
 800759e:	f5b1 5f80 	cmp.w	r1, #4096	; 0x1000
 80075a2:	d103      	bne.n	80075ac <HAL_TIM_DMABurst_ReadStop+0x64>
 80075a4:	6b00      	ldr	r0, [r0, #48]	; 0x30
 80075a6:	f7fa f9e3 	bl	8001970 <HAL_DMA_Abort_IT>
 80075aa:	e7dd      	b.n	8007568 <HAL_TIM_DMABurst_ReadStop+0x20>
 80075ac:	2001      	movs	r0, #1
 80075ae:	bd38      	pop	{r3, r4, r5, pc}
 80075b0:	6a40      	ldr	r0, [r0, #36]	; 0x24
 80075b2:	f7fa f9dd 	bl	8001970 <HAL_DMA_Abort_IT>
 80075b6:	e7d7      	b.n	8007568 <HAL_TIM_DMABurst_ReadStop+0x20>
 80075b8:	6b40      	ldr	r0, [r0, #52]	; 0x34
 80075ba:	f7fa f9d9 	bl	8001970 <HAL_DMA_Abort_IT>
 80075be:	e7d3      	b.n	8007568 <HAL_TIM_DMABurst_ReadStop+0x20>
 80075c0:	6ac0      	ldr	r0, [r0, #44]	; 0x2c
 80075c2:	f7fa f9d5 	bl	8001970 <HAL_DMA_Abort_IT>
 80075c6:	e7cf      	b.n	8007568 <HAL_TIM_DMABurst_ReadStop+0x20>

080075c8 <HAL_TIM_GenerateEvent>:
 80075c8:	f890 203c 	ldrb.w	r2, [r0, #60]	; 0x3c
 80075cc:	2a01      	cmp	r2, #1
 80075ce:	d00f      	beq.n	80075f0 <HAL_TIM_GenerateEvent+0x28>
 80075d0:	b430      	push	{r4, r5}
 80075d2:	4603      	mov	r3, r0
 80075d4:	6800      	ldr	r0, [r0, #0]
 80075d6:	2502      	movs	r5, #2
 80075d8:	2401      	movs	r4, #1
 80075da:	2200      	movs	r2, #0
 80075dc:	f883 503d 	strb.w	r5, [r3, #61]	; 0x3d
 80075e0:	6141      	str	r1, [r0, #20]
 80075e2:	f883 403d 	strb.w	r4, [r3, #61]	; 0x3d
 80075e6:	f883 203c 	strb.w	r2, [r3, #60]	; 0x3c
 80075ea:	4610      	mov	r0, r2
 80075ec:	bc30      	pop	{r4, r5}
 80075ee:	4770      	bx	lr
 80075f0:	2002      	movs	r0, #2
 80075f2:	4770      	bx	lr

080075f4 <HAL_TIM_ConfigOCrefClear>:
 80075f4:	4603      	mov	r3, r0
 80075f6:	f890 003c 	ldrb.w	r0, [r0, #60]	; 0x3c
 80075fa:	2801      	cmp	r0, #1
 80075fc:	d058      	beq.n	80076b0 <HAL_TIM_ConfigOCrefClear+0xbc>
 80075fe:	b470      	push	{r4, r5, r6}
 8007600:	2001      	movs	r0, #1
 8007602:	2402      	movs	r4, #2
 8007604:	f883 003c 	strb.w	r0, [r3, #60]	; 0x3c
 8007608:	f883 403d 	strb.w	r4, [r3, #61]	; 0x3d
 800760c:	684c      	ldr	r4, [r1, #4]
 800760e:	b1b4      	cbz	r4, 800763e <HAL_TIM_ConfigOCrefClear+0x4a>
 8007610:	4284      	cmp	r4, r0
 8007612:	d007      	beq.n	8007624 <HAL_TIM_ConfigOCrefClear+0x30>
 8007614:	2101      	movs	r1, #1
 8007616:	2200      	movs	r2, #0
 8007618:	f883 103d 	strb.w	r1, [r3, #61]	; 0x3d
 800761c:	f883 203c 	strb.w	r2, [r3, #60]	; 0x3c
 8007620:	bc70      	pop	{r4, r5, r6}
 8007622:	4770      	bx	lr
 8007624:	68c8      	ldr	r0, [r1, #12]
 8007626:	b9e0      	cbnz	r0, 8007662 <HAL_TIM_ConfigOCrefClear+0x6e>
 8007628:	681c      	ldr	r4, [r3, #0]
 800762a:	690e      	ldr	r6, [r1, #16]
 800762c:	68a5      	ldr	r5, [r4, #8]
 800762e:	6888      	ldr	r0, [r1, #8]
 8007630:	f425 457f 	bic.w	r5, r5, #65280	; 0xff00
 8007634:	ea40 2006 	orr.w	r0, r0, r6, lsl #8
 8007638:	4328      	orrs	r0, r5
 800763a:	60a0      	str	r0, [r4, #8]
 800763c:	e004      	b.n	8007648 <HAL_TIM_ConfigOCrefClear+0x54>
 800763e:	681c      	ldr	r4, [r3, #0]
 8007640:	68a0      	ldr	r0, [r4, #8]
 8007642:	f420 407f 	bic.w	r0, r0, #65280	; 0xff00
 8007646:	60a0      	str	r0, [r4, #8]
 8007648:	2a0c      	cmp	r2, #12
 800764a:	d808      	bhi.n	800765e <HAL_TIM_ConfigOCrefClear+0x6a>
 800764c:	e8df f002 	tbb	[pc, r2]
 8007650:	07070728 	.word	0x07070728
 8007654:	07070720 	.word	0x07070720
 8007658:	07070718 	.word	0x07070718
 800765c:	10          	.byte	0x10
 800765d:	00          	.byte	0x00
 800765e:	2000      	movs	r0, #0
 8007660:	e7d8      	b.n	8007614 <HAL_TIM_ConfigOCrefClear+0x20>
 8007662:	2200      	movs	r2, #0
 8007664:	f883 403d 	strb.w	r4, [r3, #61]	; 0x3d
 8007668:	4620      	mov	r0, r4
 800766a:	f883 203c 	strb.w	r2, [r3, #60]	; 0x3c
 800766e:	e7d7      	b.n	8007620 <HAL_TIM_ConfigOCrefClear+0x2c>
 8007670:	6808      	ldr	r0, [r1, #0]
 8007672:	69e2      	ldr	r2, [r4, #28]
 8007674:	b350      	cbz	r0, 80076cc <HAL_TIM_ConfigOCrefClear+0xd8>
 8007676:	f442 4200 	orr.w	r2, r2, #32768	; 0x8000
 800767a:	61e2      	str	r2, [r4, #28]
 800767c:	2000      	movs	r0, #0
 800767e:	e7c9      	b.n	8007614 <HAL_TIM_ConfigOCrefClear+0x20>
 8007680:	6808      	ldr	r0, [r1, #0]
 8007682:	69e2      	ldr	r2, [r4, #28]
 8007684:	b1f0      	cbz	r0, 80076c4 <HAL_TIM_ConfigOCrefClear+0xd0>
 8007686:	f042 0280 	orr.w	r2, r2, #128	; 0x80
 800768a:	61e2      	str	r2, [r4, #28]
 800768c:	2000      	movs	r0, #0
 800768e:	e7c1      	b.n	8007614 <HAL_TIM_ConfigOCrefClear+0x20>
 8007690:	6808      	ldr	r0, [r1, #0]
 8007692:	69a2      	ldr	r2, [r4, #24]
 8007694:	b190      	cbz	r0, 80076bc <HAL_TIM_ConfigOCrefClear+0xc8>
 8007696:	f442 4200 	orr.w	r2, r2, #32768	; 0x8000
 800769a:	61a2      	str	r2, [r4, #24]
 800769c:	2000      	movs	r0, #0
 800769e:	e7b9      	b.n	8007614 <HAL_TIM_ConfigOCrefClear+0x20>
 80076a0:	6808      	ldr	r0, [r1, #0]
 80076a2:	69a2      	ldr	r2, [r4, #24]
 80076a4:	b130      	cbz	r0, 80076b4 <HAL_TIM_ConfigOCrefClear+0xc0>
 80076a6:	f042 0280 	orr.w	r2, r2, #128	; 0x80
 80076aa:	61a2      	str	r2, [r4, #24]
 80076ac:	2000      	movs	r0, #0
 80076ae:	e7b1      	b.n	8007614 <HAL_TIM_ConfigOCrefClear+0x20>
 80076b0:	2002      	movs	r0, #2
 80076b2:	4770      	bx	lr
 80076b4:	f022 0280 	bic.w	r2, r2, #128	; 0x80
 80076b8:	61a2      	str	r2, [r4, #24]
 80076ba:	e7ab      	b.n	8007614 <HAL_TIM_ConfigOCrefClear+0x20>
 80076bc:	f422 4200 	bic.w	r2, r2, #32768	; 0x8000
 80076c0:	61a2      	str	r2, [r4, #24]
 80076c2:	e7a7      	b.n	8007614 <HAL_TIM_ConfigOCrefClear+0x20>
 80076c4:	f022 0280 	bic.w	r2, r2, #128	; 0x80
 80076c8:	61e2      	str	r2, [r4, #28]
 80076ca:	e7a3      	b.n	8007614 <HAL_TIM_ConfigOCrefClear+0x20>
 80076cc:	f422 4200 	bic.w	r2, r2, #32768	; 0x8000
 80076d0:	61e2      	str	r2, [r4, #28]
 80076d2:	e79f      	b.n	8007614 <HAL_TIM_ConfigOCrefClear+0x20>

080076d4 <HAL_TIM_ConfigClockSource>:
 80076d4:	f890 303c 	ldrb.w	r3, [r0, #60]	; 0x3c
 80076d8:	2b01      	cmp	r3, #1
 80076da:	d075      	beq.n	80077c8 <HAL_TIM_ConfigClockSource+0xf4>
 80076dc:	4602      	mov	r2, r0
 80076de:	b4f0      	push	{r4, r5, r6, r7}
 80076e0:	2302      	movs	r3, #2
 80076e2:	6814      	ldr	r4, [r2, #0]
 80076e4:	f882 303d 	strb.w	r3, [r2, #61]	; 0x3d
 80076e8:	2001      	movs	r0, #1
 80076ea:	f882 003c 	strb.w	r0, [r2, #60]	; 0x3c
 80076ee:	68a5      	ldr	r5, [r4, #8]
 80076f0:	680b      	ldr	r3, [r1, #0]
 80076f2:	f425 457f 	bic.w	r5, r5, #65280	; 0xff00
 80076f6:	f025 0577 	bic.w	r5, r5, #119	; 0x77
 80076fa:	2b60      	cmp	r3, #96	; 0x60
 80076fc:	60a5      	str	r5, [r4, #8]
 80076fe:	d065      	beq.n	80077cc <HAL_TIM_ConfigClockSource+0xf8>
 8007700:	d824      	bhi.n	800774c <HAL_TIM_ConfigClockSource+0x78>
 8007702:	2b40      	cmp	r3, #64	; 0x40
 8007704:	d07c      	beq.n	8007800 <HAL_TIM_ConfigClockSource+0x12c>
 8007706:	d94b      	bls.n	80077a0 <HAL_TIM_ConfigClockSource+0xcc>
 8007708:	2b50      	cmp	r3, #80	; 0x50
 800770a:	d117      	bne.n	800773c <HAL_TIM_ConfigClockSource+0x68>
 800770c:	6a25      	ldr	r5, [r4, #32]
 800770e:	6a26      	ldr	r6, [r4, #32]
 8007710:	6848      	ldr	r0, [r1, #4]
 8007712:	68cf      	ldr	r7, [r1, #12]
 8007714:	f026 0601 	bic.w	r6, r6, #1
 8007718:	6226      	str	r6, [r4, #32]
 800771a:	69a3      	ldr	r3, [r4, #24]
 800771c:	f025 010a 	bic.w	r1, r5, #10
 8007720:	f023 03f0 	bic.w	r3, r3, #240	; 0xf0
 8007724:	4301      	orrs	r1, r0
 8007726:	ea43 1307 	orr.w	r3, r3, r7, lsl #4
 800772a:	61a3      	str	r3, [r4, #24]
 800772c:	6221      	str	r1, [r4, #32]
 800772e:	68a3      	ldr	r3, [r4, #8]
 8007730:	f023 0370 	bic.w	r3, r3, #112	; 0x70
 8007734:	f043 0357 	orr.w	r3, r3, #87	; 0x57
 8007738:	60a3      	str	r3, [r4, #8]
 800773a:	2000      	movs	r0, #0
 800773c:	2101      	movs	r1, #1
 800773e:	2300      	movs	r3, #0
 8007740:	f882 103d 	strb.w	r1, [r2, #61]	; 0x3d
 8007744:	f882 303c 	strb.w	r3, [r2, #60]	; 0x3c
 8007748:	bcf0      	pop	{r4, r5, r6, r7}
 800774a:	4770      	bx	lr
 800774c:	f5b3 5f80 	cmp.w	r3, #4096	; 0x1000
 8007750:	d038      	beq.n	80077c4 <HAL_TIM_ConfigClockSource+0xf0>
 8007752:	f5b3 5f00 	cmp.w	r3, #8192	; 0x2000
 8007756:	d110      	bne.n	800777a <HAL_TIM_ConfigClockSource+0xa6>
 8007758:	e9d1 5301 	ldrd	r5, r3, [r1, #4]
 800775c:	68c8      	ldr	r0, [r1, #12]
 800775e:	68a1      	ldr	r1, [r4, #8]
 8007760:	432b      	orrs	r3, r5
 8007762:	ea43 2300 	orr.w	r3, r3, r0, lsl #8
 8007766:	f421 417f 	bic.w	r1, r1, #65280	; 0xff00
 800776a:	430b      	orrs	r3, r1
 800776c:	60a3      	str	r3, [r4, #8]
 800776e:	68a3      	ldr	r3, [r4, #8]
 8007770:	f443 4380 	orr.w	r3, r3, #16384	; 0x4000
 8007774:	60a3      	str	r3, [r4, #8]
 8007776:	2000      	movs	r0, #0
 8007778:	e7e0      	b.n	800773c <HAL_TIM_ConfigClockSource+0x68>
 800777a:	2b70      	cmp	r3, #112	; 0x70
 800777c:	d1de      	bne.n	800773c <HAL_TIM_ConfigClockSource+0x68>
 800777e:	e9d1 5301 	ldrd	r5, r3, [r1, #4]
 8007782:	68c8      	ldr	r0, [r1, #12]
 8007784:	68a1      	ldr	r1, [r4, #8]
 8007786:	432b      	orrs	r3, r5
 8007788:	ea43 2300 	orr.w	r3, r3, r0, lsl #8
 800778c:	f421 417f 	bic.w	r1, r1, #65280	; 0xff00
 8007790:	430b      	orrs	r3, r1
 8007792:	60a3      	str	r3, [r4, #8]
 8007794:	68a3      	ldr	r3, [r4, #8]
 8007796:	f043 0377 	orr.w	r3, r3, #119	; 0x77
 800779a:	60a3      	str	r3, [r4, #8]
 800779c:	2000      	movs	r0, #0
 800779e:	e7cd      	b.n	800773c <HAL_TIM_ConfigClockSource+0x68>
 80077a0:	2b20      	cmp	r3, #32
 80077a2:	d002      	beq.n	80077aa <HAL_TIM_ConfigClockSource+0xd6>
 80077a4:	d90a      	bls.n	80077bc <HAL_TIM_ConfigClockSource+0xe8>
 80077a6:	2b30      	cmp	r3, #48	; 0x30
 80077a8:	d1c8      	bne.n	800773c <HAL_TIM_ConfigClockSource+0x68>
 80077aa:	68a1      	ldr	r1, [r4, #8]
 80077ac:	f021 0170 	bic.w	r1, r1, #112	; 0x70
 80077b0:	430b      	orrs	r3, r1
 80077b2:	f043 0307 	orr.w	r3, r3, #7
 80077b6:	60a3      	str	r3, [r4, #8]
 80077b8:	2000      	movs	r0, #0
 80077ba:	e7bf      	b.n	800773c <HAL_TIM_ConfigClockSource+0x68>
 80077bc:	f033 0110 	bics.w	r1, r3, #16
 80077c0:	d1bc      	bne.n	800773c <HAL_TIM_ConfigClockSource+0x68>
 80077c2:	e7f2      	b.n	80077aa <HAL_TIM_ConfigClockSource+0xd6>
 80077c4:	2000      	movs	r0, #0
 80077c6:	e7b9      	b.n	800773c <HAL_TIM_ConfigClockSource+0x68>
 80077c8:	2002      	movs	r0, #2
 80077ca:	4770      	bx	lr
 80077cc:	6a20      	ldr	r0, [r4, #32]
 80077ce:	684d      	ldr	r5, [r1, #4]
 80077d0:	68ce      	ldr	r6, [r1, #12]
 80077d2:	f020 0010 	bic.w	r0, r0, #16
 80077d6:	6220      	str	r0, [r4, #32]
 80077d8:	69a1      	ldr	r1, [r4, #24]
 80077da:	6a23      	ldr	r3, [r4, #32]
 80077dc:	f421 4170 	bic.w	r1, r1, #61440	; 0xf000
 80077e0:	f023 03a0 	bic.w	r3, r3, #160	; 0xa0
 80077e4:	ea43 1305 	orr.w	r3, r3, r5, lsl #4
 80077e8:	ea41 3106 	orr.w	r1, r1, r6, lsl #12
 80077ec:	61a1      	str	r1, [r4, #24]
 80077ee:	6223      	str	r3, [r4, #32]
 80077f0:	68a3      	ldr	r3, [r4, #8]
 80077f2:	f023 0370 	bic.w	r3, r3, #112	; 0x70
 80077f6:	f043 0367 	orr.w	r3, r3, #103	; 0x67
 80077fa:	60a3      	str	r3, [r4, #8]
 80077fc:	2000      	movs	r0, #0
 80077fe:	e79d      	b.n	800773c <HAL_TIM_ConfigClockSource+0x68>
 8007800:	6a25      	ldr	r5, [r4, #32]
 8007802:	6a26      	ldr	r6, [r4, #32]
 8007804:	6848      	ldr	r0, [r1, #4]
 8007806:	68cf      	ldr	r7, [r1, #12]
 8007808:	f026 0601 	bic.w	r6, r6, #1
 800780c:	6226      	str	r6, [r4, #32]
 800780e:	69a3      	ldr	r3, [r4, #24]
 8007810:	f025 010a 	bic.w	r1, r5, #10
 8007814:	f023 03f0 	bic.w	r3, r3, #240	; 0xf0
 8007818:	4301      	orrs	r1, r0
 800781a:	ea43 1307 	orr.w	r3, r3, r7, lsl #4
 800781e:	61a3      	str	r3, [r4, #24]
 8007820:	6221      	str	r1, [r4, #32]
 8007822:	68a3      	ldr	r3, [r4, #8]
 8007824:	f023 0370 	bic.w	r3, r3, #112	; 0x70
 8007828:	f043 0347 	orr.w	r3, r3, #71	; 0x47
 800782c:	60a3      	str	r3, [r4, #8]
 800782e:	2000      	movs	r0, #0
 8007830:	e784      	b.n	800773c <HAL_TIM_ConfigClockSource+0x68>
 8007832:	bf00      	nop

08007834 <HAL_TIM_ConfigTI1Input>:
 8007834:	6802      	ldr	r2, [r0, #0]
 8007836:	6853      	ldr	r3, [r2, #4]
 8007838:	f023 0380 	bic.w	r3, r3, #128	; 0x80
 800783c:	4319      	orrs	r1, r3
 800783e:	6051      	str	r1, [r2, #4]
 8007840:	2000      	movs	r0, #0
 8007842:	4770      	bx	lr

08007844 <HAL_TIM_SlaveConfigSynchro>:
 8007844:	f890 203c 	ldrb.w	r2, [r0, #60]	; 0x3c
 8007848:	2a01      	cmp	r2, #1
 800784a:	d050      	beq.n	80078ee <HAL_TIM_SlaveConfigSynchro+0xaa>
 800784c:	4603      	mov	r3, r0
 800784e:	b4f0      	push	{r4, r5, r6, r7}
 8007850:	2001      	movs	r0, #1
 8007852:	681c      	ldr	r4, [r3, #0]
 8007854:	f883 003c 	strb.w	r0, [r3, #60]	; 0x3c
 8007858:	2202      	movs	r2, #2
 800785a:	f883 203d 	strb.w	r2, [r3, #61]	; 0x3d
 800785e:	e9d1 5000 	ldrd	r5, r0, [r1]
 8007862:	68a2      	ldr	r2, [r4, #8]
 8007864:	f022 0270 	bic.w	r2, r2, #112	; 0x70
 8007868:	4302      	orrs	r2, r0
 800786a:	f022 0207 	bic.w	r2, r2, #7
 800786e:	432a      	orrs	r2, r5
 8007870:	2850      	cmp	r0, #80	; 0x50
 8007872:	60a2      	str	r2, [r4, #8]
 8007874:	d060      	beq.n	8007938 <HAL_TIM_SlaveConfigSynchro+0xf4>
 8007876:	d90f      	bls.n	8007898 <HAL_TIM_SlaveConfigSynchro+0x54>
 8007878:	2860      	cmp	r0, #96	; 0x60
 800787a:	d03a      	beq.n	80078f2 <HAL_TIM_SlaveConfigSynchro+0xae>
 800787c:	2870      	cmp	r0, #112	; 0x70
 800787e:	d10e      	bne.n	800789e <HAL_TIM_SlaveConfigSynchro+0x5a>
 8007880:	e9d1 5202 	ldrd	r5, r2, [r1, #8]
 8007884:	6908      	ldr	r0, [r1, #16]
 8007886:	68a1      	ldr	r1, [r4, #8]
 8007888:	432a      	orrs	r2, r5
 800788a:	ea42 2200 	orr.w	r2, r2, r0, lsl #8
 800788e:	f421 417f 	bic.w	r1, r1, #65280	; 0xff00
 8007892:	430a      	orrs	r2, r1
 8007894:	60a2      	str	r2, [r4, #8]
 8007896:	e00f      	b.n	80078b8 <HAL_TIM_SlaveConfigSynchro+0x74>
 8007898:	2840      	cmp	r0, #64	; 0x40
 800789a:	d03d      	beq.n	8007918 <HAL_TIM_SlaveConfigSynchro+0xd4>
 800789c:	d907      	bls.n	80078ae <HAL_TIM_SlaveConfigSynchro+0x6a>
 800789e:	2001      	movs	r0, #1
 80078a0:	2200      	movs	r2, #0
 80078a2:	f883 003d 	strb.w	r0, [r3, #61]	; 0x3d
 80078a6:	f883 203c 	strb.w	r2, [r3, #60]	; 0x3c
 80078aa:	bcf0      	pop	{r4, r5, r6, r7}
 80078ac:	4770      	bx	lr
 80078ae:	2820      	cmp	r0, #32
 80078b0:	d002      	beq.n	80078b8 <HAL_TIM_SlaveConfigSynchro+0x74>
 80078b2:	d912      	bls.n	80078da <HAL_TIM_SlaveConfigSynchro+0x96>
 80078b4:	2830      	cmp	r0, #48	; 0x30
 80078b6:	d1f2      	bne.n	800789e <HAL_TIM_SlaveConfigSynchro+0x5a>
 80078b8:	68e2      	ldr	r2, [r4, #12]
 80078ba:	f022 0240 	bic.w	r2, r2, #64	; 0x40
 80078be:	60e2      	str	r2, [r4, #12]
 80078c0:	68e2      	ldr	r2, [r4, #12]
 80078c2:	2501      	movs	r5, #1
 80078c4:	2100      	movs	r1, #0
 80078c6:	f422 4280 	bic.w	r2, r2, #16384	; 0x4000
 80078ca:	60e2      	str	r2, [r4, #12]
 80078cc:	f883 503d 	strb.w	r5, [r3, #61]	; 0x3d
 80078d0:	f883 103c 	strb.w	r1, [r3, #60]	; 0x3c
 80078d4:	4608      	mov	r0, r1
 80078d6:	bcf0      	pop	{r4, r5, r6, r7}
 80078d8:	4770      	bx	lr
 80078da:	f030 0210 	bics.w	r2, r0, #16
 80078de:	d0eb      	beq.n	80078b8 <HAL_TIM_SlaveConfigSynchro+0x74>
 80078e0:	2001      	movs	r0, #1
 80078e2:	2200      	movs	r2, #0
 80078e4:	f883 003d 	strb.w	r0, [r3, #61]	; 0x3d
 80078e8:	f883 203c 	strb.w	r2, [r3, #60]	; 0x3c
 80078ec:	e7dd      	b.n	80078aa <HAL_TIM_SlaveConfigSynchro+0x66>
 80078ee:	2002      	movs	r0, #2
 80078f0:	4770      	bx	lr
 80078f2:	6a20      	ldr	r0, [r4, #32]
 80078f4:	688d      	ldr	r5, [r1, #8]
 80078f6:	690e      	ldr	r6, [r1, #16]
 80078f8:	f020 0010 	bic.w	r0, r0, #16
 80078fc:	6220      	str	r0, [r4, #32]
 80078fe:	69a1      	ldr	r1, [r4, #24]
 8007900:	6a22      	ldr	r2, [r4, #32]
 8007902:	f421 4170 	bic.w	r1, r1, #61440	; 0xf000
 8007906:	f022 02a0 	bic.w	r2, r2, #160	; 0xa0
 800790a:	ea41 3106 	orr.w	r1, r1, r6, lsl #12
 800790e:	ea42 1205 	orr.w	r2, r2, r5, lsl #4
 8007912:	61a1      	str	r1, [r4, #24]
 8007914:	6222      	str	r2, [r4, #32]
 8007916:	e7cf      	b.n	80078b8 <HAL_TIM_SlaveConfigSynchro+0x74>
 8007918:	2d05      	cmp	r5, #5
 800791a:	d0c0      	beq.n	800789e <HAL_TIM_SlaveConfigSynchro+0x5a>
 800791c:	6a25      	ldr	r5, [r4, #32]
 800791e:	6a20      	ldr	r0, [r4, #32]
 8007920:	690e      	ldr	r6, [r1, #16]
 8007922:	f020 0001 	bic.w	r0, r0, #1
 8007926:	6220      	str	r0, [r4, #32]
 8007928:	69a2      	ldr	r2, [r4, #24]
 800792a:	f022 02f0 	bic.w	r2, r2, #240	; 0xf0
 800792e:	ea42 1206 	orr.w	r2, r2, r6, lsl #4
 8007932:	61a2      	str	r2, [r4, #24]
 8007934:	6225      	str	r5, [r4, #32]
 8007936:	e7bf      	b.n	80078b8 <HAL_TIM_SlaveConfigSynchro+0x74>
 8007938:	6a25      	ldr	r5, [r4, #32]
 800793a:	6a26      	ldr	r6, [r4, #32]
 800793c:	6888      	ldr	r0, [r1, #8]
 800793e:	690f      	ldr	r7, [r1, #16]
 8007940:	f026 0601 	bic.w	r6, r6, #1
 8007944:	6226      	str	r6, [r4, #32]
 8007946:	69a2      	ldr	r2, [r4, #24]
 8007948:	f025 010a 	bic.w	r1, r5, #10
 800794c:	f022 02f0 	bic.w	r2, r2, #240	; 0xf0
 8007950:	4301      	orrs	r1, r0
 8007952:	ea42 1207 	orr.w	r2, r2, r7, lsl #4
 8007956:	61a2      	str	r2, [r4, #24]
 8007958:	6221      	str	r1, [r4, #32]
 800795a:	e7ad      	b.n	80078b8 <HAL_TIM_SlaveConfigSynchro+0x74>

0800795c <HAL_TIM_SlaveConfigSynchro_IT>:
 800795c:	f890 203c 	ldrb.w	r2, [r0, #60]	; 0x3c
 8007960:	2a01      	cmp	r2, #1
 8007962:	d050      	beq.n	8007a06 <HAL_TIM_SlaveConfigSynchro_IT+0xaa>
 8007964:	4603      	mov	r3, r0
 8007966:	b4f0      	push	{r4, r5, r6, r7}
 8007968:	2001      	movs	r0, #1
 800796a:	681c      	ldr	r4, [r3, #0]
 800796c:	f883 003c 	strb.w	r0, [r3, #60]	; 0x3c
 8007970:	2202      	movs	r2, #2
 8007972:	f883 203d 	strb.w	r2, [r3, #61]	; 0x3d
 8007976:	e9d1 5000 	ldrd	r5, r0, [r1]
 800797a:	68a2      	ldr	r2, [r4, #8]
 800797c:	f022 0270 	bic.w	r2, r2, #112	; 0x70
 8007980:	4302      	orrs	r2, r0
 8007982:	f022 0207 	bic.w	r2, r2, #7
 8007986:	432a      	orrs	r2, r5
 8007988:	2850      	cmp	r0, #80	; 0x50
 800798a:	60a2      	str	r2, [r4, #8]
 800798c:	d060      	beq.n	8007a50 <HAL_TIM_SlaveConfigSynchro_IT+0xf4>
 800798e:	d90f      	bls.n	80079b0 <HAL_TIM_SlaveConfigSynchro_IT+0x54>
 8007990:	2860      	cmp	r0, #96	; 0x60
 8007992:	d03a      	beq.n	8007a0a <HAL_TIM_SlaveConfigSynchro_IT+0xae>
 8007994:	2870      	cmp	r0, #112	; 0x70
 8007996:	d10e      	bne.n	80079b6 <HAL_TIM_SlaveConfigSynchro_IT+0x5a>
 8007998:	e9d1 5202 	ldrd	r5, r2, [r1, #8]
 800799c:	6908      	ldr	r0, [r1, #16]
 800799e:	68a1      	ldr	r1, [r4, #8]
 80079a0:	432a      	orrs	r2, r5
 80079a2:	ea42 2200 	orr.w	r2, r2, r0, lsl #8
 80079a6:	f421 417f 	bic.w	r1, r1, #65280	; 0xff00
 80079aa:	430a      	orrs	r2, r1
 80079ac:	60a2      	str	r2, [r4, #8]
 80079ae:	e00f      	b.n	80079d0 <HAL_TIM_SlaveConfigSynchro_IT+0x74>
 80079b0:	2840      	cmp	r0, #64	; 0x40
 80079b2:	d03d      	beq.n	8007a30 <HAL_TIM_SlaveConfigSynchro_IT+0xd4>
 80079b4:	d907      	bls.n	80079c6 <HAL_TIM_SlaveConfigSynchro_IT+0x6a>
 80079b6:	2001      	movs	r0, #1
 80079b8:	2200      	movs	r2, #0
 80079ba:	f883 003d 	strb.w	r0, [r3, #61]	; 0x3d
 80079be:	f883 203c 	strb.w	r2, [r3, #60]	; 0x3c
 80079c2:	bcf0      	pop	{r4, r5, r6, r7}
 80079c4:	4770      	bx	lr
 80079c6:	2820      	cmp	r0, #32
 80079c8:	d002      	beq.n	80079d0 <HAL_TIM_SlaveConfigSynchro_IT+0x74>
 80079ca:	d912      	bls.n	80079f2 <HAL_TIM_SlaveConfigSynchro_IT+0x96>
 80079cc:	2830      	cmp	r0, #48	; 0x30
 80079ce:	d1f2      	bne.n	80079b6 <HAL_TIM_SlaveConfigSynchro_IT+0x5a>
 80079d0:	68e2      	ldr	r2, [r4, #12]
 80079d2:	f042 0240 	orr.w	r2, r2, #64	; 0x40
 80079d6:	60e2      	str	r2, [r4, #12]
 80079d8:	68e2      	ldr	r2, [r4, #12]
 80079da:	2501      	movs	r5, #1
 80079dc:	2100      	movs	r1, #0
 80079de:	f422 4280 	bic.w	r2, r2, #16384	; 0x4000
 80079e2:	60e2      	str	r2, [r4, #12]
 80079e4:	f883 503d 	strb.w	r5, [r3, #61]	; 0x3d
 80079e8:	f883 103c 	strb.w	r1, [r3, #60]	; 0x3c
 80079ec:	4608      	mov	r0, r1
 80079ee:	bcf0      	pop	{r4, r5, r6, r7}
 80079f0:	4770      	bx	lr
 80079f2:	f030 0210 	bics.w	r2, r0, #16
 80079f6:	d0eb      	beq.n	80079d0 <HAL_TIM_SlaveConfigSynchro_IT+0x74>
 80079f8:	2001      	movs	r0, #1
 80079fa:	2200      	movs	r2, #0
 80079fc:	f883 003d 	strb.w	r0, [r3, #61]	; 0x3d
 8007a00:	f883 203c 	strb.w	r2, [r3, #60]	; 0x3c
 8007a04:	e7dd      	b.n	80079c2 <HAL_TIM_SlaveConfigSynchro_IT+0x66>
 8007a06:	2002      	movs	r0, #2
 8007a08:	4770      	bx	lr
 8007a0a:	6a20      	ldr	r0, [r4, #32]
 8007a0c:	688d      	ldr	r5, [r1, #8]
 8007a0e:	690e      	ldr	r6, [r1, #16]
 8007a10:	f020 0010 	bic.w	r0, r0, #16
 8007a14:	6220      	str	r0, [r4, #32]
 8007a16:	69a1      	ldr	r1, [r4, #24]
 8007a18:	6a22      	ldr	r2, [r4, #32]
 8007a1a:	f421 4170 	bic.w	r1, r1, #61440	; 0xf000
 8007a1e:	f022 02a0 	bic.w	r2, r2, #160	; 0xa0
 8007a22:	ea41 3106 	orr.w	r1, r1, r6, lsl #12
 8007a26:	ea42 1205 	orr.w	r2, r2, r5, lsl #4
 8007a2a:	61a1      	str	r1, [r4, #24]
 8007a2c:	6222      	str	r2, [r4, #32]
 8007a2e:	e7cf      	b.n	80079d0 <HAL_TIM_SlaveConfigSynchro_IT+0x74>
 8007a30:	2d05      	cmp	r5, #5
 8007a32:	d0c0      	beq.n	80079b6 <HAL_TIM_SlaveConfigSynchro_IT+0x5a>
 8007a34:	6a25      	ldr	r5, [r4, #32]
 8007a36:	6a20      	ldr	r0, [r4, #32]
 8007a38:	690e      	ldr	r6, [r1, #16]
 8007a3a:	f020 0001 	bic.w	r0, r0, #1
 8007a3e:	6220      	str	r0, [r4, #32]
 8007a40:	69a2      	ldr	r2, [r4, #24]
 8007a42:	f022 02f0 	bic.w	r2, r2, #240	; 0xf0
 8007a46:	ea42 1206 	orr.w	r2, r2, r6, lsl #4
 8007a4a:	61a2      	str	r2, [r4, #24]
 8007a4c:	6225      	str	r5, [r4, #32]
 8007a4e:	e7bf      	b.n	80079d0 <HAL_TIM_SlaveConfigSynchro_IT+0x74>
 8007a50:	6a25      	ldr	r5, [r4, #32]
 8007a52:	6a26      	ldr	r6, [r4, #32]
 8007a54:	6888      	ldr	r0, [r1, #8]
 8007a56:	690f      	ldr	r7, [r1, #16]
 8007a58:	f026 0601 	bic.w	r6, r6, #1
 8007a5c:	6226      	str	r6, [r4, #32]
 8007a5e:	69a2      	ldr	r2, [r4, #24]
 8007a60:	f025 010a 	bic.w	r1, r5, #10
 8007a64:	f022 02f0 	bic.w	r2, r2, #240	; 0xf0
 8007a68:	4301      	orrs	r1, r0
 8007a6a:	ea42 1207 	orr.w	r2, r2, r7, lsl #4
 8007a6e:	61a2      	str	r2, [r4, #24]
 8007a70:	6221      	str	r1, [r4, #32]
 8007a72:	e7ad      	b.n	80079d0 <HAL_TIM_SlaveConfigSynchro_IT+0x74>

08007a74 <HAL_TIM_ReadCapturedValue>:
 8007a74:	290c      	cmp	r1, #12
 8007a76:	d808      	bhi.n	8007a8a <HAL_TIM_ReadCapturedValue+0x16>
 8007a78:	e8df f001 	tbb	[pc, r1]
 8007a7c:	0707070c 	.word	0x0707070c
 8007a80:	0707070f 	.word	0x0707070f
 8007a84:	07070712 	.word	0x07070712
 8007a88:	09          	.byte	0x09
 8007a89:	00          	.byte	0x00
 8007a8a:	2000      	movs	r0, #0
 8007a8c:	4770      	bx	lr
 8007a8e:	6803      	ldr	r3, [r0, #0]
 8007a90:	6c18      	ldr	r0, [r3, #64]	; 0x40
 8007a92:	4770      	bx	lr
 8007a94:	6803      	ldr	r3, [r0, #0]
 8007a96:	6b58      	ldr	r0, [r3, #52]	; 0x34
 8007a98:	4770      	bx	lr
 8007a9a:	6803      	ldr	r3, [r0, #0]
 8007a9c:	6b98      	ldr	r0, [r3, #56]	; 0x38
 8007a9e:	4770      	bx	lr
 8007aa0:	6803      	ldr	r3, [r0, #0]
 8007aa2:	6bd8      	ldr	r0, [r3, #60]	; 0x3c
 8007aa4:	4770      	bx	lr
 8007aa6:	bf00      	nop

08007aa8 <HAL_TIM_PeriodElapsedCallback>:
 8007aa8:	4770      	bx	lr
 8007aaa:	bf00      	nop

08007aac <TIM_DMAPeriodElapsedCplt>:
 8007aac:	6b80      	ldr	r0, [r0, #56]	; 0x38
 8007aae:	b508      	push	{r3, lr}
 8007ab0:	6a03      	ldr	r3, [r0, #32]
 8007ab2:	69db      	ldr	r3, [r3, #28]
 8007ab4:	b913      	cbnz	r3, 8007abc <TIM_DMAPeriodElapsedCplt+0x10>
 8007ab6:	2301      	movs	r3, #1
 8007ab8:	f880 303d 	strb.w	r3, [r0, #61]	; 0x3d
 8007abc:	f7ff fff4 	bl	8007aa8 <HAL_TIM_PeriodElapsedCallback>
 8007ac0:	bd08      	pop	{r3, pc}
 8007ac2:	bf00      	nop

08007ac4 <HAL_TIM_PeriodElapsedHalfCpltCallback>:
 8007ac4:	4770      	bx	lr
 8007ac6:	bf00      	nop

08007ac8 <TIM_DMAPeriodElapsedHalfCplt>:
 8007ac8:	b508      	push	{r3, lr}
 8007aca:	6b80      	ldr	r0, [r0, #56]	; 0x38
 8007acc:	f7ff fffa 	bl	8007ac4 <HAL_TIM_PeriodElapsedHalfCpltCallback>
 8007ad0:	bd08      	pop	{r3, pc}
 8007ad2:	bf00      	nop

08007ad4 <HAL_TIM_OC_DelayElapsedCallback>:
 8007ad4:	4770      	bx	lr
 8007ad6:	bf00      	nop

08007ad8 <HAL_TIM_IC_CaptureCallback>:
 8007ad8:	4770      	bx	lr
 8007ada:	bf00      	nop

08007adc <TIM_DMACaptureCplt>:
 8007adc:	b510      	push	{r4, lr}
 8007ade:	6b84      	ldr	r4, [r0, #56]	; 0x38
 8007ae0:	6a63      	ldr	r3, [r4, #36]	; 0x24
 8007ae2:	4283      	cmp	r3, r0
 8007ae4:	d01e      	beq.n	8007b24 <TIM_DMACaptureCplt+0x48>
 8007ae6:	6aa3      	ldr	r3, [r4, #40]	; 0x28
 8007ae8:	4283      	cmp	r3, r0
 8007aea:	d00b      	beq.n	8007b04 <TIM_DMACaptureCplt+0x28>
 8007aec:	6ae3      	ldr	r3, [r4, #44]	; 0x2c
 8007aee:	4283      	cmp	r3, r0
 8007af0:	d027      	beq.n	8007b42 <TIM_DMACaptureCplt+0x66>
 8007af2:	6b23      	ldr	r3, [r4, #48]	; 0x30
 8007af4:	4283      	cmp	r3, r0
 8007af6:	d02f      	beq.n	8007b58 <TIM_DMACaptureCplt+0x7c>
 8007af8:	4620      	mov	r0, r4
 8007afa:	f7ff ffed 	bl	8007ad8 <HAL_TIM_IC_CaptureCallback>
 8007afe:	2300      	movs	r3, #0
 8007b00:	7723      	strb	r3, [r4, #28]
 8007b02:	bd10      	pop	{r4, pc}
 8007b04:	2202      	movs	r2, #2
 8007b06:	7722      	strb	r2, [r4, #28]
 8007b08:	69db      	ldr	r3, [r3, #28]
 8007b0a:	2b00      	cmp	r3, #0
 8007b0c:	d1f4      	bne.n	8007af8 <TIM_DMACaptureCplt+0x1c>
 8007b0e:	2301      	movs	r3, #1
 8007b10:	f884 303f 	strb.w	r3, [r4, #63]	; 0x3f
 8007b14:	4620      	mov	r0, r4
 8007b16:	f884 3043 	strb.w	r3, [r4, #67]	; 0x43
 8007b1a:	f7ff ffdd 	bl	8007ad8 <HAL_TIM_IC_CaptureCallback>
 8007b1e:	2300      	movs	r3, #0
 8007b20:	7723      	strb	r3, [r4, #28]
 8007b22:	bd10      	pop	{r4, pc}
 8007b24:	2201      	movs	r2, #1
 8007b26:	7722      	strb	r2, [r4, #28]
 8007b28:	69db      	ldr	r3, [r3, #28]
 8007b2a:	2b00      	cmp	r3, #0
 8007b2c:	d1e4      	bne.n	8007af8 <TIM_DMACaptureCplt+0x1c>
 8007b2e:	f884 203e 	strb.w	r2, [r4, #62]	; 0x3e
 8007b32:	4620      	mov	r0, r4
 8007b34:	f884 2042 	strb.w	r2, [r4, #66]	; 0x42
 8007b38:	f7ff ffce 	bl	8007ad8 <HAL_TIM_IC_CaptureCallback>
 8007b3c:	2300      	movs	r3, #0
 8007b3e:	7723      	strb	r3, [r4, #28]
 8007b40:	bd10      	pop	{r4, pc}
 8007b42:	2204      	movs	r2, #4
 8007b44:	7722      	strb	r2, [r4, #28]
 8007b46:	69db      	ldr	r3, [r3, #28]
 8007b48:	2b00      	cmp	r3, #0
 8007b4a:	d1d5      	bne.n	8007af8 <TIM_DMACaptureCplt+0x1c>
 8007b4c:	2301      	movs	r3, #1
 8007b4e:	f884 3040 	strb.w	r3, [r4, #64]	; 0x40
 8007b52:	f884 3044 	strb.w	r3, [r4, #68]	; 0x44
 8007b56:	e7cf      	b.n	8007af8 <TIM_DMACaptureCplt+0x1c>
 8007b58:	2208      	movs	r2, #8
 8007b5a:	7722      	strb	r2, [r4, #28]
 8007b5c:	69db      	ldr	r3, [r3, #28]
 8007b5e:	2b00      	cmp	r3, #0
 8007b60:	d1ca      	bne.n	8007af8 <TIM_DMACaptureCplt+0x1c>
 8007b62:	2301      	movs	r3, #1
 8007b64:	f884 3041 	strb.w	r3, [r4, #65]	; 0x41
 8007b68:	f884 3045 	strb.w	r3, [r4, #69]	; 0x45
 8007b6c:	e7c4      	b.n	8007af8 <TIM_DMACaptureCplt+0x1c>
 8007b6e:	bf00      	nop

08007b70 <HAL_TIM_IC_CaptureHalfCpltCallback>:
 8007b70:	4770      	bx	lr
 8007b72:	bf00      	nop

08007b74 <TIM_DMACaptureHalfCplt>:
 8007b74:	b510      	push	{r4, lr}
 8007b76:	6b84      	ldr	r4, [r0, #56]	; 0x38
 8007b78:	6a63      	ldr	r3, [r4, #36]	; 0x24
 8007b7a:	4283      	cmp	r3, r0
 8007b7c:	d018      	beq.n	8007bb0 <TIM_DMACaptureHalfCplt+0x3c>
 8007b7e:	6aa3      	ldr	r3, [r4, #40]	; 0x28
 8007b80:	4283      	cmp	r3, r0
 8007b82:	d00d      	beq.n	8007ba0 <TIM_DMACaptureHalfCplt+0x2c>
 8007b84:	6ae3      	ldr	r3, [r4, #44]	; 0x2c
 8007b86:	4283      	cmp	r3, r0
 8007b88:	d01a      	beq.n	8007bc0 <TIM_DMACaptureHalfCplt+0x4c>
 8007b8a:	6b23      	ldr	r3, [r4, #48]	; 0x30
 8007b8c:	4283      	cmp	r3, r0
 8007b8e:	bf04      	itt	eq
 8007b90:	2308      	moveq	r3, #8
 8007b92:	7723      	strbeq	r3, [r4, #28]
 8007b94:	4620      	mov	r0, r4
 8007b96:	f7ff ffeb 	bl	8007b70 <HAL_TIM_IC_CaptureHalfCpltCallback>
 8007b9a:	2300      	movs	r3, #0
 8007b9c:	7723      	strb	r3, [r4, #28]
 8007b9e:	bd10      	pop	{r4, pc}
 8007ba0:	2302      	movs	r3, #2
 8007ba2:	7723      	strb	r3, [r4, #28]
 8007ba4:	4620      	mov	r0, r4
 8007ba6:	f7ff ffe3 	bl	8007b70 <HAL_TIM_IC_CaptureHalfCpltCallback>
 8007baa:	2300      	movs	r3, #0
 8007bac:	7723      	strb	r3, [r4, #28]
 8007bae:	bd10      	pop	{r4, pc}
 8007bb0:	2301      	movs	r3, #1
 8007bb2:	7723      	strb	r3, [r4, #28]
 8007bb4:	4620      	mov	r0, r4
 8007bb6:	f7ff ffdb 	bl	8007b70 <HAL_TIM_IC_CaptureHalfCpltCallback>
 8007bba:	2300      	movs	r3, #0
 8007bbc:	7723      	strb	r3, [r4, #28]
 8007bbe:	bd10      	pop	{r4, pc}
 8007bc0:	2304      	movs	r3, #4
 8007bc2:	7723      	strb	r3, [r4, #28]
 8007bc4:	4620      	mov	r0, r4
 8007bc6:	f7ff ffd3 	bl	8007b70 <HAL_TIM_IC_CaptureHalfCpltCallback>
 8007bca:	2300      	movs	r3, #0
 8007bcc:	7723      	strb	r3, [r4, #28]
 8007bce:	bd10      	pop	{r4, pc}

08007bd0 <HAL_TIM_PWM_PulseFinishedCallback>:
 8007bd0:	4770      	bx	lr
 8007bd2:	bf00      	nop

08007bd4 <TIM_DMADelayPulseCplt>:
 8007bd4:	b510      	push	{r4, lr}
 8007bd6:	6b84      	ldr	r4, [r0, #56]	; 0x38
 8007bd8:	6a63      	ldr	r3, [r4, #36]	; 0x24
 8007bda:	4283      	cmp	r3, r0
 8007bdc:	d01c      	beq.n	8007c18 <TIM_DMADelayPulseCplt+0x44>
 8007bde:	6aa3      	ldr	r3, [r4, #40]	; 0x28
 8007be0:	4283      	cmp	r3, r0
 8007be2:	d00b      	beq.n	8007bfc <TIM_DMADelayPulseCplt+0x28>
 8007be4:	6ae3      	ldr	r3, [r4, #44]	; 0x2c
 8007be6:	4283      	cmp	r3, r0
 8007be8:	d023      	beq.n	8007c32 <TIM_DMADelayPulseCplt+0x5e>
 8007bea:	6b23      	ldr	r3, [r4, #48]	; 0x30
 8007bec:	4283      	cmp	r3, r0
 8007bee:	d029      	beq.n	8007c44 <TIM_DMADelayPulseCplt+0x70>
 8007bf0:	4620      	mov	r0, r4
 8007bf2:	f7ff ffed 	bl	8007bd0 <HAL_TIM_PWM_PulseFinishedCallback>
 8007bf6:	2300      	movs	r3, #0
 8007bf8:	7723      	strb	r3, [r4, #28]
 8007bfa:	bd10      	pop	{r4, pc}
 8007bfc:	2202      	movs	r2, #2
 8007bfe:	7722      	strb	r2, [r4, #28]
 8007c00:	69db      	ldr	r3, [r3, #28]
 8007c02:	2b00      	cmp	r3, #0
 8007c04:	d1f4      	bne.n	8007bf0 <TIM_DMADelayPulseCplt+0x1c>
 8007c06:	2301      	movs	r3, #1
 8007c08:	f884 303f 	strb.w	r3, [r4, #63]	; 0x3f
 8007c0c:	4620      	mov	r0, r4
 8007c0e:	f7ff ffdf 	bl	8007bd0 <HAL_TIM_PWM_PulseFinishedCallback>
 8007c12:	2300      	movs	r3, #0
 8007c14:	7723      	strb	r3, [r4, #28]
 8007c16:	bd10      	pop	{r4, pc}
 8007c18:	2201      	movs	r2, #1
 8007c1a:	7722      	strb	r2, [r4, #28]
 8007c1c:	69db      	ldr	r3, [r3, #28]
 8007c1e:	2b00      	cmp	r3, #0
 8007c20:	d1e6      	bne.n	8007bf0 <TIM_DMADelayPulseCplt+0x1c>
 8007c22:	f884 203e 	strb.w	r2, [r4, #62]	; 0x3e
 8007c26:	4620      	mov	r0, r4
 8007c28:	f7ff ffd2 	bl	8007bd0 <HAL_TIM_PWM_PulseFinishedCallback>
 8007c2c:	2300      	movs	r3, #0
 8007c2e:	7723      	strb	r3, [r4, #28]
 8007c30:	bd10      	pop	{r4, pc}
 8007c32:	2204      	movs	r2, #4
 8007c34:	7722      	strb	r2, [r4, #28]
 8007c36:	69db      	ldr	r3, [r3, #28]
 8007c38:	2b00      	cmp	r3, #0
 8007c3a:	d1d9      	bne.n	8007bf0 <TIM_DMADelayPulseCplt+0x1c>
 8007c3c:	2301      	movs	r3, #1
 8007c3e:	f884 3040 	strb.w	r3, [r4, #64]	; 0x40
 8007c42:	e7d5      	b.n	8007bf0 <TIM_DMADelayPulseCplt+0x1c>
 8007c44:	2208      	movs	r2, #8
 8007c46:	7722      	strb	r2, [r4, #28]
 8007c48:	69db      	ldr	r3, [r3, #28]
 8007c4a:	2b00      	cmp	r3, #0
 8007c4c:	d1d0      	bne.n	8007bf0 <TIM_DMADelayPulseCplt+0x1c>
 8007c4e:	2301      	movs	r3, #1
 8007c50:	f884 3041 	strb.w	r3, [r4, #65]	; 0x41
 8007c54:	e7cc      	b.n	8007bf0 <TIM_DMADelayPulseCplt+0x1c>
 8007c56:	bf00      	nop

08007c58 <HAL_TIM_PWM_PulseFinishedHalfCpltCallback>:
 8007c58:	4770      	bx	lr
 8007c5a:	bf00      	nop

08007c5c <TIM_DMADelayPulseHalfCplt>:
 8007c5c:	b510      	push	{r4, lr}
 8007c5e:	6b84      	ldr	r4, [r0, #56]	; 0x38
 8007c60:	6a63      	ldr	r3, [r4, #36]	; 0x24
 8007c62:	4283      	cmp	r3, r0
 8007c64:	d018      	beq.n	8007c98 <TIM_DMADelayPulseHalfCplt+0x3c>
 8007c66:	6aa3      	ldr	r3, [r4, #40]	; 0x28
 8007c68:	4283      	cmp	r3, r0
 8007c6a:	d00d      	beq.n	8007c88 <TIM_DMADelayPulseHalfCplt+0x2c>
 8007c6c:	6ae3      	ldr	r3, [r4, #44]	; 0x2c
 8007c6e:	4283      	cmp	r3, r0
 8007c70:	d01a      	beq.n	8007ca8 <TIM_DMADelayPulseHalfCplt+0x4c>
 8007c72:	6b23      	ldr	r3, [r4, #48]	; 0x30
 8007c74:	4283      	cmp	r3, r0
 8007c76:	bf04      	itt	eq
 8007c78:	2308      	moveq	r3, #8
 8007c7a:	7723      	strbeq	r3, [r4, #28]
 8007c7c:	4620      	mov	r0, r4
 8007c7e:	f7ff ffeb 	bl	8007c58 <HAL_TIM_PWM_PulseFinishedHalfCpltCallback>
 8007c82:	2300      	movs	r3, #0
 8007c84:	7723      	strb	r3, [r4, #28]
 8007c86:	bd10      	pop	{r4, pc}
 8007c88:	2302      	movs	r3, #2
 8007c8a:	7723      	strb	r3, [r4, #28]
 8007c8c:	4620      	mov	r0, r4
 8007c8e:	f7ff ffe3 	bl	8007c58 <HAL_TIM_PWM_PulseFinishedHalfCpltCallback>
 8007c92:	2300      	movs	r3, #0
 8007c94:	7723      	strb	r3, [r4, #28]
 8007c96:	bd10      	pop	{r4, pc}
 8007c98:	2301      	movs	r3, #1
 8007c9a:	7723      	strb	r3, [r4, #28]
 8007c9c:	4620      	mov	r0, r4
 8007c9e:	f7ff ffdb 	bl	8007c58 <HAL_TIM_PWM_PulseFinishedHalfCpltCallback>
 8007ca2:	2300      	movs	r3, #0
 8007ca4:	7723      	strb	r3, [r4, #28]
 8007ca6:	bd10      	pop	{r4, pc}
 8007ca8:	2304      	movs	r3, #4
 8007caa:	7723      	strb	r3, [r4, #28]
 8007cac:	4620      	mov	r0, r4
 8007cae:	f7ff ffd3 	bl	8007c58 <HAL_TIM_PWM_PulseFinishedHalfCpltCallback>
 8007cb2:	2300      	movs	r3, #0
 8007cb4:	7723      	strb	r3, [r4, #28]
 8007cb6:	bd10      	pop	{r4, pc}

08007cb8 <HAL_TIM_TriggerCallback>:
 8007cb8:	4770      	bx	lr
 8007cba:	bf00      	nop

08007cbc <HAL_TIM_IRQHandler>:
 8007cbc:	6803      	ldr	r3, [r0, #0]
 8007cbe:	691a      	ldr	r2, [r3, #16]
 8007cc0:	0791      	lsls	r1, r2, #30
 8007cc2:	b510      	push	{r4, lr}
 8007cc4:	4604      	mov	r4, r0
 8007cc6:	d502      	bpl.n	8007cce <HAL_TIM_IRQHandler+0x12>
 8007cc8:	68da      	ldr	r2, [r3, #12]
 8007cca:	0792      	lsls	r2, r2, #30
 8007ccc:	d45f      	bmi.n	8007d8e <HAL_TIM_IRQHandler+0xd2>
 8007cce:	691a      	ldr	r2, [r3, #16]
 8007cd0:	0750      	lsls	r0, r2, #29
 8007cd2:	d502      	bpl.n	8007cda <HAL_TIM_IRQHandler+0x1e>
 8007cd4:	68da      	ldr	r2, [r3, #12]
 8007cd6:	0751      	lsls	r1, r2, #29
 8007cd8:	d446      	bmi.n	8007d68 <HAL_TIM_IRQHandler+0xac>
 8007cda:	691a      	ldr	r2, [r3, #16]
 8007cdc:	0712      	lsls	r2, r2, #28
 8007cde:	d502      	bpl.n	8007ce6 <HAL_TIM_IRQHandler+0x2a>
 8007ce0:	68da      	ldr	r2, [r3, #12]
 8007ce2:	0710      	lsls	r0, r2, #28
 8007ce4:	d42e      	bmi.n	8007d44 <HAL_TIM_IRQHandler+0x88>
 8007ce6:	691a      	ldr	r2, [r3, #16]
 8007ce8:	06d2      	lsls	r2, r2, #27
 8007cea:	d502      	bpl.n	8007cf2 <HAL_TIM_IRQHandler+0x36>
 8007cec:	68da      	ldr	r2, [r3, #12]
 8007cee:	06d0      	lsls	r0, r2, #27
 8007cf0:	d418      	bmi.n	8007d24 <HAL_TIM_IRQHandler+0x68>
 8007cf2:	691a      	ldr	r2, [r3, #16]
 8007cf4:	07d1      	lsls	r1, r2, #31
 8007cf6:	d502      	bpl.n	8007cfe <HAL_TIM_IRQHandler+0x42>
 8007cf8:	68da      	ldr	r2, [r3, #12]
 8007cfa:	07d2      	lsls	r2, r2, #31
 8007cfc:	d45d      	bmi.n	8007dba <HAL_TIM_IRQHandler+0xfe>
 8007cfe:	691a      	ldr	r2, [r3, #16]
 8007d00:	0610      	lsls	r0, r2, #24
 8007d02:	d502      	bpl.n	8007d0a <HAL_TIM_IRQHandler+0x4e>
 8007d04:	68da      	ldr	r2, [r3, #12]
 8007d06:	0611      	lsls	r1, r2, #24
 8007d08:	d45f      	bmi.n	8007dca <HAL_TIM_IRQHandler+0x10e>
 8007d0a:	691a      	ldr	r2, [r3, #16]
 8007d0c:	0652      	lsls	r2, r2, #25
 8007d0e:	d502      	bpl.n	8007d16 <HAL_TIM_IRQHandler+0x5a>
 8007d10:	68da      	ldr	r2, [r3, #12]
 8007d12:	0650      	lsls	r0, r2, #25
 8007d14:	d461      	bmi.n	8007dda <HAL_TIM_IRQHandler+0x11e>
 8007d16:	691a      	ldr	r2, [r3, #16]
 8007d18:	0691      	lsls	r1, r2, #26
 8007d1a:	d502      	bpl.n	8007d22 <HAL_TIM_IRQHandler+0x66>
 8007d1c:	68da      	ldr	r2, [r3, #12]
 8007d1e:	0692      	lsls	r2, r2, #26
 8007d20:	d443      	bmi.n	8007daa <HAL_TIM_IRQHandler+0xee>
 8007d22:	bd10      	pop	{r4, pc}
 8007d24:	f06f 0110 	mvn.w	r1, #16
 8007d28:	2208      	movs	r2, #8
 8007d2a:	6119      	str	r1, [r3, #16]
 8007d2c:	7722      	strb	r2, [r4, #28]
 8007d2e:	69db      	ldr	r3, [r3, #28]
 8007d30:	f413 7f40 	tst.w	r3, #768	; 0x300
 8007d34:	4620      	mov	r0, r4
 8007d36:	d064      	beq.n	8007e02 <HAL_TIM_IRQHandler+0x146>
 8007d38:	f7ff fece 	bl	8007ad8 <HAL_TIM_IC_CaptureCallback>
 8007d3c:	2200      	movs	r2, #0
 8007d3e:	6823      	ldr	r3, [r4, #0]
 8007d40:	7722      	strb	r2, [r4, #28]
 8007d42:	e7d6      	b.n	8007cf2 <HAL_TIM_IRQHandler+0x36>
 8007d44:	f06f 0108 	mvn.w	r1, #8
 8007d48:	2204      	movs	r2, #4
 8007d4a:	6119      	str	r1, [r3, #16]
 8007d4c:	7722      	strb	r2, [r4, #28]
 8007d4e:	69db      	ldr	r3, [r3, #28]
 8007d50:	0799      	lsls	r1, r3, #30
 8007d52:	4620      	mov	r0, r4
 8007d54:	d152      	bne.n	8007dfc <HAL_TIM_IRQHandler+0x140>
 8007d56:	f7ff febd 	bl	8007ad4 <HAL_TIM_OC_DelayElapsedCallback>
 8007d5a:	4620      	mov	r0, r4
 8007d5c:	f7ff ff38 	bl	8007bd0 <HAL_TIM_PWM_PulseFinishedCallback>
 8007d60:	2200      	movs	r2, #0
 8007d62:	6823      	ldr	r3, [r4, #0]
 8007d64:	7722      	strb	r2, [r4, #28]
 8007d66:	e7be      	b.n	8007ce6 <HAL_TIM_IRQHandler+0x2a>
 8007d68:	f06f 0104 	mvn.w	r1, #4
 8007d6c:	2202      	movs	r2, #2
 8007d6e:	6119      	str	r1, [r3, #16]
 8007d70:	7722      	strb	r2, [r4, #28]
 8007d72:	699b      	ldr	r3, [r3, #24]
 8007d74:	f413 7f40 	tst.w	r3, #768	; 0x300
 8007d78:	4620      	mov	r0, r4
 8007d7a:	d13c      	bne.n	8007df6 <HAL_TIM_IRQHandler+0x13a>
 8007d7c:	f7ff feaa 	bl	8007ad4 <HAL_TIM_OC_DelayElapsedCallback>
 8007d80:	4620      	mov	r0, r4
 8007d82:	f7ff ff25 	bl	8007bd0 <HAL_TIM_PWM_PulseFinishedCallback>
 8007d86:	2200      	movs	r2, #0
 8007d88:	6823      	ldr	r3, [r4, #0]
 8007d8a:	7722      	strb	r2, [r4, #28]
 8007d8c:	e7a5      	b.n	8007cda <HAL_TIM_IRQHandler+0x1e>
 8007d8e:	f06f 0102 	mvn.w	r1, #2
 8007d92:	2201      	movs	r2, #1
 8007d94:	6119      	str	r1, [r3, #16]
 8007d96:	7702      	strb	r2, [r0, #28]
 8007d98:	699b      	ldr	r3, [r3, #24]
 8007d9a:	079b      	lsls	r3, r3, #30
 8007d9c:	d025      	beq.n	8007dea <HAL_TIM_IRQHandler+0x12e>
 8007d9e:	f7ff fe9b 	bl	8007ad8 <HAL_TIM_IC_CaptureCallback>
 8007da2:	2200      	movs	r2, #0
 8007da4:	6823      	ldr	r3, [r4, #0]
 8007da6:	7722      	strb	r2, [r4, #28]
 8007da8:	e791      	b.n	8007cce <HAL_TIM_IRQHandler+0x12>
 8007daa:	f06f 0220 	mvn.w	r2, #32
 8007dae:	4620      	mov	r0, r4
 8007db0:	611a      	str	r2, [r3, #16]
 8007db2:	e8bd 4010 	ldmia.w	sp!, {r4, lr}
 8007db6:	f001 bcb5 	b.w	8009724 <HAL_TIMEx_CommutCallback>
 8007dba:	f06f 0201 	mvn.w	r2, #1
 8007dbe:	611a      	str	r2, [r3, #16]
 8007dc0:	4620      	mov	r0, r4
 8007dc2:	f7ff fe71 	bl	8007aa8 <HAL_TIM_PeriodElapsedCallback>
 8007dc6:	6823      	ldr	r3, [r4, #0]
 8007dc8:	e799      	b.n	8007cfe <HAL_TIM_IRQHandler+0x42>
 8007dca:	f06f 0280 	mvn.w	r2, #128	; 0x80
 8007dce:	611a      	str	r2, [r3, #16]
 8007dd0:	4620      	mov	r0, r4
 8007dd2:	f001 fcbb 	bl	800974c <HAL_TIMEx_BreakCallback>
 8007dd6:	6823      	ldr	r3, [r4, #0]
 8007dd8:	e797      	b.n	8007d0a <HAL_TIM_IRQHandler+0x4e>
 8007dda:	f06f 0240 	mvn.w	r2, #64	; 0x40
 8007dde:	611a      	str	r2, [r3, #16]
 8007de0:	4620      	mov	r0, r4
 8007de2:	f7ff ff69 	bl	8007cb8 <HAL_TIM_TriggerCallback>
 8007de6:	6823      	ldr	r3, [r4, #0]
 8007de8:	e795      	b.n	8007d16 <HAL_TIM_IRQHandler+0x5a>
 8007dea:	f7ff fe73 	bl	8007ad4 <HAL_TIM_OC_DelayElapsedCallback>
 8007dee:	4620      	mov	r0, r4
 8007df0:	f7ff feee 	bl	8007bd0 <HAL_TIM_PWM_PulseFinishedCallback>
 8007df4:	e7d5      	b.n	8007da2 <HAL_TIM_IRQHandler+0xe6>
 8007df6:	f7ff fe6f 	bl	8007ad8 <HAL_TIM_IC_CaptureCallback>
 8007dfa:	e7c4      	b.n	8007d86 <HAL_TIM_IRQHandler+0xca>
 8007dfc:	f7ff fe6c 	bl	8007ad8 <HAL_TIM_IC_CaptureCallback>
 8007e00:	e7ae      	b.n	8007d60 <HAL_TIM_IRQHandler+0xa4>
 8007e02:	f7ff fe67 	bl	8007ad4 <HAL_TIM_OC_DelayElapsedCallback>
 8007e06:	4620      	mov	r0, r4
 8007e08:	f7ff fee2 	bl	8007bd0 <HAL_TIM_PWM_PulseFinishedCallback>
 8007e0c:	e796      	b.n	8007d3c <HAL_TIM_IRQHandler+0x80>
 8007e0e:	bf00      	nop

08007e10 <TIM_DMATriggerCplt>:
 8007e10:	6b80      	ldr	r0, [r0, #56]	; 0x38
 8007e12:	b508      	push	{r3, lr}
 8007e14:	6b83      	ldr	r3, [r0, #56]	; 0x38
 8007e16:	69db      	ldr	r3, [r3, #28]
 8007e18:	b913      	cbnz	r3, 8007e20 <TIM_DMATriggerCplt+0x10>
 8007e1a:	2301      	movs	r3, #1
 8007e1c:	f880 303d 	strb.w	r3, [r0, #61]	; 0x3d
 8007e20:	f7ff ff4a 	bl	8007cb8 <HAL_TIM_TriggerCallback>
 8007e24:	bd08      	pop	{r3, pc}
 8007e26:	bf00      	nop

08007e28 <HAL_TIM_TriggerHalfCpltCallback>:
 8007e28:	4770      	bx	lr
 8007e2a:	bf00      	nop

08007e2c <TIM_DMATriggerHalfCplt>:
 8007e2c:	b508      	push	{r3, lr}
 8007e2e:	6b80      	ldr	r0, [r0, #56]	; 0x38
 8007e30:	f7ff fffa 	bl	8007e28 <HAL_TIM_TriggerHalfCpltCallback>
 8007e34:	bd08      	pop	{r3, pc}
 8007e36:	bf00      	nop

08007e38 <HAL_TIM_ErrorCallback>:
 8007e38:	4770      	bx	lr
 8007e3a:	bf00      	nop

08007e3c <TIM_DMAError>:
 8007e3c:	b510      	push	{r4, lr}
 8007e3e:	6b84      	ldr	r4, [r0, #56]	; 0x38
 8007e40:	6a63      	ldr	r3, [r4, #36]	; 0x24
 8007e42:	4283      	cmp	r3, r0
 8007e44:	d01c      	beq.n	8007e80 <TIM_DMAError+0x44>
 8007e46:	6aa3      	ldr	r3, [r4, #40]	; 0x28
 8007e48:	4283      	cmp	r3, r0
 8007e4a:	d00e      	beq.n	8007e6a <TIM_DMAError+0x2e>
 8007e4c:	6ae3      	ldr	r3, [r4, #44]	; 0x2c
 8007e4e:	4283      	cmp	r3, r0
 8007e50:	d020      	beq.n	8007e94 <TIM_DMAError+0x58>
 8007e52:	6b23      	ldr	r3, [r4, #48]	; 0x30
 8007e54:	4283      	cmp	r3, r0
 8007e56:	d028      	beq.n	8007eaa <TIM_DMAError+0x6e>
 8007e58:	2301      	movs	r3, #1
 8007e5a:	f884 303d 	strb.w	r3, [r4, #61]	; 0x3d
 8007e5e:	4620      	mov	r0, r4
 8007e60:	f7ff ffea 	bl	8007e38 <HAL_TIM_ErrorCallback>
 8007e64:	2300      	movs	r3, #0
 8007e66:	7723      	strb	r3, [r4, #28]
 8007e68:	bd10      	pop	{r4, pc}
 8007e6a:	2301      	movs	r3, #1
 8007e6c:	2202      	movs	r2, #2
 8007e6e:	f884 303f 	strb.w	r3, [r4, #63]	; 0x3f
 8007e72:	7722      	strb	r2, [r4, #28]
 8007e74:	4620      	mov	r0, r4
 8007e76:	f7ff ffdf 	bl	8007e38 <HAL_TIM_ErrorCallback>
 8007e7a:	2300      	movs	r3, #0
 8007e7c:	7723      	strb	r3, [r4, #28]
 8007e7e:	bd10      	pop	{r4, pc}
 8007e80:	2301      	movs	r3, #1
 8007e82:	7723      	strb	r3, [r4, #28]
 8007e84:	f884 303e 	strb.w	r3, [r4, #62]	; 0x3e
 8007e88:	4620      	mov	r0, r4
 8007e8a:	f7ff ffd5 	bl	8007e38 <HAL_TIM_ErrorCallback>
 8007e8e:	2300      	movs	r3, #0
 8007e90:	7723      	strb	r3, [r4, #28]
 8007e92:	bd10      	pop	{r4, pc}
 8007e94:	2301      	movs	r3, #1
 8007e96:	2204      	movs	r2, #4
 8007e98:	f884 3040 	strb.w	r3, [r4, #64]	; 0x40
 8007e9c:	7722      	strb	r2, [r4, #28]
 8007e9e:	4620      	mov	r0, r4
 8007ea0:	f7ff ffca 	bl	8007e38 <HAL_TIM_ErrorCallback>
 8007ea4:	2300      	movs	r3, #0
 8007ea6:	7723      	strb	r3, [r4, #28]
 8007ea8:	bd10      	pop	{r4, pc}
 8007eaa:	2301      	movs	r3, #1
 8007eac:	2208      	movs	r2, #8
 8007eae:	f884 3041 	strb.w	r3, [r4, #65]	; 0x41
 8007eb2:	7722      	strb	r2, [r4, #28]
 8007eb4:	4620      	mov	r0, r4
 8007eb6:	f7ff ffbf 	bl	8007e38 <HAL_TIM_ErrorCallback>
 8007eba:	2300      	movs	r3, #0
 8007ebc:	7723      	strb	r3, [r4, #28]
 8007ebe:	bd10      	pop	{r4, pc}

08007ec0 <HAL_TIM_Base_GetState>:
 8007ec0:	f890 003d 	ldrb.w	r0, [r0, #61]	; 0x3d
 8007ec4:	4770      	bx	lr
 8007ec6:	bf00      	nop

08007ec8 <HAL_TIM_OC_GetState>:
 8007ec8:	f890 003d 	ldrb.w	r0, [r0, #61]	; 0x3d
 8007ecc:	4770      	bx	lr
 8007ece:	bf00      	nop

08007ed0 <HAL_TIM_PWM_GetState>:
 8007ed0:	f890 003d 	ldrb.w	r0, [r0, #61]	; 0x3d
 8007ed4:	4770      	bx	lr
 8007ed6:	bf00      	nop

08007ed8 <HAL_TIM_IC_GetState>:
 8007ed8:	f890 003d 	ldrb.w	r0, [r0, #61]	; 0x3d
 8007edc:	4770      	bx	lr
 8007ede:	bf00      	nop

08007ee0 <HAL_TIM_OnePulse_GetState>:
 8007ee0:	f890 003d 	ldrb.w	r0, [r0, #61]	; 0x3d
 8007ee4:	4770      	bx	lr
 8007ee6:	bf00      	nop

08007ee8 <HAL_TIM_Encoder_GetState>:
 8007ee8:	f890 003d 	ldrb.w	r0, [r0, #61]	; 0x3d
 8007eec:	4770      	bx	lr
 8007eee:	bf00      	nop

08007ef0 <HAL_TIM_GetActiveChannel>:
 8007ef0:	7f00      	ldrb	r0, [r0, #28]
 8007ef2:	4770      	bx	lr

08007ef4 <HAL_TIM_GetChannelState>:
 8007ef4:	b919      	cbnz	r1, 8007efe <HAL_TIM_GetChannelState+0xa>
 8007ef6:	f890 003e 	ldrb.w	r0, [r0, #62]	; 0x3e
 8007efa:	b2c0      	uxtb	r0, r0
 8007efc:	4770      	bx	lr
 8007efe:	2904      	cmp	r1, #4
 8007f00:	d007      	beq.n	8007f12 <HAL_TIM_GetChannelState+0x1e>
 8007f02:	2908      	cmp	r1, #8
 8007f04:	bf0c      	ite	eq
 8007f06:	f890 0040 	ldrbeq.w	r0, [r0, #64]	; 0x40
 8007f0a:	f890 0041 	ldrbne.w	r0, [r0, #65]	; 0x41
 8007f0e:	b2c0      	uxtb	r0, r0
 8007f10:	4770      	bx	lr
 8007f12:	f890 003f 	ldrb.w	r0, [r0, #63]	; 0x3f
 8007f16:	b2c0      	uxtb	r0, r0
 8007f18:	4770      	bx	lr
 8007f1a:	bf00      	nop

08007f1c <HAL_TIM_DMABurstState>:
 8007f1c:	f890 0046 	ldrb.w	r0, [r0, #70]	; 0x46
 8007f20:	4770      	bx	lr
 8007f22:	bf00      	nop

08007f24 <TIM_Base_SetConfig>:
 8007f24:	2200      	movs	r2, #0
 8007f26:	f2c4 0201 	movt	r2, #16385	; 0x4001
 8007f2a:	4290      	cmp	r0, r2
 8007f2c:	b470      	push	{r4, r5, r6}
 8007f2e:	6803      	ldr	r3, [r0, #0]
 8007f30:	d057      	beq.n	8007fe2 <TIM_Base_SetConfig+0xbe>
 8007f32:	f1b0 4f80 	cmp.w	r0, #1073741824	; 0x40000000
 8007f36:	d048      	beq.n	8007fca <TIM_Base_SetConfig+0xa6>
 8007f38:	f44f 6280 	mov.w	r2, #1024	; 0x400
 8007f3c:	f2c4 0200 	movt	r2, #16384	; 0x4000
 8007f40:	4290      	cmp	r0, r2
 8007f42:	d042      	beq.n	8007fca <TIM_Base_SetConfig+0xa6>
 8007f44:	f44f 6200 	mov.w	r2, #2048	; 0x800
 8007f48:	f2c4 0200 	movt	r2, #16384	; 0x4000
 8007f4c:	4290      	cmp	r0, r2
 8007f4e:	d03c      	beq.n	8007fca <TIM_Base_SetConfig+0xa6>
 8007f50:	f44f 6240 	mov.w	r2, #3072	; 0xc00
 8007f54:	f2c4 0200 	movt	r2, #16384	; 0x4000
 8007f58:	4290      	cmp	r0, r2
 8007f5a:	d036      	beq.n	8007fca <TIM_Base_SetConfig+0xa6>
 8007f5c:	f44f 6280 	mov.w	r2, #1024	; 0x400
 8007f60:	f2c4 0201 	movt	r2, #16385	; 0x4001
 8007f64:	4290      	cmp	r0, r2
 8007f66:	d03c      	beq.n	8007fe2 <TIM_Base_SetConfig+0xbe>
 8007f68:	f44f 4280 	mov.w	r2, #16384	; 0x4000
 8007f6c:	f2c4 0201 	movt	r2, #16385	; 0x4001
 8007f70:	4290      	cmp	r0, r2
 8007f72:	d02e      	beq.n	8007fd2 <TIM_Base_SetConfig+0xae>
 8007f74:	f44f 4288 	mov.w	r2, #17408	; 0x4400
 8007f78:	f2c4 0201 	movt	r2, #16385	; 0x4001
 8007f7c:	4290      	cmp	r0, r2
 8007f7e:	d028      	beq.n	8007fd2 <TIM_Base_SetConfig+0xae>
 8007f80:	f44f 4290 	mov.w	r2, #18432	; 0x4800
 8007f84:	f2c4 0201 	movt	r2, #16385	; 0x4001
 8007f88:	4290      	cmp	r0, r2
 8007f8a:	d022      	beq.n	8007fd2 <TIM_Base_SetConfig+0xae>
 8007f8c:	f44f 52c0 	mov.w	r2, #6144	; 0x1800
 8007f90:	f2c4 0200 	movt	r2, #16384	; 0x4000
 8007f94:	4290      	cmp	r0, r2
 8007f96:	d01c      	beq.n	8007fd2 <TIM_Base_SetConfig+0xae>
 8007f98:	f44f 52e0 	mov.w	r2, #7168	; 0x1c00
 8007f9c:	f2c4 0200 	movt	r2, #16384	; 0x4000
 8007fa0:	4290      	cmp	r0, r2
 8007fa2:	d016      	beq.n	8007fd2 <TIM_Base_SetConfig+0xae>
 8007fa4:	f44f 5200 	mov.w	r2, #8192	; 0x2000
 8007fa8:	f2c4 0200 	movt	r2, #16384	; 0x4000
 8007fac:	4290      	cmp	r0, r2
 8007fae:	d010      	beq.n	8007fd2 <TIM_Base_SetConfig+0xae>
 8007fb0:	694d      	ldr	r5, [r1, #20]
 8007fb2:	688c      	ldr	r4, [r1, #8]
 8007fb4:	680a      	ldr	r2, [r1, #0]
 8007fb6:	f023 0380 	bic.w	r3, r3, #128	; 0x80
 8007fba:	432b      	orrs	r3, r5
 8007fbc:	6003      	str	r3, [r0, #0]
 8007fbe:	2301      	movs	r3, #1
 8007fc0:	62c4      	str	r4, [r0, #44]	; 0x2c
 8007fc2:	6282      	str	r2, [r0, #40]	; 0x28
 8007fc4:	bc70      	pop	{r4, r5, r6}
 8007fc6:	6143      	str	r3, [r0, #20]
 8007fc8:	4770      	bx	lr
 8007fca:	684a      	ldr	r2, [r1, #4]
 8007fcc:	f023 0370 	bic.w	r3, r3, #112	; 0x70
 8007fd0:	4313      	orrs	r3, r2
 8007fd2:	68ce      	ldr	r6, [r1, #12]
 8007fd4:	694d      	ldr	r5, [r1, #20]
 8007fd6:	688c      	ldr	r4, [r1, #8]
 8007fd8:	680a      	ldr	r2, [r1, #0]
 8007fda:	f423 7340 	bic.w	r3, r3, #768	; 0x300
 8007fde:	4333      	orrs	r3, r6
 8007fe0:	e7e9      	b.n	8007fb6 <TIM_Base_SetConfig+0x92>
 8007fe2:	684d      	ldr	r5, [r1, #4]
 8007fe4:	68cc      	ldr	r4, [r1, #12]
 8007fe6:	694a      	ldr	r2, [r1, #20]
 8007fe8:	f023 0370 	bic.w	r3, r3, #112	; 0x70
 8007fec:	432b      	orrs	r3, r5
 8007fee:	f423 7340 	bic.w	r3, r3, #768	; 0x300
 8007ff2:	4323      	orrs	r3, r4
 8007ff4:	f023 0380 	bic.w	r3, r3, #128	; 0x80
 8007ff8:	4313      	orrs	r3, r2
 8007ffa:	6003      	str	r3, [r0, #0]
 8007ffc:	688b      	ldr	r3, [r1, #8]
 8007ffe:	62c3      	str	r3, [r0, #44]	; 0x2c
 8008000:	680b      	ldr	r3, [r1, #0]
 8008002:	6283      	str	r3, [r0, #40]	; 0x28
 8008004:	690b      	ldr	r3, [r1, #16]
 8008006:	6303      	str	r3, [r0, #48]	; 0x30
 8008008:	2301      	movs	r3, #1
 800800a:	bc70      	pop	{r4, r5, r6}
 800800c:	6143      	str	r3, [r0, #20]
 800800e:	4770      	bx	lr

08008010 <TIM_OC2_SetConfig>:
 8008010:	6a03      	ldr	r3, [r0, #32]
 8008012:	f023 0310 	bic.w	r3, r3, #16
 8008016:	6203      	str	r3, [r0, #32]
 8008018:	6a03      	ldr	r3, [r0, #32]
 800801a:	b470      	push	{r4, r5, r6}
 800801c:	688d      	ldr	r5, [r1, #8]
 800801e:	6846      	ldr	r6, [r0, #4]
 8008020:	6982      	ldr	r2, [r0, #24]
 8008022:	680c      	ldr	r4, [r1, #0]
 8008024:	f023 0320 	bic.w	r3, r3, #32
 8008028:	ea43 1305 	orr.w	r3, r3, r5, lsl #4
 800802c:	2500      	movs	r5, #0
 800802e:	f2c4 0501 	movt	r5, #16385	; 0x4001
 8008032:	f422 42e6 	bic.w	r2, r2, #29440	; 0x7300
 8008036:	42a8      	cmp	r0, r5
 8008038:	ea42 2204 	orr.w	r2, r2, r4, lsl #8
 800803c:	d00c      	beq.n	8008058 <TIM_OC2_SetConfig+0x48>
 800803e:	f44f 6580 	mov.w	r5, #1024	; 0x400
 8008042:	f2c4 0501 	movt	r5, #16385	; 0x4001
 8008046:	42a8      	cmp	r0, r5
 8008048:	d006      	beq.n	8008058 <TIM_OC2_SetConfig+0x48>
 800804a:	6849      	ldr	r1, [r1, #4]
 800804c:	6046      	str	r6, [r0, #4]
 800804e:	6182      	str	r2, [r0, #24]
 8008050:	bc70      	pop	{r4, r5, r6}
 8008052:	6381      	str	r1, [r0, #56]	; 0x38
 8008054:	6203      	str	r3, [r0, #32]
 8008056:	4770      	bx	lr
 8008058:	68cc      	ldr	r4, [r1, #12]
 800805a:	f023 0380 	bic.w	r3, r3, #128	; 0x80
 800805e:	ea43 1304 	orr.w	r3, r3, r4, lsl #4
 8008062:	e9d1 5405 	ldrd	r5, r4, [r1, #20]
 8008066:	f426 6640 	bic.w	r6, r6, #3072	; 0xc00
 800806a:	4325      	orrs	r5, r4
 800806c:	f023 0340 	bic.w	r3, r3, #64	; 0x40
 8008070:	ea46 0685 	orr.w	r6, r6, r5, lsl #2
 8008074:	e7e9      	b.n	800804a <TIM_OC2_SetConfig+0x3a>
 8008076:	bf00      	nop

08008078 <TIM_TI1_SetConfig>:
 8008078:	b470      	push	{r4, r5, r6}
 800807a:	6a04      	ldr	r4, [r0, #32]
 800807c:	2600      	movs	r6, #0
 800807e:	f024 0401 	bic.w	r4, r4, #1
 8008082:	f2c4 0601 	movt	r6, #16385	; 0x4001
 8008086:	6204      	str	r4, [r0, #32]
 8008088:	42b0      	cmp	r0, r6
 800808a:	6984      	ldr	r4, [r0, #24]
 800808c:	6a05      	ldr	r5, [r0, #32]
 800808e:	d029      	beq.n	80080e4 <TIM_TI1_SetConfig+0x6c>
 8008090:	f1b0 4f80 	cmp.w	r0, #1073741824	; 0x40000000
 8008094:	d026      	beq.n	80080e4 <TIM_TI1_SetConfig+0x6c>
 8008096:	f44f 6680 	mov.w	r6, #1024	; 0x400
 800809a:	f2c4 0600 	movt	r6, #16384	; 0x4000
 800809e:	42b0      	cmp	r0, r6
 80080a0:	d020      	beq.n	80080e4 <TIM_TI1_SetConfig+0x6c>
 80080a2:	f44f 6600 	mov.w	r6, #2048	; 0x800
 80080a6:	f2c4 0600 	movt	r6, #16384	; 0x4000
 80080aa:	42b0      	cmp	r0, r6
 80080ac:	d01a      	beq.n	80080e4 <TIM_TI1_SetConfig+0x6c>
 80080ae:	f44f 6640 	mov.w	r6, #3072	; 0xc00
 80080b2:	f2c4 0600 	movt	r6, #16384	; 0x4000
 80080b6:	42b0      	cmp	r0, r6
 80080b8:	d014      	beq.n	80080e4 <TIM_TI1_SetConfig+0x6c>
 80080ba:	f44f 6680 	mov.w	r6, #1024	; 0x400
 80080be:	f2c4 0601 	movt	r6, #16385	; 0x4001
 80080c2:	42b0      	cmp	r0, r6
 80080c4:	d00e      	beq.n	80080e4 <TIM_TI1_SetConfig+0x6c>
 80080c6:	f44f 4680 	mov.w	r6, #16384	; 0x4000
 80080ca:	f2c4 0601 	movt	r6, #16385	; 0x4001
 80080ce:	42b0      	cmp	r0, r6
 80080d0:	d008      	beq.n	80080e4 <TIM_TI1_SetConfig+0x6c>
 80080d2:	f44f 56c0 	mov.w	r6, #6144	; 0x1800
 80080d6:	f2c4 0600 	movt	r6, #16384	; 0x4000
 80080da:	42b0      	cmp	r0, r6
 80080dc:	d002      	beq.n	80080e4 <TIM_TI1_SetConfig+0x6c>
 80080de:	f044 0201 	orr.w	r2, r4, #1
 80080e2:	e002      	b.n	80080ea <TIM_TI1_SetConfig+0x72>
 80080e4:	f024 0403 	bic.w	r4, r4, #3
 80080e8:	4322      	orrs	r2, r4
 80080ea:	011b      	lsls	r3, r3, #4
 80080ec:	f025 040a 	bic.w	r4, r5, #10
 80080f0:	b2db      	uxtb	r3, r3
 80080f2:	f022 02f0 	bic.w	r2, r2, #240	; 0xf0
 80080f6:	f001 010a 	and.w	r1, r1, #10
 80080fa:	4321      	orrs	r1, r4
 80080fc:	4313      	orrs	r3, r2
 80080fe:	6183      	str	r3, [r0, #24]
 8008100:	bc70      	pop	{r4, r5, r6}
 8008102:	6201      	str	r1, [r0, #32]
 8008104:	4770      	bx	lr
 8008106:	bf00      	nop

08008108 <TIM_ETR_SetConfig>:
 8008108:	b410      	push	{r4}
 800810a:	6884      	ldr	r4, [r0, #8]
 800810c:	430a      	orrs	r2, r1
 800810e:	f424 447f 	bic.w	r4, r4, #65280	; 0xff00
 8008112:	ea42 2303 	orr.w	r3, r2, r3, lsl #8
 8008116:	4323      	orrs	r3, r4
 8008118:	6083      	str	r3, [r0, #8]
 800811a:	f85d 4b04 	ldr.w	r4, [sp], #4
 800811e:	4770      	bx	lr

08008120 <TIM_CCxChannelCmd>:
 8008120:	6a03      	ldr	r3, [r0, #32]
 8008122:	b410      	push	{r4}
 8008124:	f001 011f 	and.w	r1, r1, #31
 8008128:	2401      	movs	r4, #1
 800812a:	408c      	lsls	r4, r1
 800812c:	ea23 0304 	bic.w	r3, r3, r4
 8008130:	6203      	str	r3, [r0, #32]
 8008132:	6a03      	ldr	r3, [r0, #32]
 8008134:	f85d 4b04 	ldr.w	r4, [sp], #4
 8008138:	408a      	lsls	r2, r1
 800813a:	431a      	orrs	r2, r3
 800813c:	6202      	str	r2, [r0, #32]
 800813e:	4770      	bx	lr

08008140 <TIM_DMAErrorCCxN>:
 8008140:	b510      	push	{r4, lr}
 8008142:	6b84      	ldr	r4, [r0, #56]	; 0x38
 8008144:	6a63      	ldr	r3, [r4, #36]	; 0x24
 8008146:	4283      	cmp	r3, r0
 8008148:	d016      	beq.n	8008178 <TIM_DMAErrorCCxN+0x38>
 800814a:	6aa3      	ldr	r3, [r4, #40]	; 0x28
 800814c:	4283      	cmp	r3, r0
 800814e:	d008      	beq.n	8008162 <TIM_DMAErrorCCxN+0x22>
 8008150:	6ae3      	ldr	r3, [r4, #44]	; 0x2c
 8008152:	4283      	cmp	r3, r0
 8008154:	d01a      	beq.n	800818c <TIM_DMAErrorCCxN+0x4c>
 8008156:	4620      	mov	r0, r4
 8008158:	f7ff fe6e 	bl	8007e38 <HAL_TIM_ErrorCallback>
 800815c:	2300      	movs	r3, #0
 800815e:	7723      	strb	r3, [r4, #28]
 8008160:	bd10      	pop	{r4, pc}
 8008162:	2301      	movs	r3, #1
 8008164:	2202      	movs	r2, #2
 8008166:	f884 3043 	strb.w	r3, [r4, #67]	; 0x43
 800816a:	7722      	strb	r2, [r4, #28]
 800816c:	4620      	mov	r0, r4
 800816e:	f7ff fe63 	bl	8007e38 <HAL_TIM_ErrorCallback>
 8008172:	2300      	movs	r3, #0
 8008174:	7723      	strb	r3, [r4, #28]
 8008176:	bd10      	pop	{r4, pc}
 8008178:	2301      	movs	r3, #1
 800817a:	7723      	strb	r3, [r4, #28]
 800817c:	f884 3042 	strb.w	r3, [r4, #66]	; 0x42
 8008180:	4620      	mov	r0, r4
 8008182:	f7ff fe59 	bl	8007e38 <HAL_TIM_ErrorCallback>
 8008186:	2300      	movs	r3, #0
 8008188:	7723      	strb	r3, [r4, #28]
 800818a:	bd10      	pop	{r4, pc}
 800818c:	2301      	movs	r3, #1
 800818e:	2204      	movs	r2, #4
 8008190:	f884 3044 	strb.w	r3, [r4, #68]	; 0x44
 8008194:	7722      	strb	r2, [r4, #28]
 8008196:	4620      	mov	r0, r4
 8008198:	f7ff fe4e 	bl	8007e38 <HAL_TIM_ErrorCallback>
 800819c:	2300      	movs	r3, #0
 800819e:	7723      	strb	r3, [r4, #28]
 80081a0:	bd10      	pop	{r4, pc}
 80081a2:	bf00      	nop

080081a4 <TIM_DMADelayPulseNCplt>:
 80081a4:	b510      	push	{r4, lr}
 80081a6:	6b84      	ldr	r4, [r0, #56]	; 0x38
 80081a8:	6a63      	ldr	r3, [r4, #36]	; 0x24
 80081aa:	4283      	cmp	r3, r0
 80081ac:	d01c      	beq.n	80081e8 <TIM_DMADelayPulseNCplt+0x44>
 80081ae:	6aa3      	ldr	r3, [r4, #40]	; 0x28
 80081b0:	4283      	cmp	r3, r0
 80081b2:	d00b      	beq.n	80081cc <TIM_DMADelayPulseNCplt+0x28>
 80081b4:	6ae3      	ldr	r3, [r4, #44]	; 0x2c
 80081b6:	4283      	cmp	r3, r0
 80081b8:	d023      	beq.n	8008202 <TIM_DMADelayPulseNCplt+0x5e>
 80081ba:	6b23      	ldr	r3, [r4, #48]	; 0x30
 80081bc:	4283      	cmp	r3, r0
 80081be:	d029      	beq.n	8008214 <TIM_DMADelayPulseNCplt+0x70>
 80081c0:	4620      	mov	r0, r4
 80081c2:	f7ff fd05 	bl	8007bd0 <HAL_TIM_PWM_PulseFinishedCallback>
 80081c6:	2300      	movs	r3, #0
 80081c8:	7723      	strb	r3, [r4, #28]
 80081ca:	bd10      	pop	{r4, pc}
 80081cc:	2202      	movs	r2, #2
 80081ce:	7722      	strb	r2, [r4, #28]
 80081d0:	69db      	ldr	r3, [r3, #28]
 80081d2:	2b00      	cmp	r3, #0
 80081d4:	d1f4      	bne.n	80081c0 <TIM_DMADelayPulseNCplt+0x1c>
 80081d6:	2301      	movs	r3, #1
 80081d8:	f884 3043 	strb.w	r3, [r4, #67]	; 0x43
 80081dc:	4620      	mov	r0, r4
 80081de:	f7ff fcf7 	bl	8007bd0 <HAL_TIM_PWM_PulseFinishedCallback>
 80081e2:	2300      	movs	r3, #0
 80081e4:	7723      	strb	r3, [r4, #28]
 80081e6:	bd10      	pop	{r4, pc}
 80081e8:	2201      	movs	r2, #1
 80081ea:	7722      	strb	r2, [r4, #28]
 80081ec:	69db      	ldr	r3, [r3, #28]
 80081ee:	2b00      	cmp	r3, #0
 80081f0:	d1e6      	bne.n	80081c0 <TIM_DMADelayPulseNCplt+0x1c>
 80081f2:	f884 2042 	strb.w	r2, [r4, #66]	; 0x42
 80081f6:	4620      	mov	r0, r4
 80081f8:	f7ff fcea 	bl	8007bd0 <HAL_TIM_PWM_PulseFinishedCallback>
 80081fc:	2300      	movs	r3, #0
 80081fe:	7723      	strb	r3, [r4, #28]
 8008200:	bd10      	pop	{r4, pc}
 8008202:	2204      	movs	r2, #4
 8008204:	7722      	strb	r2, [r4, #28]
 8008206:	69db      	ldr	r3, [r3, #28]
 8008208:	2b00      	cmp	r3, #0
 800820a:	d1d9      	bne.n	80081c0 <TIM_DMADelayPulseNCplt+0x1c>
 800820c:	2301      	movs	r3, #1
 800820e:	f884 3044 	strb.w	r3, [r4, #68]	; 0x44
 8008212:	e7d5      	b.n	80081c0 <TIM_DMADelayPulseNCplt+0x1c>
 8008214:	2208      	movs	r2, #8
 8008216:	7722      	strb	r2, [r4, #28]
 8008218:	69db      	ldr	r3, [r3, #28]
 800821a:	2b00      	cmp	r3, #0
 800821c:	d1d0      	bne.n	80081c0 <TIM_DMADelayPulseNCplt+0x1c>
 800821e:	2301      	movs	r3, #1
 8008220:	f884 3045 	strb.w	r3, [r4, #69]	; 0x45
 8008224:	e7cc      	b.n	80081c0 <TIM_DMADelayPulseNCplt+0x1c>
 8008226:	bf00      	nop

08008228 <HAL_TIMEx_HallSensor_MspInit>:
 8008228:	4770      	bx	lr
 800822a:	bf00      	nop

0800822c <HAL_TIMEx_HallSensor_Init>:
 800822c:	2800      	cmp	r0, #0
 800822e:	d05f      	beq.n	80082f0 <HAL_TIMEx_HallSensor_Init+0xc4>
 8008230:	b570      	push	{r4, r5, r6, lr}
 8008232:	f890 303d 	ldrb.w	r3, [r0, #61]	; 0x3d
 8008236:	b088      	sub	sp, #32
 8008238:	460d      	mov	r5, r1
 800823a:	4604      	mov	r4, r0
 800823c:	f003 02ff 	and.w	r2, r3, #255	; 0xff
 8008240:	2b00      	cmp	r3, #0
 8008242:	d050      	beq.n	80082e6 <HAL_TIMEx_HallSensor_Init+0xba>
 8008244:	4621      	mov	r1, r4
 8008246:	2302      	movs	r3, #2
 8008248:	f884 303d 	strb.w	r3, [r4, #61]	; 0x3d
 800824c:	f851 0b04 	ldr.w	r0, [r1], #4
 8008250:	f7ff fe68 	bl	8007f24 <TIM_Base_SetConfig>
 8008254:	68ab      	ldr	r3, [r5, #8]
 8008256:	6829      	ldr	r1, [r5, #0]
 8008258:	6820      	ldr	r0, [r4, #0]
 800825a:	2203      	movs	r2, #3
 800825c:	f7ff ff0c 	bl	8008078 <TIM_TI1_SetConfig>
 8008260:	6820      	ldr	r0, [r4, #0]
 8008262:	686e      	ldr	r6, [r5, #4]
 8008264:	6982      	ldr	r2, [r0, #24]
 8008266:	68e9      	ldr	r1, [r5, #12]
 8008268:	f022 020c 	bic.w	r2, r2, #12
 800826c:	6182      	str	r2, [r0, #24]
 800826e:	6983      	ldr	r3, [r0, #24]
 8008270:	4333      	orrs	r3, r6
 8008272:	6183      	str	r3, [r0, #24]
 8008274:	6843      	ldr	r3, [r0, #4]
 8008276:	f043 0380 	orr.w	r3, r3, #128	; 0x80
 800827a:	6043      	str	r3, [r0, #4]
 800827c:	6883      	ldr	r3, [r0, #8]
 800827e:	9102      	str	r1, [sp, #8]
 8008280:	f023 0370 	bic.w	r3, r3, #112	; 0x70
 8008284:	6083      	str	r3, [r0, #8]
 8008286:	6883      	ldr	r3, [r0, #8]
 8008288:	f043 0340 	orr.w	r3, r3, #64	; 0x40
 800828c:	6083      	str	r3, [r0, #8]
 800828e:	6883      	ldr	r3, [r0, #8]
 8008290:	f023 0307 	bic.w	r3, r3, #7
 8008294:	6083      	str	r3, [r0, #8]
 8008296:	6883      	ldr	r3, [r0, #8]
 8008298:	f043 0304 	orr.w	r3, r3, #4
 800829c:	6083      	str	r3, [r0, #8]
 800829e:	2500      	movs	r5, #0
 80082a0:	2370      	movs	r3, #112	; 0x70
 80082a2:	a901      	add	r1, sp, #4
 80082a4:	9301      	str	r3, [sp, #4]
 80082a6:	e9cd 5505 	strd	r5, r5, [sp, #20]
 80082aa:	e9cd 5503 	strd	r5, r5, [sp, #12]
 80082ae:	9507      	str	r5, [sp, #28]
 80082b0:	f7ff feae 	bl	8008010 <TIM_OC2_SetConfig>
 80082b4:	6822      	ldr	r2, [r4, #0]
 80082b6:	6853      	ldr	r3, [r2, #4]
 80082b8:	f023 0370 	bic.w	r3, r3, #112	; 0x70
 80082bc:	6053      	str	r3, [r2, #4]
 80082be:	6851      	ldr	r1, [r2, #4]
 80082c0:	2301      	movs	r3, #1
 80082c2:	f041 0150 	orr.w	r1, r1, #80	; 0x50
 80082c6:	4628      	mov	r0, r5
 80082c8:	6051      	str	r1, [r2, #4]
 80082ca:	f884 3046 	strb.w	r3, [r4, #70]	; 0x46
 80082ce:	f884 303e 	strb.w	r3, [r4, #62]	; 0x3e
 80082d2:	f884 303f 	strb.w	r3, [r4, #63]	; 0x3f
 80082d6:	f884 3042 	strb.w	r3, [r4, #66]	; 0x42
 80082da:	f884 3043 	strb.w	r3, [r4, #67]	; 0x43
 80082de:	f884 303d 	strb.w	r3, [r4, #61]	; 0x3d
 80082e2:	b008      	add	sp, #32
 80082e4:	bd70      	pop	{r4, r5, r6, pc}
 80082e6:	f880 203c 	strb.w	r2, [r0, #60]	; 0x3c
 80082ea:	f7ff ff9d 	bl	8008228 <HAL_TIMEx_HallSensor_MspInit>
 80082ee:	e7a9      	b.n	8008244 <HAL_TIMEx_HallSensor_Init+0x18>
 80082f0:	2001      	movs	r0, #1
 80082f2:	4770      	bx	lr

080082f4 <HAL_TIMEx_HallSensor_MspDeInit>:
 80082f4:	4770      	bx	lr
 80082f6:	bf00      	nop

080082f8 <HAL_TIMEx_HallSensor_DeInit>:
 80082f8:	2202      	movs	r2, #2
 80082fa:	6803      	ldr	r3, [r0, #0]
 80082fc:	b510      	push	{r4, lr}
 80082fe:	f880 203d 	strb.w	r2, [r0, #61]	; 0x3d
 8008302:	6a19      	ldr	r1, [r3, #32]
 8008304:	f241 1211 	movw	r2, #4369	; 0x1111
 8008308:	4211      	tst	r1, r2
 800830a:	4604      	mov	r4, r0
 800830c:	d108      	bne.n	8008320 <HAL_TIMEx_HallSensor_DeInit+0x28>
 800830e:	6a19      	ldr	r1, [r3, #32]
 8008310:	f240 4244 	movw	r2, #1092	; 0x444
 8008314:	4211      	tst	r1, r2
 8008316:	d103      	bne.n	8008320 <HAL_TIMEx_HallSensor_DeInit+0x28>
 8008318:	681a      	ldr	r2, [r3, #0]
 800831a:	f022 0201 	bic.w	r2, r2, #1
 800831e:	601a      	str	r2, [r3, #0]
 8008320:	4620      	mov	r0, r4
 8008322:	f7ff ffe7 	bl	80082f4 <HAL_TIMEx_HallSensor_MspDeInit>
 8008326:	2000      	movs	r0, #0
 8008328:	f884 0046 	strb.w	r0, [r4, #70]	; 0x46
 800832c:	f884 003c 	strb.w	r0, [r4, #60]	; 0x3c
 8008330:	f884 003e 	strb.w	r0, [r4, #62]	; 0x3e
 8008334:	f884 003f 	strb.w	r0, [r4, #63]	; 0x3f
 8008338:	f884 0042 	strb.w	r0, [r4, #66]	; 0x42
 800833c:	f884 0043 	strb.w	r0, [r4, #67]	; 0x43
 8008340:	f884 003d 	strb.w	r0, [r4, #61]	; 0x3d
 8008344:	bd10      	pop	{r4, pc}
 8008346:	bf00      	nop

08008348 <HAL_TIMEx_HallSensor_Start>:
 8008348:	b538      	push	{r3, r4, r5, lr}
 800834a:	f890 503e 	ldrb.w	r5, [r0, #62]	; 0x3e
 800834e:	f890 303f 	ldrb.w	r3, [r0, #63]	; 0x3f
 8008352:	f890 1042 	ldrb.w	r1, [r0, #66]	; 0x42
 8008356:	f890 2043 	ldrb.w	r2, [r0, #67]	; 0x43
 800835a:	2d01      	cmp	r5, #1
 800835c:	d105      	bne.n	800836a <HAL_TIMEx_HallSensor_Start+0x22>
 800835e:	b2db      	uxtb	r3, r3
 8008360:	2b01      	cmp	r3, #1
 8008362:	4604      	mov	r4, r0
 8008364:	b2e8      	uxtb	r0, r5
 8008366:	d002      	beq.n	800836e <HAL_TIMEx_HallSensor_Start+0x26>
 8008368:	bd38      	pop	{r3, r4, r5, pc}
 800836a:	2001      	movs	r0, #1
 800836c:	bd38      	pop	{r3, r4, r5, pc}
 800836e:	b2c9      	uxtb	r1, r1
 8008370:	2901      	cmp	r1, #1
 8008372:	d1f9      	bne.n	8008368 <HAL_TIMEx_HallSensor_Start+0x20>
 8008374:	b2d2      	uxtb	r2, r2
 8008376:	2a01      	cmp	r2, #1
 8008378:	d1f6      	bne.n	8008368 <HAL_TIMEx_HallSensor_Start+0x20>
 800837a:	2302      	movs	r3, #2
 800837c:	f884 303e 	strb.w	r3, [r4, #62]	; 0x3e
 8008380:	6820      	ldr	r0, [r4, #0]
 8008382:	f884 303f 	strb.w	r3, [r4, #63]	; 0x3f
 8008386:	2100      	movs	r1, #0
 8008388:	f884 3042 	strb.w	r3, [r4, #66]	; 0x42
 800838c:	f884 3043 	strb.w	r3, [r4, #67]	; 0x43
 8008390:	f7ff fec6 	bl	8008120 <TIM_CCxChannelCmd>
 8008394:	6823      	ldr	r3, [r4, #0]
 8008396:	2200      	movs	r2, #0
 8008398:	f2c4 0201 	movt	r2, #16385	; 0x4001
 800839c:	4293      	cmp	r3, r2
 800839e:	d02c      	beq.n	80083fa <HAL_TIMEx_HallSensor_Start+0xb2>
 80083a0:	f1b3 4f80 	cmp.w	r3, #1073741824	; 0x40000000
 80083a4:	d029      	beq.n	80083fa <HAL_TIMEx_HallSensor_Start+0xb2>
 80083a6:	f44f 6280 	mov.w	r2, #1024	; 0x400
 80083aa:	f2c4 0200 	movt	r2, #16384	; 0x4000
 80083ae:	4293      	cmp	r3, r2
 80083b0:	d023      	beq.n	80083fa <HAL_TIMEx_HallSensor_Start+0xb2>
 80083b2:	f44f 6200 	mov.w	r2, #2048	; 0x800
 80083b6:	f2c4 0200 	movt	r2, #16384	; 0x4000
 80083ba:	4293      	cmp	r3, r2
 80083bc:	d01d      	beq.n	80083fa <HAL_TIMEx_HallSensor_Start+0xb2>
 80083be:	f44f 6240 	mov.w	r2, #3072	; 0xc00
 80083c2:	f2c4 0200 	movt	r2, #16384	; 0x4000
 80083c6:	4293      	cmp	r3, r2
 80083c8:	d017      	beq.n	80083fa <HAL_TIMEx_HallSensor_Start+0xb2>
 80083ca:	f44f 6280 	mov.w	r2, #1024	; 0x400
 80083ce:	f2c4 0201 	movt	r2, #16385	; 0x4001
 80083d2:	4293      	cmp	r3, r2
 80083d4:	d011      	beq.n	80083fa <HAL_TIMEx_HallSensor_Start+0xb2>
 80083d6:	f44f 4280 	mov.w	r2, #16384	; 0x4000
 80083da:	f2c4 0201 	movt	r2, #16385	; 0x4001
 80083de:	4293      	cmp	r3, r2
 80083e0:	d00b      	beq.n	80083fa <HAL_TIMEx_HallSensor_Start+0xb2>
 80083e2:	f44f 52c0 	mov.w	r2, #6144	; 0x1800
 80083e6:	f2c4 0200 	movt	r2, #16384	; 0x4000
 80083ea:	4293      	cmp	r3, r2
 80083ec:	d005      	beq.n	80083fa <HAL_TIMEx_HallSensor_Start+0xb2>
 80083ee:	681a      	ldr	r2, [r3, #0]
 80083f0:	f042 0201 	orr.w	r2, r2, #1
 80083f4:	601a      	str	r2, [r3, #0]
 80083f6:	2000      	movs	r0, #0
 80083f8:	bd38      	pop	{r3, r4, r5, pc}
 80083fa:	689a      	ldr	r2, [r3, #8]
 80083fc:	f002 0207 	and.w	r2, r2, #7
 8008400:	2a06      	cmp	r2, #6
 8008402:	d1f4      	bne.n	80083ee <HAL_TIMEx_HallSensor_Start+0xa6>
 8008404:	2000      	movs	r0, #0
 8008406:	bd38      	pop	{r3, r4, r5, pc}

08008408 <HAL_TIMEx_HallSensor_Stop>:
 8008408:	2200      	movs	r2, #0
 800840a:	b510      	push	{r4, lr}
 800840c:	4604      	mov	r4, r0
 800840e:	4611      	mov	r1, r2
 8008410:	6800      	ldr	r0, [r0, #0]
 8008412:	f7ff fe85 	bl	8008120 <TIM_CCxChannelCmd>
 8008416:	6823      	ldr	r3, [r4, #0]
 8008418:	6a19      	ldr	r1, [r3, #32]
 800841a:	f241 1211 	movw	r2, #4369	; 0x1111
 800841e:	4211      	tst	r1, r2
 8008420:	d108      	bne.n	8008434 <HAL_TIMEx_HallSensor_Stop+0x2c>
 8008422:	6a19      	ldr	r1, [r3, #32]
 8008424:	f240 4244 	movw	r2, #1092	; 0x444
 8008428:	4211      	tst	r1, r2
 800842a:	d103      	bne.n	8008434 <HAL_TIMEx_HallSensor_Stop+0x2c>
 800842c:	681a      	ldr	r2, [r3, #0]
 800842e:	f022 0201 	bic.w	r2, r2, #1
 8008432:	601a      	str	r2, [r3, #0]
 8008434:	2301      	movs	r3, #1
 8008436:	f884 303e 	strb.w	r3, [r4, #62]	; 0x3e
 800843a:	f884 303f 	strb.w	r3, [r4, #63]	; 0x3f
 800843e:	f884 3042 	strb.w	r3, [r4, #66]	; 0x42
 8008442:	f884 3043 	strb.w	r3, [r4, #67]	; 0x43
 8008446:	2000      	movs	r0, #0
 8008448:	bd10      	pop	{r4, pc}
 800844a:	bf00      	nop

0800844c <HAL_TIMEx_HallSensor_Start_IT>:
 800844c:	b538      	push	{r3, r4, r5, lr}
 800844e:	f890 503e 	ldrb.w	r5, [r0, #62]	; 0x3e
 8008452:	f890 303f 	ldrb.w	r3, [r0, #63]	; 0x3f
 8008456:	f890 1042 	ldrb.w	r1, [r0, #66]	; 0x42
 800845a:	f890 2043 	ldrb.w	r2, [r0, #67]	; 0x43
 800845e:	2d01      	cmp	r5, #1
 8008460:	d105      	bne.n	800846e <HAL_TIMEx_HallSensor_Start_IT+0x22>
 8008462:	b2db      	uxtb	r3, r3
 8008464:	2b01      	cmp	r3, #1
 8008466:	4604      	mov	r4, r0
 8008468:	b2e8      	uxtb	r0, r5
 800846a:	d002      	beq.n	8008472 <HAL_TIMEx_HallSensor_Start_IT+0x26>
 800846c:	bd38      	pop	{r3, r4, r5, pc}
 800846e:	2001      	movs	r0, #1
 8008470:	bd38      	pop	{r3, r4, r5, pc}
 8008472:	b2c9      	uxtb	r1, r1
 8008474:	2901      	cmp	r1, #1
 8008476:	d1f9      	bne.n	800846c <HAL_TIMEx_HallSensor_Start_IT+0x20>
 8008478:	b2d2      	uxtb	r2, r2
 800847a:	2a01      	cmp	r2, #1
 800847c:	d1f6      	bne.n	800846c <HAL_TIMEx_HallSensor_Start_IT+0x20>
 800847e:	2302      	movs	r3, #2
 8008480:	6820      	ldr	r0, [r4, #0]
 8008482:	f884 303e 	strb.w	r3, [r4, #62]	; 0x3e
 8008486:	f884 303f 	strb.w	r3, [r4, #63]	; 0x3f
 800848a:	f884 3042 	strb.w	r3, [r4, #66]	; 0x42
 800848e:	f884 3043 	strb.w	r3, [r4, #67]	; 0x43
 8008492:	68c3      	ldr	r3, [r0, #12]
 8008494:	f043 0302 	orr.w	r3, r3, #2
 8008498:	60c3      	str	r3, [r0, #12]
 800849a:	2100      	movs	r1, #0
 800849c:	f7ff fe40 	bl	8008120 <TIM_CCxChannelCmd>
 80084a0:	6823      	ldr	r3, [r4, #0]
 80084a2:	2200      	movs	r2, #0
 80084a4:	f2c4 0201 	movt	r2, #16385	; 0x4001
 80084a8:	4293      	cmp	r3, r2
 80084aa:	d02c      	beq.n	8008506 <HAL_TIMEx_HallSensor_Start_IT+0xba>
 80084ac:	f1b3 4f80 	cmp.w	r3, #1073741824	; 0x40000000
 80084b0:	d029      	beq.n	8008506 <HAL_TIMEx_HallSensor_Start_IT+0xba>
 80084b2:	f44f 6280 	mov.w	r2, #1024	; 0x400
 80084b6:	f2c4 0200 	movt	r2, #16384	; 0x4000
 80084ba:	4293      	cmp	r3, r2
 80084bc:	d023      	beq.n	8008506 <HAL_TIMEx_HallSensor_Start_IT+0xba>
 80084be:	f44f 6200 	mov.w	r2, #2048	; 0x800
 80084c2:	f2c4 0200 	movt	r2, #16384	; 0x4000
 80084c6:	4293      	cmp	r3, r2
 80084c8:	d01d      	beq.n	8008506 <HAL_TIMEx_HallSensor_Start_IT+0xba>
 80084ca:	f44f 6240 	mov.w	r2, #3072	; 0xc00
 80084ce:	f2c4 0200 	movt	r2, #16384	; 0x4000
 80084d2:	4293      	cmp	r3, r2
 80084d4:	d017      	beq.n	8008506 <HAL_TIMEx_HallSensor_Start_IT+0xba>
 80084d6:	f44f 6280 	mov.w	r2, #1024	; 0x400
 80084da:	f2c4 0201 	movt	r2, #16385	; 0x4001
 80084de:	4293      	cmp	r3, r2
 80084e0:	d011      	beq.n	8008506 <HAL_TIMEx_HallSensor_Start_IT+0xba>
 80084e2:	f44f 4280 	mov.w	r2, #16384	; 0x4000
 80084e6:	f2c4 0201 	movt	r2, #16385	; 0x4001
 80084ea:	4293      	cmp	r3, r2
 80084ec:	d00b      	beq.n	8008506 <HAL_TIMEx_HallSensor_Start_IT+0xba>
 80084ee:	f44f 52c0 	mov.w	r2, #6144	; 0x1800
 80084f2:	f2c4 0200 	movt	r2, #16384	; 0x4000
 80084f6:	4293      	cmp	r3, r2
 80084f8:	d005      	beq.n	8008506 <HAL_TIMEx_HallSensor_Start_IT+0xba>
 80084fa:	681a      	ldr	r2, [r3, #0]
 80084fc:	f042 0201 	orr.w	r2, r2, #1
 8008500:	601a      	str	r2, [r3, #0]
 8008502:	2000      	movs	r0, #0
 8008504:	bd38      	pop	{r3, r4, r5, pc}
 8008506:	689a      	ldr	r2, [r3, #8]
 8008508:	f002 0207 	and.w	r2, r2, #7
 800850c:	2a06      	cmp	r2, #6
 800850e:	d1f4      	bne.n	80084fa <HAL_TIMEx_HallSensor_Start_IT+0xae>
 8008510:	2000      	movs	r0, #0
 8008512:	bd38      	pop	{r3, r4, r5, pc}

08008514 <HAL_TIMEx_HallSensor_Stop_IT>:
 8008514:	2200      	movs	r2, #0
 8008516:	b510      	push	{r4, lr}
 8008518:	4604      	mov	r4, r0
 800851a:	4611      	mov	r1, r2
 800851c:	6800      	ldr	r0, [r0, #0]
 800851e:	f7ff fdff 	bl	8008120 <TIM_CCxChannelCmd>
 8008522:	6823      	ldr	r3, [r4, #0]
 8008524:	68da      	ldr	r2, [r3, #12]
 8008526:	f022 0202 	bic.w	r2, r2, #2
 800852a:	60da      	str	r2, [r3, #12]
 800852c:	6a19      	ldr	r1, [r3, #32]
 800852e:	f241 1211 	movw	r2, #4369	; 0x1111
 8008532:	4211      	tst	r1, r2
 8008534:	d108      	bne.n	8008548 <HAL_TIMEx_HallSensor_Stop_IT+0x34>
 8008536:	6a19      	ldr	r1, [r3, #32]
 8008538:	f240 4244 	movw	r2, #1092	; 0x444
 800853c:	4211      	tst	r1, r2
 800853e:	d103      	bne.n	8008548 <HAL_TIMEx_HallSensor_Stop_IT+0x34>
 8008540:	681a      	ldr	r2, [r3, #0]
 8008542:	f022 0201 	bic.w	r2, r2, #1
 8008546:	601a      	str	r2, [r3, #0]
 8008548:	2301      	movs	r3, #1
 800854a:	f884 303e 	strb.w	r3, [r4, #62]	; 0x3e
 800854e:	f884 303f 	strb.w	r3, [r4, #63]	; 0x3f
 8008552:	f884 3042 	strb.w	r3, [r4, #66]	; 0x42
 8008556:	f884 3043 	strb.w	r3, [r4, #67]	; 0x43
 800855a:	2000      	movs	r0, #0
 800855c:	bd10      	pop	{r4, pc}
 800855e:	bf00      	nop

08008560 <HAL_TIMEx_HallSensor_Start_DMA>:
 8008560:	e92d 41f0 	stmdb	sp!, {r4, r5, r6, r7, r8, lr}
 8008564:	f890 603e 	ldrb.w	r6, [r0, #62]	; 0x3e
 8008568:	f890 5042 	ldrb.w	r5, [r0, #66]	; 0x42
 800856c:	2e02      	cmp	r6, #2
 800856e:	4604      	mov	r4, r0
 8008570:	b2f0      	uxtb	r0, r6
 8008572:	d005      	beq.n	8008580 <HAL_TIMEx_HallSensor_Start_DMA+0x20>
 8008574:	b2ed      	uxtb	r5, r5
 8008576:	2d02      	cmp	r5, #2
 8008578:	d067      	beq.n	800864a <HAL_TIMEx_HallSensor_Start_DMA+0xea>
 800857a:	2801      	cmp	r0, #1
 800857c:	d002      	beq.n	8008584 <HAL_TIMEx_HallSensor_Start_DMA+0x24>
 800857e:	2001      	movs	r0, #1
 8008580:	e8bd 81f0 	ldmia.w	sp!, {r4, r5, r6, r7, r8, pc}
 8008584:	2d01      	cmp	r5, #1
 8008586:	d1fa      	bne.n	800857e <HAL_TIMEx_HallSensor_Start_DMA+0x1e>
 8008588:	4688      	mov	r8, r1
 800858a:	4617      	mov	r7, r2
 800858c:	2900      	cmp	r1, #0
 800858e:	d05f      	beq.n	8008650 <HAL_TIMEx_HallSensor_Start_DMA+0xf0>
 8008590:	2302      	movs	r3, #2
 8008592:	f884 303e 	strb.w	r3, [r4, #62]	; 0x3e
 8008596:	6820      	ldr	r0, [r4, #0]
 8008598:	f884 3042 	strb.w	r3, [r4, #66]	; 0x42
 800859c:	2201      	movs	r2, #1
 800859e:	2100      	movs	r1, #0
 80085a0:	f7ff fdbe 	bl	8008120 <TIM_CCxChannelCmd>
 80085a4:	f647 25dd 	movw	r5, #31453	; 0x7add
 80085a8:	6a60      	ldr	r0, [r4, #36]	; 0x24
 80085aa:	6821      	ldr	r1, [r4, #0]
 80085ac:	f6c0 0500 	movt	r5, #2048	; 0x800
 80085b0:	f647 3675 	movw	r6, #31605	; 0x7b75
 80085b4:	63c5      	str	r5, [r0, #60]	; 0x3c
 80085b6:	f647 653d 	movw	r5, #32317	; 0x7e3d
 80085ba:	f6c0 0600 	movt	r6, #2048	; 0x800
 80085be:	f6c0 0500 	movt	r5, #2048	; 0x800
 80085c2:	463b      	mov	r3, r7
 80085c4:	4642      	mov	r2, r8
 80085c6:	6406      	str	r6, [r0, #64]	; 0x40
 80085c8:	64c5      	str	r5, [r0, #76]	; 0x4c
 80085ca:	3134      	adds	r1, #52	; 0x34
 80085cc:	f7f9 f94a 	bl	8001864 <HAL_DMA_Start_IT>
 80085d0:	2800      	cmp	r0, #0
 80085d2:	d1d4      	bne.n	800857e <HAL_TIMEx_HallSensor_Start_DMA+0x1e>
 80085d4:	6823      	ldr	r3, [r4, #0]
 80085d6:	2100      	movs	r1, #0
 80085d8:	68da      	ldr	r2, [r3, #12]
 80085da:	f2c4 0101 	movt	r1, #16385	; 0x4001
 80085de:	f442 7200 	orr.w	r2, r2, #512	; 0x200
 80085e2:	428b      	cmp	r3, r1
 80085e4:	60da      	str	r2, [r3, #12]
 80085e6:	d026      	beq.n	8008636 <HAL_TIMEx_HallSensor_Start_DMA+0xd6>
 80085e8:	f1b3 4f80 	cmp.w	r3, #1073741824	; 0x40000000
 80085ec:	d023      	beq.n	8008636 <HAL_TIMEx_HallSensor_Start_DMA+0xd6>
 80085ee:	f44f 6280 	mov.w	r2, #1024	; 0x400
 80085f2:	f2c4 0200 	movt	r2, #16384	; 0x4000
 80085f6:	4293      	cmp	r3, r2
 80085f8:	d01d      	beq.n	8008636 <HAL_TIMEx_HallSensor_Start_DMA+0xd6>
 80085fa:	f44f 6200 	mov.w	r2, #2048	; 0x800
 80085fe:	f2c4 0200 	movt	r2, #16384	; 0x4000
 8008602:	4293      	cmp	r3, r2
 8008604:	d017      	beq.n	8008636 <HAL_TIMEx_HallSensor_Start_DMA+0xd6>
 8008606:	f44f 6240 	mov.w	r2, #3072	; 0xc00
 800860a:	f2c4 0200 	movt	r2, #16384	; 0x4000
 800860e:	4293      	cmp	r3, r2
 8008610:	d011      	beq.n	8008636 <HAL_TIMEx_HallSensor_Start_DMA+0xd6>
 8008612:	f44f 6280 	mov.w	r2, #1024	; 0x400
 8008616:	f2c4 0201 	movt	r2, #16385	; 0x4001
 800861a:	4293      	cmp	r3, r2
 800861c:	d00b      	beq.n	8008636 <HAL_TIMEx_HallSensor_Start_DMA+0xd6>
 800861e:	f44f 4280 	mov.w	r2, #16384	; 0x4000
 8008622:	f2c4 0201 	movt	r2, #16385	; 0x4001
 8008626:	4293      	cmp	r3, r2
 8008628:	d005      	beq.n	8008636 <HAL_TIMEx_HallSensor_Start_DMA+0xd6>
 800862a:	f44f 52c0 	mov.w	r2, #6144	; 0x1800
 800862e:	f2c4 0200 	movt	r2, #16384	; 0x4000
 8008632:	4293      	cmp	r3, r2
 8008634:	d104      	bne.n	8008640 <HAL_TIMEx_HallSensor_Start_DMA+0xe0>
 8008636:	689a      	ldr	r2, [r3, #8]
 8008638:	f002 0207 	and.w	r2, r2, #7
 800863c:	2a06      	cmp	r2, #6
 800863e:	d09f      	beq.n	8008580 <HAL_TIMEx_HallSensor_Start_DMA+0x20>
 8008640:	681a      	ldr	r2, [r3, #0]
 8008642:	f042 0201 	orr.w	r2, r2, #1
 8008646:	601a      	str	r2, [r3, #0]
 8008648:	e79a      	b.n	8008580 <HAL_TIMEx_HallSensor_Start_DMA+0x20>
 800864a:	4628      	mov	r0, r5
 800864c:	e8bd 81f0 	ldmia.w	sp!, {r4, r5, r6, r7, r8, pc}
 8008650:	2a00      	cmp	r2, #0
 8008652:	d09d      	beq.n	8008590 <HAL_TIMEx_HallSensor_Start_DMA+0x30>
 8008654:	e793      	b.n	800857e <HAL_TIMEx_HallSensor_Start_DMA+0x1e>
 8008656:	bf00      	nop

08008658 <HAL_TIMEx_HallSensor_Stop_DMA>:
 8008658:	b510      	push	{r4, lr}
 800865a:	2200      	movs	r2, #0
 800865c:	4604      	mov	r4, r0
 800865e:	4611      	mov	r1, r2
 8008660:	6800      	ldr	r0, [r0, #0]
 8008662:	f7ff fd5d 	bl	8008120 <TIM_CCxChannelCmd>
 8008666:	6822      	ldr	r2, [r4, #0]
 8008668:	6a60      	ldr	r0, [r4, #36]	; 0x24
 800866a:	68d3      	ldr	r3, [r2, #12]
 800866c:	f423 7300 	bic.w	r3, r3, #512	; 0x200
 8008670:	60d3      	str	r3, [r2, #12]
 8008672:	f7f9 f97d 	bl	8001970 <HAL_DMA_Abort_IT>
 8008676:	6823      	ldr	r3, [r4, #0]
 8008678:	6a19      	ldr	r1, [r3, #32]
 800867a:	f241 1211 	movw	r2, #4369	; 0x1111
 800867e:	4211      	tst	r1, r2
 8008680:	d108      	bne.n	8008694 <HAL_TIMEx_HallSensor_Stop_DMA+0x3c>
 8008682:	6a19      	ldr	r1, [r3, #32]
 8008684:	f240 4244 	movw	r2, #1092	; 0x444
 8008688:	4211      	tst	r1, r2
 800868a:	d103      	bne.n	8008694 <HAL_TIMEx_HallSensor_Stop_DMA+0x3c>
 800868c:	681a      	ldr	r2, [r3, #0]
 800868e:	f022 0201 	bic.w	r2, r2, #1
 8008692:	601a      	str	r2, [r3, #0]
 8008694:	2301      	movs	r3, #1
 8008696:	f884 303e 	strb.w	r3, [r4, #62]	; 0x3e
 800869a:	f884 3042 	strb.w	r3, [r4, #66]	; 0x42
 800869e:	2000      	movs	r0, #0
 80086a0:	bd10      	pop	{r4, pc}
 80086a2:	bf00      	nop

080086a4 <HAL_TIMEx_OCN_Start>:
 80086a4:	2900      	cmp	r1, #0
 80086a6:	d14e      	bne.n	8008746 <HAL_TIMEx_OCN_Start+0xa2>
 80086a8:	f890 3042 	ldrb.w	r3, [r0, #66]	; 0x42
 80086ac:	2b01      	cmp	r3, #1
 80086ae:	d152      	bne.n	8008756 <HAL_TIMEx_OCN_Start+0xb2>
 80086b0:	2302      	movs	r3, #2
 80086b2:	f880 3042 	strb.w	r3, [r0, #66]	; 0x42
 80086b6:	6803      	ldr	r3, [r0, #0]
 80086b8:	2204      	movs	r2, #4
 80086ba:	6a18      	ldr	r0, [r3, #32]
 80086bc:	f001 011f 	and.w	r1, r1, #31
 80086c0:	fa02 f101 	lsl.w	r1, r2, r1
 80086c4:	ea20 0001 	bic.w	r0, r0, r1
 80086c8:	6218      	str	r0, [r3, #32]
 80086ca:	6a1a      	ldr	r2, [r3, #32]
 80086cc:	4311      	orrs	r1, r2
 80086ce:	6219      	str	r1, [r3, #32]
 80086d0:	6c5a      	ldr	r2, [r3, #68]	; 0x44
 80086d2:	2100      	movs	r1, #0
 80086d4:	f2c4 0101 	movt	r1, #16385	; 0x4001
 80086d8:	f442 4200 	orr.w	r2, r2, #32768	; 0x8000
 80086dc:	428b      	cmp	r3, r1
 80086de:	645a      	str	r2, [r3, #68]	; 0x44
 80086e0:	d026      	beq.n	8008730 <HAL_TIMEx_OCN_Start+0x8c>
 80086e2:	f1b3 4f80 	cmp.w	r3, #1073741824	; 0x40000000
 80086e6:	d023      	beq.n	8008730 <HAL_TIMEx_OCN_Start+0x8c>
 80086e8:	f44f 6280 	mov.w	r2, #1024	; 0x400
 80086ec:	f2c4 0200 	movt	r2, #16384	; 0x4000
 80086f0:	4293      	cmp	r3, r2
 80086f2:	d01d      	beq.n	8008730 <HAL_TIMEx_OCN_Start+0x8c>
 80086f4:	f44f 6200 	mov.w	r2, #2048	; 0x800
 80086f8:	f2c4 0200 	movt	r2, #16384	; 0x4000
 80086fc:	4293      	cmp	r3, r2
 80086fe:	d017      	beq.n	8008730 <HAL_TIMEx_OCN_Start+0x8c>
 8008700:	f44f 6240 	mov.w	r2, #3072	; 0xc00
 8008704:	f2c4 0200 	movt	r2, #16384	; 0x4000
 8008708:	4293      	cmp	r3, r2
 800870a:	d011      	beq.n	8008730 <HAL_TIMEx_OCN_Start+0x8c>
 800870c:	f44f 6280 	mov.w	r2, #1024	; 0x400
 8008710:	f2c4 0201 	movt	r2, #16385	; 0x4001
 8008714:	4293      	cmp	r3, r2
 8008716:	d00b      	beq.n	8008730 <HAL_TIMEx_OCN_Start+0x8c>
 8008718:	f44f 4280 	mov.w	r2, #16384	; 0x4000
 800871c:	f2c4 0201 	movt	r2, #16385	; 0x4001
 8008720:	4293      	cmp	r3, r2
 8008722:	d005      	beq.n	8008730 <HAL_TIMEx_OCN_Start+0x8c>
 8008724:	f44f 52c0 	mov.w	r2, #6144	; 0x1800
 8008728:	f2c4 0200 	movt	r2, #16384	; 0x4000
 800872c:	4293      	cmp	r3, r2
 800872e:	d104      	bne.n	800873a <HAL_TIMEx_OCN_Start+0x96>
 8008730:	689a      	ldr	r2, [r3, #8]
 8008732:	f002 0207 	and.w	r2, r2, #7
 8008736:	2a06      	cmp	r2, #6
 8008738:	d00f      	beq.n	800875a <HAL_TIMEx_OCN_Start+0xb6>
 800873a:	681a      	ldr	r2, [r3, #0]
 800873c:	f042 0201 	orr.w	r2, r2, #1
 8008740:	601a      	str	r2, [r3, #0]
 8008742:	2000      	movs	r0, #0
 8008744:	4770      	bx	lr
 8008746:	2904      	cmp	r1, #4
 8008748:	d00d      	beq.n	8008766 <HAL_TIMEx_OCN_Start+0xc2>
 800874a:	2908      	cmp	r1, #8
 800874c:	d013      	beq.n	8008776 <HAL_TIMEx_OCN_Start+0xd2>
 800874e:	f890 3045 	ldrb.w	r3, [r0, #69]	; 0x45
 8008752:	2b01      	cmp	r3, #1
 8008754:	d003      	beq.n	800875e <HAL_TIMEx_OCN_Start+0xba>
 8008756:	2001      	movs	r0, #1
 8008758:	4770      	bx	lr
 800875a:	2000      	movs	r0, #0
 800875c:	4770      	bx	lr
 800875e:	2302      	movs	r3, #2
 8008760:	f880 3045 	strb.w	r3, [r0, #69]	; 0x45
 8008764:	e7a7      	b.n	80086b6 <HAL_TIMEx_OCN_Start+0x12>
 8008766:	f890 3043 	ldrb.w	r3, [r0, #67]	; 0x43
 800876a:	2b01      	cmp	r3, #1
 800876c:	d1f3      	bne.n	8008756 <HAL_TIMEx_OCN_Start+0xb2>
 800876e:	2302      	movs	r3, #2
 8008770:	f880 3043 	strb.w	r3, [r0, #67]	; 0x43
 8008774:	e79f      	b.n	80086b6 <HAL_TIMEx_OCN_Start+0x12>
 8008776:	f890 3044 	ldrb.w	r3, [r0, #68]	; 0x44
 800877a:	2b01      	cmp	r3, #1
 800877c:	d1eb      	bne.n	8008756 <HAL_TIMEx_OCN_Start+0xb2>
 800877e:	2302      	movs	r3, #2
 8008780:	f880 3044 	strb.w	r3, [r0, #68]	; 0x44
 8008784:	e797      	b.n	80086b6 <HAL_TIMEx_OCN_Start+0x12>
 8008786:	bf00      	nop

08008788 <HAL_TIMEx_OCN_Stop>:
 8008788:	6803      	ldr	r3, [r0, #0]
 800878a:	b430      	push	{r4, r5}
 800878c:	6a1a      	ldr	r2, [r3, #32]
 800878e:	f001 051f 	and.w	r5, r1, #31
 8008792:	2404      	movs	r4, #4
 8008794:	40ac      	lsls	r4, r5
 8008796:	ea22 0204 	bic.w	r2, r2, r4
 800879a:	621a      	str	r2, [r3, #32]
 800879c:	6a1a      	ldr	r2, [r3, #32]
 800879e:	621a      	str	r2, [r3, #32]
 80087a0:	6a1c      	ldr	r4, [r3, #32]
 80087a2:	f241 1211 	movw	r2, #4369	; 0x1111
 80087a6:	4214      	tst	r4, r2
 80087a8:	d104      	bne.n	80087b4 <HAL_TIMEx_OCN_Stop+0x2c>
 80087aa:	6a1c      	ldr	r4, [r3, #32]
 80087ac:	f240 4244 	movw	r2, #1092	; 0x444
 80087b0:	4214      	tst	r4, r2
 80087b2:	d020      	beq.n	80087f6 <HAL_TIMEx_OCN_Stop+0x6e>
 80087b4:	6a1c      	ldr	r4, [r3, #32]
 80087b6:	f241 1211 	movw	r2, #4369	; 0x1111
 80087ba:	4214      	tst	r4, r2
 80087bc:	d104      	bne.n	80087c8 <HAL_TIMEx_OCN_Stop+0x40>
 80087be:	6a1c      	ldr	r4, [r3, #32]
 80087c0:	f240 4244 	movw	r2, #1092	; 0x444
 80087c4:	4214      	tst	r4, r2
 80087c6:	d011      	beq.n	80087ec <HAL_TIMEx_OCN_Stop+0x64>
 80087c8:	2301      	movs	r3, #1
 80087ca:	b921      	cbnz	r1, 80087d6 <HAL_TIMEx_OCN_Stop+0x4e>
 80087cc:	f880 3042 	strb.w	r3, [r0, #66]	; 0x42
 80087d0:	bc30      	pop	{r4, r5}
 80087d2:	2000      	movs	r0, #0
 80087d4:	4770      	bx	lr
 80087d6:	2904      	cmp	r1, #4
 80087d8:	d012      	beq.n	8008800 <HAL_TIMEx_OCN_Stop+0x78>
 80087da:	2908      	cmp	r1, #8
 80087dc:	bf0c      	ite	eq
 80087de:	f880 3044 	strbeq.w	r3, [r0, #68]	; 0x44
 80087e2:	f880 3045 	strbne.w	r3, [r0, #69]	; 0x45
 80087e6:	bc30      	pop	{r4, r5}
 80087e8:	2000      	movs	r0, #0
 80087ea:	4770      	bx	lr
 80087ec:	681a      	ldr	r2, [r3, #0]
 80087ee:	f022 0201 	bic.w	r2, r2, #1
 80087f2:	601a      	str	r2, [r3, #0]
 80087f4:	e7e8      	b.n	80087c8 <HAL_TIMEx_OCN_Stop+0x40>
 80087f6:	6c5a      	ldr	r2, [r3, #68]	; 0x44
 80087f8:	f422 4200 	bic.w	r2, r2, #32768	; 0x8000
 80087fc:	645a      	str	r2, [r3, #68]	; 0x44
 80087fe:	e7d9      	b.n	80087b4 <HAL_TIMEx_OCN_Stop+0x2c>
 8008800:	f880 3043 	strb.w	r3, [r0, #67]	; 0x43
 8008804:	bc30      	pop	{r4, r5}
 8008806:	2000      	movs	r0, #0
 8008808:	4770      	bx	lr
 800880a:	bf00      	nop

0800880c <HAL_TIMEx_OCN_Start_IT>:
 800880c:	2900      	cmp	r1, #0
 800880e:	d157      	bne.n	80088c0 <HAL_TIMEx_OCN_Start_IT+0xb4>
 8008810:	f890 3042 	ldrb.w	r3, [r0, #66]	; 0x42
 8008814:	2b01      	cmp	r3, #1
 8008816:	d161      	bne.n	80088dc <HAL_TIMEx_OCN_Start_IT+0xd0>
 8008818:	6803      	ldr	r3, [r0, #0]
 800881a:	2202      	movs	r2, #2
 800881c:	f880 2042 	strb.w	r2, [r0, #66]	; 0x42
 8008820:	68da      	ldr	r2, [r3, #12]
 8008822:	f042 0202 	orr.w	r2, r2, #2
 8008826:	60da      	str	r2, [r3, #12]
 8008828:	68da      	ldr	r2, [r3, #12]
 800882a:	f042 0280 	orr.w	r2, r2, #128	; 0x80
 800882e:	60da      	str	r2, [r3, #12]
 8008830:	6a18      	ldr	r0, [r3, #32]
 8008832:	2204      	movs	r2, #4
 8008834:	f001 011f 	and.w	r1, r1, #31
 8008838:	fa02 f101 	lsl.w	r1, r2, r1
 800883c:	ea20 0001 	bic.w	r0, r0, r1
 8008840:	6218      	str	r0, [r3, #32]
 8008842:	6a1a      	ldr	r2, [r3, #32]
 8008844:	4311      	orrs	r1, r2
 8008846:	6219      	str	r1, [r3, #32]
 8008848:	6c5a      	ldr	r2, [r3, #68]	; 0x44
 800884a:	2100      	movs	r1, #0
 800884c:	f2c4 0101 	movt	r1, #16385	; 0x4001
 8008850:	f442 4200 	orr.w	r2, r2, #32768	; 0x8000
 8008854:	428b      	cmp	r3, r1
 8008856:	645a      	str	r2, [r3, #68]	; 0x44
 8008858:	d026      	beq.n	80088a8 <HAL_TIMEx_OCN_Start_IT+0x9c>
 800885a:	f1b3 4f80 	cmp.w	r3, #1073741824	; 0x40000000
 800885e:	d023      	beq.n	80088a8 <HAL_TIMEx_OCN_Start_IT+0x9c>
 8008860:	f44f 6280 	mov.w	r2, #1024	; 0x400
 8008864:	f2c4 0200 	movt	r2, #16384	; 0x4000
 8008868:	4293      	cmp	r3, r2
 800886a:	d01d      	beq.n	80088a8 <HAL_TIMEx_OCN_Start_IT+0x9c>
 800886c:	f44f 6200 	mov.w	r2, #2048	; 0x800
 8008870:	f2c4 0200 	movt	r2, #16384	; 0x4000
 8008874:	4293      	cmp	r3, r2
 8008876:	d017      	beq.n	80088a8 <HAL_TIMEx_OCN_Start_IT+0x9c>
 8008878:	f44f 6240 	mov.w	r2, #3072	; 0xc00
 800887c:	f2c4 0200 	movt	r2, #16384	; 0x4000
 8008880:	4293      	cmp	r3, r2
 8008882:	d011      	beq.n	80088a8 <HAL_TIMEx_OCN_Start_IT+0x9c>
 8008884:	f44f 6280 	mov.w	r2, #1024	; 0x400
 8008888:	f2c4 0201 	movt	r2, #16385	; 0x4001
 800888c:	4293      	cmp	r3, r2
 800888e:	d00b      	beq.n	80088a8 <HAL_TIMEx_OCN_Start_IT+0x9c>
 8008890:	f44f 4280 	mov.w	r2, #16384	; 0x4000
 8008894:	f2c4 0201 	movt	r2, #16385	; 0x4001
 8008898:	4293      	cmp	r3, r2
 800889a:	d005      	beq.n	80088a8 <HAL_TIMEx_OCN_Start_IT+0x9c>
 800889c:	f44f 52c0 	mov.w	r2, #6144	; 0x1800
 80088a0:	f2c4 0200 	movt	r2, #16384	; 0x4000
 80088a4:	4293      	cmp	r3, r2
 80088a6:	d104      	bne.n	80088b2 <HAL_TIMEx_OCN_Start_IT+0xa6>
 80088a8:	689a      	ldr	r2, [r3, #8]
 80088aa:	f002 0207 	and.w	r2, r2, #7
 80088ae:	2a06      	cmp	r2, #6
 80088b0:	d024      	beq.n	80088fc <HAL_TIMEx_OCN_Start_IT+0xf0>
 80088b2:	681a      	ldr	r2, [r3, #0]
 80088b4:	f042 0201 	orr.w	r2, r2, #1
 80088b8:	601a      	str	r2, [r3, #0]
 80088ba:	2300      	movs	r3, #0
 80088bc:	4618      	mov	r0, r3
 80088be:	4770      	bx	lr
 80088c0:	2904      	cmp	r1, #4
 80088c2:	d00e      	beq.n	80088e2 <HAL_TIMEx_OCN_Start_IT+0xd6>
 80088c4:	2908      	cmp	r1, #8
 80088c6:	d01c      	beq.n	8008902 <HAL_TIMEx_OCN_Start_IT+0xf6>
 80088c8:	f890 2045 	ldrb.w	r2, [r0, #69]	; 0x45
 80088cc:	2a01      	cmp	r2, #1
 80088ce:	b2d3      	uxtb	r3, r2
 80088d0:	d104      	bne.n	80088dc <HAL_TIMEx_OCN_Start_IT+0xd0>
 80088d2:	2202      	movs	r2, #2
 80088d4:	f880 2045 	strb.w	r2, [r0, #69]	; 0x45
 80088d8:	4618      	mov	r0, r3
 80088da:	4770      	bx	lr
 80088dc:	2301      	movs	r3, #1
 80088de:	4618      	mov	r0, r3
 80088e0:	4770      	bx	lr
 80088e2:	f890 3043 	ldrb.w	r3, [r0, #67]	; 0x43
 80088e6:	2b01      	cmp	r3, #1
 80088e8:	d1f8      	bne.n	80088dc <HAL_TIMEx_OCN_Start_IT+0xd0>
 80088ea:	6803      	ldr	r3, [r0, #0]
 80088ec:	2202      	movs	r2, #2
 80088ee:	f880 2043 	strb.w	r2, [r0, #67]	; 0x43
 80088f2:	68da      	ldr	r2, [r3, #12]
 80088f4:	f042 0204 	orr.w	r2, r2, #4
 80088f8:	60da      	str	r2, [r3, #12]
 80088fa:	e795      	b.n	8008828 <HAL_TIMEx_OCN_Start_IT+0x1c>
 80088fc:	2300      	movs	r3, #0
 80088fe:	4618      	mov	r0, r3
 8008900:	4770      	bx	lr
 8008902:	f890 3044 	ldrb.w	r3, [r0, #68]	; 0x44
 8008906:	2b01      	cmp	r3, #1
 8008908:	d1e8      	bne.n	80088dc <HAL_TIMEx_OCN_Start_IT+0xd0>
 800890a:	6803      	ldr	r3, [r0, #0]
 800890c:	2202      	movs	r2, #2
 800890e:	f880 2044 	strb.w	r2, [r0, #68]	; 0x44
 8008912:	68da      	ldr	r2, [r3, #12]
 8008914:	f042 0208 	orr.w	r2, r2, #8
 8008918:	60da      	str	r2, [r3, #12]
 800891a:	e785      	b.n	8008828 <HAL_TIMEx_OCN_Start_IT+0x1c>

0800891c <HAL_TIMEx_OCN_Stop_IT>:
 800891c:	2904      	cmp	r1, #4
 800891e:	d006      	beq.n	800892e <HAL_TIMEx_OCN_Stop_IT+0x12>
 8008920:	2908      	cmp	r1, #8
 8008922:	d04a      	beq.n	80089ba <HAL_TIMEx_OCN_Stop_IT+0x9e>
 8008924:	2900      	cmp	r1, #0
 8008926:	d042      	beq.n	80089ae <HAL_TIMEx_OCN_Stop_IT+0x92>
 8008928:	2101      	movs	r1, #1
 800892a:	4608      	mov	r0, r1
 800892c:	4770      	bx	lr
 800892e:	6803      	ldr	r3, [r0, #0]
 8008930:	68da      	ldr	r2, [r3, #12]
 8008932:	f022 0204 	bic.w	r2, r2, #4
 8008936:	60da      	str	r2, [r3, #12]
 8008938:	6a1a      	ldr	r2, [r3, #32]
 800893a:	b430      	push	{r4, r5}
 800893c:	f001 051f 	and.w	r5, r1, #31
 8008940:	2404      	movs	r4, #4
 8008942:	40ac      	lsls	r4, r5
 8008944:	ea22 0204 	bic.w	r2, r2, r4
 8008948:	621a      	str	r2, [r3, #32]
 800894a:	6a1a      	ldr	r2, [r3, #32]
 800894c:	621a      	str	r2, [r3, #32]
 800894e:	6a1c      	ldr	r4, [r3, #32]
 8008950:	f240 4244 	movw	r2, #1092	; 0x444
 8008954:	4214      	tst	r4, r2
 8008956:	d103      	bne.n	8008960 <HAL_TIMEx_OCN_Stop_IT+0x44>
 8008958:	68da      	ldr	r2, [r3, #12]
 800895a:	f022 0280 	bic.w	r2, r2, #128	; 0x80
 800895e:	60da      	str	r2, [r3, #12]
 8008960:	6a1c      	ldr	r4, [r3, #32]
 8008962:	f241 1211 	movw	r2, #4369	; 0x1111
 8008966:	4214      	tst	r4, r2
 8008968:	d104      	bne.n	8008974 <HAL_TIMEx_OCN_Stop_IT+0x58>
 800896a:	6a1c      	ldr	r4, [r3, #32]
 800896c:	f240 4244 	movw	r2, #1092	; 0x444
 8008970:	4214      	tst	r4, r2
 8008972:	d02d      	beq.n	80089d0 <HAL_TIMEx_OCN_Stop_IT+0xb4>
 8008974:	6a1c      	ldr	r4, [r3, #32]
 8008976:	f241 1211 	movw	r2, #4369	; 0x1111
 800897a:	4214      	tst	r4, r2
 800897c:	d104      	bne.n	8008988 <HAL_TIMEx_OCN_Stop_IT+0x6c>
 800897e:	6a1c      	ldr	r4, [r3, #32]
 8008980:	f240 4244 	movw	r2, #1092	; 0x444
 8008984:	4214      	tst	r4, r2
 8008986:	d01e      	beq.n	80089c6 <HAL_TIMEx_OCN_Stop_IT+0xaa>
 8008988:	2301      	movs	r3, #1
 800898a:	b921      	cbnz	r1, 8008996 <HAL_TIMEx_OCN_Stop_IT+0x7a>
 800898c:	f880 3042 	strb.w	r3, [r0, #66]	; 0x42
 8008990:	bc30      	pop	{r4, r5}
 8008992:	4608      	mov	r0, r1
 8008994:	4770      	bx	lr
 8008996:	2904      	cmp	r1, #4
 8008998:	d01f      	beq.n	80089da <HAL_TIMEx_OCN_Stop_IT+0xbe>
 800899a:	2908      	cmp	r1, #8
 800899c:	bf0c      	ite	eq
 800899e:	f880 3044 	strbeq.w	r3, [r0, #68]	; 0x44
 80089a2:	f880 3045 	strbne.w	r3, [r0, #69]	; 0x45
 80089a6:	2100      	movs	r1, #0
 80089a8:	4608      	mov	r0, r1
 80089aa:	bc30      	pop	{r4, r5}
 80089ac:	4770      	bx	lr
 80089ae:	6803      	ldr	r3, [r0, #0]
 80089b0:	68da      	ldr	r2, [r3, #12]
 80089b2:	f022 0202 	bic.w	r2, r2, #2
 80089b6:	60da      	str	r2, [r3, #12]
 80089b8:	e7be      	b.n	8008938 <HAL_TIMEx_OCN_Stop_IT+0x1c>
 80089ba:	6803      	ldr	r3, [r0, #0]
 80089bc:	68da      	ldr	r2, [r3, #12]
 80089be:	f022 0208 	bic.w	r2, r2, #8
 80089c2:	60da      	str	r2, [r3, #12]
 80089c4:	e7b8      	b.n	8008938 <HAL_TIMEx_OCN_Stop_IT+0x1c>
 80089c6:	681a      	ldr	r2, [r3, #0]
 80089c8:	f022 0201 	bic.w	r2, r2, #1
 80089cc:	601a      	str	r2, [r3, #0]
 80089ce:	e7db      	b.n	8008988 <HAL_TIMEx_OCN_Stop_IT+0x6c>
 80089d0:	6c5a      	ldr	r2, [r3, #68]	; 0x44
 80089d2:	f422 4200 	bic.w	r2, r2, #32768	; 0x8000
 80089d6:	645a      	str	r2, [r3, #68]	; 0x44
 80089d8:	e7cc      	b.n	8008974 <HAL_TIMEx_OCN_Stop_IT+0x58>
 80089da:	f880 3043 	strb.w	r3, [r0, #67]	; 0x43
 80089de:	2100      	movs	r1, #0
 80089e0:	4608      	mov	r0, r1
 80089e2:	bc30      	pop	{r4, r5}
 80089e4:	4770      	bx	lr
 80089e6:	bf00      	nop

080089e8 <HAL_TIMEx_OCN_Start_DMA>:
 80089e8:	b5f8      	push	{r3, r4, r5, r6, r7, lr}
 80089ea:	4604      	mov	r4, r0
 80089ec:	460d      	mov	r5, r1
 80089ee:	2900      	cmp	r1, #0
 80089f0:	d17c      	bne.n	8008aec <HAL_TIMEx_OCN_Start_DMA+0x104>
 80089f2:	f890 1042 	ldrb.w	r1, [r0, #66]	; 0x42
 80089f6:	2902      	cmp	r1, #2
 80089f8:	b2c8      	uxtb	r0, r1
 80089fa:	d076      	beq.n	8008aea <HAL_TIMEx_OCN_Start_DMA+0x102>
 80089fc:	f894 0042 	ldrb.w	r0, [r4, #66]	; 0x42
 8008a00:	f1a0 0001 	sub.w	r0, r0, #1
 8008a04:	fab0 f080 	clz	r0, r0
 8008a08:	0940      	lsrs	r0, r0, #5
 8008a0a:	2800      	cmp	r0, #0
 8008a0c:	f000 8081 	beq.w	8008b12 <HAL_TIMEx_OCN_Start_DMA+0x12a>
 8008a10:	2a00      	cmp	r2, #0
 8008a12:	f000 8096 	beq.w	8008b42 <HAL_TIMEx_OCN_Start_DMA+0x15a>
 8008a16:	2d00      	cmp	r5, #0
 8008a18:	d17d      	bne.n	8008b16 <HAL_TIMEx_OCN_Start_DMA+0x12e>
 8008a1a:	6826      	ldr	r6, [r4, #0]
 8008a1c:	6a60      	ldr	r0, [r4, #36]	; 0x24
 8008a1e:	4611      	mov	r1, r2
 8008a20:	f106 0234 	add.w	r2, r6, #52	; 0x34
 8008a24:	f647 465d 	movw	r6, #31837	; 0x7c5d
 8008a28:	f6c0 0600 	movt	r6, #2048	; 0x800
 8008a2c:	f04f 0c02 	mov.w	ip, #2
 8008a30:	f884 c042 	strb.w	ip, [r4, #66]	; 0x42
 8008a34:	f248 17a5 	movw	r7, #33189	; 0x81a5
 8008a38:	6406      	str	r6, [r0, #64]	; 0x40
 8008a3a:	f248 1641 	movw	r6, #33089	; 0x8141
 8008a3e:	f6c0 0700 	movt	r7, #2048	; 0x800
 8008a42:	f6c0 0600 	movt	r6, #2048	; 0x800
 8008a46:	63c7      	str	r7, [r0, #60]	; 0x3c
 8008a48:	64c6      	str	r6, [r0, #76]	; 0x4c
 8008a4a:	f7f8 ff0b 	bl	8001864 <HAL_DMA_Start_IT>
 8008a4e:	2800      	cmp	r0, #0
 8008a50:	d15f      	bne.n	8008b12 <HAL_TIMEx_OCN_Start_DMA+0x12a>
 8008a52:	6823      	ldr	r3, [r4, #0]
 8008a54:	68da      	ldr	r2, [r3, #12]
 8008a56:	f442 7200 	orr.w	r2, r2, #512	; 0x200
 8008a5a:	60da      	str	r2, [r3, #12]
 8008a5c:	6a19      	ldr	r1, [r3, #32]
 8008a5e:	2204      	movs	r2, #4
 8008a60:	f005 051f 	and.w	r5, r5, #31
 8008a64:	fa02 f505 	lsl.w	r5, r2, r5
 8008a68:	ea21 0105 	bic.w	r1, r1, r5
 8008a6c:	6219      	str	r1, [r3, #32]
 8008a6e:	6a1a      	ldr	r2, [r3, #32]
 8008a70:	4315      	orrs	r5, r2
 8008a72:	621d      	str	r5, [r3, #32]
 8008a74:	6c5a      	ldr	r2, [r3, #68]	; 0x44
 8008a76:	2100      	movs	r1, #0
 8008a78:	f2c4 0101 	movt	r1, #16385	; 0x4001
 8008a7c:	f442 4200 	orr.w	r2, r2, #32768	; 0x8000
 8008a80:	428b      	cmp	r3, r1
 8008a82:	645a      	str	r2, [r3, #68]	; 0x44
 8008a84:	d026      	beq.n	8008ad4 <HAL_TIMEx_OCN_Start_DMA+0xec>
 8008a86:	f1b3 4f80 	cmp.w	r3, #1073741824	; 0x40000000
 8008a8a:	d023      	beq.n	8008ad4 <HAL_TIMEx_OCN_Start_DMA+0xec>
 8008a8c:	f44f 6280 	mov.w	r2, #1024	; 0x400
 8008a90:	f2c4 0200 	movt	r2, #16384	; 0x4000
 8008a94:	4293      	cmp	r3, r2
 8008a96:	d01d      	beq.n	8008ad4 <HAL_TIMEx_OCN_Start_DMA+0xec>
 8008a98:	f44f 6200 	mov.w	r2, #2048	; 0x800
 8008a9c:	f2c4 0200 	movt	r2, #16384	; 0x4000
 8008aa0:	4293      	cmp	r3, r2
 8008aa2:	d017      	beq.n	8008ad4 <HAL_TIMEx_OCN_Start_DMA+0xec>
 8008aa4:	f44f 6240 	mov.w	r2, #3072	; 0xc00
 8008aa8:	f2c4 0200 	movt	r2, #16384	; 0x4000
 8008aac:	4293      	cmp	r3, r2
 8008aae:	d011      	beq.n	8008ad4 <HAL_TIMEx_OCN_Start_DMA+0xec>
 8008ab0:	f44f 6280 	mov.w	r2, #1024	; 0x400
 8008ab4:	f2c4 0201 	movt	r2, #16385	; 0x4001
 8008ab8:	4293      	cmp	r3, r2
 8008aba:	d00b      	beq.n	8008ad4 <HAL_TIMEx_OCN_Start_DMA+0xec>
 8008abc:	f44f 4280 	mov.w	r2, #16384	; 0x4000
 8008ac0:	f2c4 0201 	movt	r2, #16385	; 0x4001
 8008ac4:	4293      	cmp	r3, r2
 8008ac6:	d005      	beq.n	8008ad4 <HAL_TIMEx_OCN_Start_DMA+0xec>
 8008ac8:	f44f 52c0 	mov.w	r2, #6144	; 0x1800
 8008acc:	f2c4 0200 	movt	r2, #16384	; 0x4000
 8008ad0:	4293      	cmp	r3, r2
 8008ad2:	d105      	bne.n	8008ae0 <HAL_TIMEx_OCN_Start_DMA+0xf8>
 8008ad4:	689a      	ldr	r2, [r3, #8]
 8008ad6:	f002 0207 	and.w	r2, r2, #7
 8008ada:	2a06      	cmp	r2, #6
 8008adc:	f000 8086 	beq.w	8008bec <HAL_TIMEx_OCN_Start_DMA+0x204>
 8008ae0:	681a      	ldr	r2, [r3, #0]
 8008ae2:	f042 0201 	orr.w	r2, r2, #1
 8008ae6:	601a      	str	r2, [r3, #0]
 8008ae8:	2000      	movs	r0, #0
 8008aea:	bdf8      	pop	{r3, r4, r5, r6, r7, pc}
 8008aec:	2904      	cmp	r1, #4
 8008aee:	d01b      	beq.n	8008b28 <HAL_TIMEx_OCN_Start_DMA+0x140>
 8008af0:	2908      	cmp	r1, #8
 8008af2:	d06e      	beq.n	8008bd2 <HAL_TIMEx_OCN_Start_DMA+0x1ea>
 8008af4:	f890 1045 	ldrb.w	r1, [r0, #69]	; 0x45
 8008af8:	2902      	cmp	r1, #2
 8008afa:	b2c8      	uxtb	r0, r1
 8008afc:	d0f5      	beq.n	8008aea <HAL_TIMEx_OCN_Start_DMA+0x102>
 8008afe:	f894 0045 	ldrb.w	r0, [r4, #69]	; 0x45
 8008b02:	f1a0 0001 	sub.w	r0, r0, #1
 8008b06:	fab0 f080 	clz	r0, r0
 8008b0a:	0940      	lsrs	r0, r0, #5
 8008b0c:	2800      	cmp	r0, #0
 8008b0e:	f47f af7f 	bne.w	8008a10 <HAL_TIMEx_OCN_Start_DMA+0x28>
 8008b12:	2001      	movs	r0, #1
 8008b14:	bdf8      	pop	{r3, r4, r5, r6, r7, pc}
 8008b16:	2d04      	cmp	r5, #4
 8008b18:	d017      	beq.n	8008b4a <HAL_TIMEx_OCN_Start_DMA+0x162>
 8008b1a:	2d08      	cmp	r5, #8
 8008b1c:	d037      	beq.n	8008b8e <HAL_TIMEx_OCN_Start_DMA+0x1a6>
 8008b1e:	2302      	movs	r3, #2
 8008b20:	f884 3045 	strb.w	r3, [r4, #69]	; 0x45
 8008b24:	2001      	movs	r0, #1
 8008b26:	e7f5      	b.n	8008b14 <HAL_TIMEx_OCN_Start_DMA+0x12c>
 8008b28:	f890 1043 	ldrb.w	r1, [r0, #67]	; 0x43
 8008b2c:	2902      	cmp	r1, #2
 8008b2e:	b2c8      	uxtb	r0, r1
 8008b30:	d0db      	beq.n	8008aea <HAL_TIMEx_OCN_Start_DMA+0x102>
 8008b32:	f894 0043 	ldrb.w	r0, [r4, #67]	; 0x43
 8008b36:	f1a0 0001 	sub.w	r0, r0, #1
 8008b3a:	fab0 f080 	clz	r0, r0
 8008b3e:	0940      	lsrs	r0, r0, #5
 8008b40:	e763      	b.n	8008a0a <HAL_TIMEx_OCN_Start_DMA+0x22>
 8008b42:	2b00      	cmp	r3, #0
 8008b44:	f43f af67 	beq.w	8008a16 <HAL_TIMEx_OCN_Start_DMA+0x2e>
 8008b48:	e7e3      	b.n	8008b12 <HAL_TIMEx_OCN_Start_DMA+0x12a>
 8008b4a:	6826      	ldr	r6, [r4, #0]
 8008b4c:	6aa0      	ldr	r0, [r4, #40]	; 0x28
 8008b4e:	4611      	mov	r1, r2
 8008b50:	f106 0238 	add.w	r2, r6, #56	; 0x38
 8008b54:	f647 465d 	movw	r6, #31837	; 0x7c5d
 8008b58:	f6c0 0600 	movt	r6, #2048	; 0x800
 8008b5c:	f04f 0c02 	mov.w	ip, #2
 8008b60:	f884 c043 	strb.w	ip, [r4, #67]	; 0x43
 8008b64:	f248 17a5 	movw	r7, #33189	; 0x81a5
 8008b68:	6406      	str	r6, [r0, #64]	; 0x40
 8008b6a:	f248 1641 	movw	r6, #33089	; 0x8141
 8008b6e:	f6c0 0700 	movt	r7, #2048	; 0x800
 8008b72:	f6c0 0600 	movt	r6, #2048	; 0x800
 8008b76:	63c7      	str	r7, [r0, #60]	; 0x3c
 8008b78:	64c6      	str	r6, [r0, #76]	; 0x4c
 8008b7a:	f7f8 fe73 	bl	8001864 <HAL_DMA_Start_IT>
 8008b7e:	2800      	cmp	r0, #0
 8008b80:	d1c7      	bne.n	8008b12 <HAL_TIMEx_OCN_Start_DMA+0x12a>
 8008b82:	6823      	ldr	r3, [r4, #0]
 8008b84:	68da      	ldr	r2, [r3, #12]
 8008b86:	f442 6280 	orr.w	r2, r2, #1024	; 0x400
 8008b8a:	60da      	str	r2, [r3, #12]
 8008b8c:	e766      	b.n	8008a5c <HAL_TIMEx_OCN_Start_DMA+0x74>
 8008b8e:	6826      	ldr	r6, [r4, #0]
 8008b90:	6ae0      	ldr	r0, [r4, #44]	; 0x2c
 8008b92:	4611      	mov	r1, r2
 8008b94:	f106 023c 	add.w	r2, r6, #60	; 0x3c
 8008b98:	f647 465d 	movw	r6, #31837	; 0x7c5d
 8008b9c:	f6c0 0600 	movt	r6, #2048	; 0x800
 8008ba0:	f04f 0c02 	mov.w	ip, #2
 8008ba4:	f884 c044 	strb.w	ip, [r4, #68]	; 0x44
 8008ba8:	f248 17a5 	movw	r7, #33189	; 0x81a5
 8008bac:	6406      	str	r6, [r0, #64]	; 0x40
 8008bae:	f248 1641 	movw	r6, #33089	; 0x8141
 8008bb2:	f6c0 0700 	movt	r7, #2048	; 0x800
 8008bb6:	f6c0 0600 	movt	r6, #2048	; 0x800
 8008bba:	63c7      	str	r7, [r0, #60]	; 0x3c
 8008bbc:	64c6      	str	r6, [r0, #76]	; 0x4c
 8008bbe:	f7f8 fe51 	bl	8001864 <HAL_DMA_Start_IT>
 8008bc2:	2800      	cmp	r0, #0
 8008bc4:	d1a5      	bne.n	8008b12 <HAL_TIMEx_OCN_Start_DMA+0x12a>
 8008bc6:	6823      	ldr	r3, [r4, #0]
 8008bc8:	68da      	ldr	r2, [r3, #12]
 8008bca:	f442 6200 	orr.w	r2, r2, #2048	; 0x800
 8008bce:	60da      	str	r2, [r3, #12]
 8008bd0:	e744      	b.n	8008a5c <HAL_TIMEx_OCN_Start_DMA+0x74>
 8008bd2:	f890 1044 	ldrb.w	r1, [r0, #68]	; 0x44
 8008bd6:	2902      	cmp	r1, #2
 8008bd8:	b2c8      	uxtb	r0, r1
 8008bda:	d086      	beq.n	8008aea <HAL_TIMEx_OCN_Start_DMA+0x102>
 8008bdc:	f894 0044 	ldrb.w	r0, [r4, #68]	; 0x44
 8008be0:	f1a0 0001 	sub.w	r0, r0, #1
 8008be4:	fab0 f080 	clz	r0, r0
 8008be8:	0940      	lsrs	r0, r0, #5
 8008bea:	e70e      	b.n	8008a0a <HAL_TIMEx_OCN_Start_DMA+0x22>
 8008bec:	2000      	movs	r0, #0
 8008bee:	bdf8      	pop	{r3, r4, r5, r6, r7, pc}

08008bf0 <HAL_TIMEx_OCN_Stop_DMA>:
 8008bf0:	2904      	cmp	r1, #4
 8008bf2:	b538      	push	{r3, r4, r5, lr}
 8008bf4:	460c      	mov	r4, r1
 8008bf6:	4605      	mov	r5, r0
 8008bf8:	d005      	beq.n	8008c06 <HAL_TIMEx_OCN_Stop_DMA+0x16>
 8008bfa:	2908      	cmp	r1, #8
 8008bfc:	d043      	beq.n	8008c86 <HAL_TIMEx_OCN_Stop_DMA+0x96>
 8008bfe:	2900      	cmp	r1, #0
 8008c00:	d038      	beq.n	8008c74 <HAL_TIMEx_OCN_Stop_DMA+0x84>
 8008c02:	2001      	movs	r0, #1
 8008c04:	bd38      	pop	{r3, r4, r5, pc}
 8008c06:	6802      	ldr	r2, [r0, #0]
 8008c08:	6a80      	ldr	r0, [r0, #40]	; 0x28
 8008c0a:	68d3      	ldr	r3, [r2, #12]
 8008c0c:	f423 6380 	bic.w	r3, r3, #1024	; 0x400
 8008c10:	60d3      	str	r3, [r2, #12]
 8008c12:	f7f8 fead 	bl	8001970 <HAL_DMA_Abort_IT>
 8008c16:	682b      	ldr	r3, [r5, #0]
 8008c18:	f004 001f 	and.w	r0, r4, #31
 8008c1c:	6a1a      	ldr	r2, [r3, #32]
 8008c1e:	2104      	movs	r1, #4
 8008c20:	4081      	lsls	r1, r0
 8008c22:	ea22 0201 	bic.w	r2, r2, r1
 8008c26:	621a      	str	r2, [r3, #32]
 8008c28:	6a1a      	ldr	r2, [r3, #32]
 8008c2a:	621a      	str	r2, [r3, #32]
 8008c2c:	6a19      	ldr	r1, [r3, #32]
 8008c2e:	f241 1211 	movw	r2, #4369	; 0x1111
 8008c32:	4211      	tst	r1, r2
 8008c34:	d104      	bne.n	8008c40 <HAL_TIMEx_OCN_Stop_DMA+0x50>
 8008c36:	6a19      	ldr	r1, [r3, #32]
 8008c38:	f240 4244 	movw	r2, #1092	; 0x444
 8008c3c:	4211      	tst	r1, r2
 8008c3e:	d030      	beq.n	8008ca2 <HAL_TIMEx_OCN_Stop_DMA+0xb2>
 8008c40:	6a19      	ldr	r1, [r3, #32]
 8008c42:	f241 1211 	movw	r2, #4369	; 0x1111
 8008c46:	4211      	tst	r1, r2
 8008c48:	d104      	bne.n	8008c54 <HAL_TIMEx_OCN_Stop_DMA+0x64>
 8008c4a:	6a19      	ldr	r1, [r3, #32]
 8008c4c:	f240 4244 	movw	r2, #1092	; 0x444
 8008c50:	4211      	tst	r1, r2
 8008c52:	d021      	beq.n	8008c98 <HAL_TIMEx_OCN_Stop_DMA+0xa8>
 8008c54:	2301      	movs	r3, #1
 8008c56:	b91c      	cbnz	r4, 8008c60 <HAL_TIMEx_OCN_Stop_DMA+0x70>
 8008c58:	f885 3042 	strb.w	r3, [r5, #66]	; 0x42
 8008c5c:	4620      	mov	r0, r4
 8008c5e:	bd38      	pop	{r3, r4, r5, pc}
 8008c60:	2c04      	cmp	r4, #4
 8008c62:	d023      	beq.n	8008cac <HAL_TIMEx_OCN_Stop_DMA+0xbc>
 8008c64:	2c08      	cmp	r4, #8
 8008c66:	bf0c      	ite	eq
 8008c68:	f885 3044 	strbeq.w	r3, [r5, #68]	; 0x44
 8008c6c:	f885 3045 	strbne.w	r3, [r5, #69]	; 0x45
 8008c70:	2000      	movs	r0, #0
 8008c72:	bd38      	pop	{r3, r4, r5, pc}
 8008c74:	6802      	ldr	r2, [r0, #0]
 8008c76:	6a40      	ldr	r0, [r0, #36]	; 0x24
 8008c78:	68d3      	ldr	r3, [r2, #12]
 8008c7a:	f423 7300 	bic.w	r3, r3, #512	; 0x200
 8008c7e:	60d3      	str	r3, [r2, #12]
 8008c80:	f7f8 fe76 	bl	8001970 <HAL_DMA_Abort_IT>
 8008c84:	e7c7      	b.n	8008c16 <HAL_TIMEx_OCN_Stop_DMA+0x26>
 8008c86:	6802      	ldr	r2, [r0, #0]
 8008c88:	6ac0      	ldr	r0, [r0, #44]	; 0x2c
 8008c8a:	68d3      	ldr	r3, [r2, #12]
 8008c8c:	f423 6300 	bic.w	r3, r3, #2048	; 0x800
 8008c90:	60d3      	str	r3, [r2, #12]
 8008c92:	f7f8 fe6d 	bl	8001970 <HAL_DMA_Abort_IT>
 8008c96:	e7be      	b.n	8008c16 <HAL_TIMEx_OCN_Stop_DMA+0x26>
 8008c98:	681a      	ldr	r2, [r3, #0]
 8008c9a:	f022 0201 	bic.w	r2, r2, #1
 8008c9e:	601a      	str	r2, [r3, #0]
 8008ca0:	e7d8      	b.n	8008c54 <HAL_TIMEx_OCN_Stop_DMA+0x64>
 8008ca2:	6c5a      	ldr	r2, [r3, #68]	; 0x44
 8008ca4:	f422 4200 	bic.w	r2, r2, #32768	; 0x8000
 8008ca8:	645a      	str	r2, [r3, #68]	; 0x44
 8008caa:	e7c9      	b.n	8008c40 <HAL_TIMEx_OCN_Stop_DMA+0x50>
 8008cac:	f885 3043 	strb.w	r3, [r5, #67]	; 0x43
 8008cb0:	2000      	movs	r0, #0
 8008cb2:	bd38      	pop	{r3, r4, r5, pc}

08008cb4 <HAL_TIMEx_PWMN_Start>:
 8008cb4:	2900      	cmp	r1, #0
 8008cb6:	d14e      	bne.n	8008d56 <HAL_TIMEx_PWMN_Start+0xa2>
 8008cb8:	f890 3042 	ldrb.w	r3, [r0, #66]	; 0x42
 8008cbc:	2b01      	cmp	r3, #1
 8008cbe:	d156      	bne.n	8008d6e <HAL_TIMEx_PWMN_Start+0xba>
 8008cc0:	2302      	movs	r3, #2
 8008cc2:	f880 3042 	strb.w	r3, [r0, #66]	; 0x42
 8008cc6:	6803      	ldr	r3, [r0, #0]
 8008cc8:	2204      	movs	r2, #4
 8008cca:	6a18      	ldr	r0, [r3, #32]
 8008ccc:	f001 011f 	and.w	r1, r1, #31
 8008cd0:	fa02 f101 	lsl.w	r1, r2, r1
 8008cd4:	ea20 0001 	bic.w	r0, r0, r1
 8008cd8:	6218      	str	r0, [r3, #32]
 8008cda:	6a1a      	ldr	r2, [r3, #32]
 8008cdc:	4311      	orrs	r1, r2
 8008cde:	6219      	str	r1, [r3, #32]
 8008ce0:	6c5a      	ldr	r2, [r3, #68]	; 0x44
 8008ce2:	2100      	movs	r1, #0
 8008ce4:	f2c4 0101 	movt	r1, #16385	; 0x4001
 8008ce8:	f442 4200 	orr.w	r2, r2, #32768	; 0x8000
 8008cec:	428b      	cmp	r3, r1
 8008cee:	645a      	str	r2, [r3, #68]	; 0x44
 8008cf0:	d026      	beq.n	8008d40 <HAL_TIMEx_PWMN_Start+0x8c>
 8008cf2:	f1b3 4f80 	cmp.w	r3, #1073741824	; 0x40000000
 8008cf6:	d023      	beq.n	8008d40 <HAL_TIMEx_PWMN_Start+0x8c>
 8008cf8:	f44f 6280 	mov.w	r2, #1024	; 0x400
 8008cfc:	f2c4 0200 	movt	r2, #16384	; 0x4000
 8008d00:	4293      	cmp	r3, r2
 8008d02:	d01d      	beq.n	8008d40 <HAL_TIMEx_PWMN_Start+0x8c>
 8008d04:	f44f 6200 	mov.w	r2, #2048	; 0x800
 8008d08:	f2c4 0200 	movt	r2, #16384	; 0x4000
 8008d0c:	4293      	cmp	r3, r2
 8008d0e:	d017      	beq.n	8008d40 <HAL_TIMEx_PWMN_Start+0x8c>
 8008d10:	f44f 6240 	mov.w	r2, #3072	; 0xc00
 8008d14:	f2c4 0200 	movt	r2, #16384	; 0x4000
 8008d18:	4293      	cmp	r3, r2
 8008d1a:	d011      	beq.n	8008d40 <HAL_TIMEx_PWMN_Start+0x8c>
 8008d1c:	f44f 6280 	mov.w	r2, #1024	; 0x400
 8008d20:	f2c4 0201 	movt	r2, #16385	; 0x4001
 8008d24:	4293      	cmp	r3, r2
 8008d26:	d00b      	beq.n	8008d40 <HAL_TIMEx_PWMN_Start+0x8c>
 8008d28:	f44f 4280 	mov.w	r2, #16384	; 0x4000
 8008d2c:	f2c4 0201 	movt	r2, #16385	; 0x4001
 8008d30:	4293      	cmp	r3, r2
 8008d32:	d005      	beq.n	8008d40 <HAL_TIMEx_PWMN_Start+0x8c>
 8008d34:	f44f 52c0 	mov.w	r2, #6144	; 0x1800
 8008d38:	f2c4 0200 	movt	r2, #16384	; 0x4000
 8008d3c:	4293      	cmp	r3, r2
 8008d3e:	d104      	bne.n	8008d4a <HAL_TIMEx_PWMN_Start+0x96>
 8008d40:	689a      	ldr	r2, [r3, #8]
 8008d42:	f002 0207 	and.w	r2, r2, #7
 8008d46:	2a06      	cmp	r2, #6
 8008d48:	d013      	beq.n	8008d72 <HAL_TIMEx_PWMN_Start+0xbe>
 8008d4a:	681a      	ldr	r2, [r3, #0]
 8008d4c:	f042 0201 	orr.w	r2, r2, #1
 8008d50:	601a      	str	r2, [r3, #0]
 8008d52:	2000      	movs	r0, #0
 8008d54:	4770      	bx	lr
 8008d56:	2904      	cmp	r1, #4
 8008d58:	d00d      	beq.n	8008d76 <HAL_TIMEx_PWMN_Start+0xc2>
 8008d5a:	2908      	cmp	r1, #8
 8008d5c:	d013      	beq.n	8008d86 <HAL_TIMEx_PWMN_Start+0xd2>
 8008d5e:	f890 3045 	ldrb.w	r3, [r0, #69]	; 0x45
 8008d62:	2b01      	cmp	r3, #1
 8008d64:	d103      	bne.n	8008d6e <HAL_TIMEx_PWMN_Start+0xba>
 8008d66:	2302      	movs	r3, #2
 8008d68:	f880 3045 	strb.w	r3, [r0, #69]	; 0x45
 8008d6c:	e7ab      	b.n	8008cc6 <HAL_TIMEx_PWMN_Start+0x12>
 8008d6e:	2001      	movs	r0, #1
 8008d70:	4770      	bx	lr
 8008d72:	2000      	movs	r0, #0
 8008d74:	4770      	bx	lr
 8008d76:	f890 3043 	ldrb.w	r3, [r0, #67]	; 0x43
 8008d7a:	2b01      	cmp	r3, #1
 8008d7c:	d1f7      	bne.n	8008d6e <HAL_TIMEx_PWMN_Start+0xba>
 8008d7e:	2302      	movs	r3, #2
 8008d80:	f880 3043 	strb.w	r3, [r0, #67]	; 0x43
 8008d84:	e79f      	b.n	8008cc6 <HAL_TIMEx_PWMN_Start+0x12>
 8008d86:	f890 3044 	ldrb.w	r3, [r0, #68]	; 0x44
 8008d8a:	2b01      	cmp	r3, #1
 8008d8c:	d1ef      	bne.n	8008d6e <HAL_TIMEx_PWMN_Start+0xba>
 8008d8e:	2302      	movs	r3, #2
 8008d90:	f880 3044 	strb.w	r3, [r0, #68]	; 0x44
 8008d94:	e797      	b.n	8008cc6 <HAL_TIMEx_PWMN_Start+0x12>
 8008d96:	bf00      	nop

08008d98 <HAL_TIMEx_PWMN_Stop>:
 8008d98:	6803      	ldr	r3, [r0, #0]
 8008d9a:	b430      	push	{r4, r5}
 8008d9c:	6a1a      	ldr	r2, [r3, #32]
 8008d9e:	f001 051f 	and.w	r5, r1, #31
 8008da2:	2404      	movs	r4, #4
 8008da4:	40ac      	lsls	r4, r5
 8008da6:	ea22 0204 	bic.w	r2, r2, r4
 8008daa:	621a      	str	r2, [r3, #32]
 8008dac:	6a1a      	ldr	r2, [r3, #32]
 8008dae:	621a      	str	r2, [r3, #32]
 8008db0:	6a1c      	ldr	r4, [r3, #32]
 8008db2:	f241 1211 	movw	r2, #4369	; 0x1111
 8008db6:	4214      	tst	r4, r2
 8008db8:	d104      	bne.n	8008dc4 <HAL_TIMEx_PWMN_Stop+0x2c>
 8008dba:	6a1c      	ldr	r4, [r3, #32]
 8008dbc:	f240 4244 	movw	r2, #1092	; 0x444
 8008dc0:	4214      	tst	r4, r2
 8008dc2:	d020      	beq.n	8008e06 <HAL_TIMEx_PWMN_Stop+0x6e>
 8008dc4:	6a1c      	ldr	r4, [r3, #32]
 8008dc6:	f241 1211 	movw	r2, #4369	; 0x1111
 8008dca:	4214      	tst	r4, r2
 8008dcc:	d104      	bne.n	8008dd8 <HAL_TIMEx_PWMN_Stop+0x40>
 8008dce:	6a1c      	ldr	r4, [r3, #32]
 8008dd0:	f240 4244 	movw	r2, #1092	; 0x444
 8008dd4:	4214      	tst	r4, r2
 8008dd6:	d011      	beq.n	8008dfc <HAL_TIMEx_PWMN_Stop+0x64>
 8008dd8:	2301      	movs	r3, #1
 8008dda:	b921      	cbnz	r1, 8008de6 <HAL_TIMEx_PWMN_Stop+0x4e>
 8008ddc:	f880 3042 	strb.w	r3, [r0, #66]	; 0x42
 8008de0:	bc30      	pop	{r4, r5}
 8008de2:	2000      	movs	r0, #0
 8008de4:	4770      	bx	lr
 8008de6:	2904      	cmp	r1, #4
 8008de8:	d012      	beq.n	8008e10 <HAL_TIMEx_PWMN_Stop+0x78>
 8008dea:	2908      	cmp	r1, #8
 8008dec:	bf0c      	ite	eq
 8008dee:	f880 3044 	strbeq.w	r3, [r0, #68]	; 0x44
 8008df2:	f880 3045 	strbne.w	r3, [r0, #69]	; 0x45
 8008df6:	bc30      	pop	{r4, r5}
 8008df8:	2000      	movs	r0, #0
 8008dfa:	4770      	bx	lr
 8008dfc:	681a      	ldr	r2, [r3, #0]
 8008dfe:	f022 0201 	bic.w	r2, r2, #1
 8008e02:	601a      	str	r2, [r3, #0]
 8008e04:	e7e8      	b.n	8008dd8 <HAL_TIMEx_PWMN_Stop+0x40>
 8008e06:	6c5a      	ldr	r2, [r3, #68]	; 0x44
 8008e08:	f422 4200 	bic.w	r2, r2, #32768	; 0x8000
 8008e0c:	645a      	str	r2, [r3, #68]	; 0x44
 8008e0e:	e7d9      	b.n	8008dc4 <HAL_TIMEx_PWMN_Stop+0x2c>
 8008e10:	f880 3043 	strb.w	r3, [r0, #67]	; 0x43
 8008e14:	bc30      	pop	{r4, r5}
 8008e16:	2000      	movs	r0, #0
 8008e18:	4770      	bx	lr
 8008e1a:	bf00      	nop

08008e1c <HAL_TIMEx_PWMN_Start_IT>:
 8008e1c:	2900      	cmp	r1, #0
 8008e1e:	d157      	bne.n	8008ed0 <HAL_TIMEx_PWMN_Start_IT+0xb4>
 8008e20:	f890 3042 	ldrb.w	r3, [r0, #66]	; 0x42
 8008e24:	2b01      	cmp	r3, #1
 8008e26:	d161      	bne.n	8008eec <HAL_TIMEx_PWMN_Start_IT+0xd0>
 8008e28:	6803      	ldr	r3, [r0, #0]
 8008e2a:	2202      	movs	r2, #2
 8008e2c:	f880 2042 	strb.w	r2, [r0, #66]	; 0x42
 8008e30:	68da      	ldr	r2, [r3, #12]
 8008e32:	f042 0202 	orr.w	r2, r2, #2
 8008e36:	60da      	str	r2, [r3, #12]
 8008e38:	68da      	ldr	r2, [r3, #12]
 8008e3a:	f042 0280 	orr.w	r2, r2, #128	; 0x80
 8008e3e:	60da      	str	r2, [r3, #12]
 8008e40:	6a18      	ldr	r0, [r3, #32]
 8008e42:	2204      	movs	r2, #4
 8008e44:	f001 011f 	and.w	r1, r1, #31
 8008e48:	fa02 f101 	lsl.w	r1, r2, r1
 8008e4c:	ea20 0001 	bic.w	r0, r0, r1
 8008e50:	6218      	str	r0, [r3, #32]
 8008e52:	6a1a      	ldr	r2, [r3, #32]
 8008e54:	4311      	orrs	r1, r2
 8008e56:	6219      	str	r1, [r3, #32]
 8008e58:	6c5a      	ldr	r2, [r3, #68]	; 0x44
 8008e5a:	2100      	movs	r1, #0
 8008e5c:	f2c4 0101 	movt	r1, #16385	; 0x4001
 8008e60:	f442 4200 	orr.w	r2, r2, #32768	; 0x8000
 8008e64:	428b      	cmp	r3, r1
 8008e66:	645a      	str	r2, [r3, #68]	; 0x44
 8008e68:	d026      	beq.n	8008eb8 <HAL_TIMEx_PWMN_Start_IT+0x9c>
 8008e6a:	f1b3 4f80 	cmp.w	r3, #1073741824	; 0x40000000
 8008e6e:	d023      	beq.n	8008eb8 <HAL_TIMEx_PWMN_Start_IT+0x9c>
 8008e70:	f44f 6280 	mov.w	r2, #1024	; 0x400
 8008e74:	f2c4 0200 	movt	r2, #16384	; 0x4000
 8008e78:	4293      	cmp	r3, r2
 8008e7a:	d01d      	beq.n	8008eb8 <HAL_TIMEx_PWMN_Start_IT+0x9c>
 8008e7c:	f44f 6200 	mov.w	r2, #2048	; 0x800
 8008e80:	f2c4 0200 	movt	r2, #16384	; 0x4000
 8008e84:	4293      	cmp	r3, r2
 8008e86:	d017      	beq.n	8008eb8 <HAL_TIMEx_PWMN_Start_IT+0x9c>
 8008e88:	f44f 6240 	mov.w	r2, #3072	; 0xc00
 8008e8c:	f2c4 0200 	movt	r2, #16384	; 0x4000
 8008e90:	4293      	cmp	r3, r2
 8008e92:	d011      	beq.n	8008eb8 <HAL_TIMEx_PWMN_Start_IT+0x9c>
 8008e94:	f44f 6280 	mov.w	r2, #1024	; 0x400
 8008e98:	f2c4 0201 	movt	r2, #16385	; 0x4001
 8008e9c:	4293      	cmp	r3, r2
 8008e9e:	d00b      	beq.n	8008eb8 <HAL_TIMEx_PWMN_Start_IT+0x9c>
 8008ea0:	f44f 4280 	mov.w	r2, #16384	; 0x4000
 8008ea4:	f2c4 0201 	movt	r2, #16385	; 0x4001
 8008ea8:	4293      	cmp	r3, r2
 8008eaa:	d005      	beq.n	8008eb8 <HAL_TIMEx_PWMN_Start_IT+0x9c>
 8008eac:	f44f 52c0 	mov.w	r2, #6144	; 0x1800
 8008eb0:	f2c4 0200 	movt	r2, #16384	; 0x4000
 8008eb4:	4293      	cmp	r3, r2
 8008eb6:	d104      	bne.n	8008ec2 <HAL_TIMEx_PWMN_Start_IT+0xa6>
 8008eb8:	689a      	ldr	r2, [r3, #8]
 8008eba:	f002 0207 	and.w	r2, r2, #7
 8008ebe:	2a06      	cmp	r2, #6
 8008ec0:	d024      	beq.n	8008f0c <HAL_TIMEx_PWMN_Start_IT+0xf0>
 8008ec2:	681a      	ldr	r2, [r3, #0]
 8008ec4:	f042 0201 	orr.w	r2, r2, #1
 8008ec8:	601a      	str	r2, [r3, #0]
 8008eca:	2300      	movs	r3, #0
 8008ecc:	4618      	mov	r0, r3
 8008ece:	4770      	bx	lr
 8008ed0:	2904      	cmp	r1, #4
 8008ed2:	d00e      	beq.n	8008ef2 <HAL_TIMEx_PWMN_Start_IT+0xd6>
 8008ed4:	2908      	cmp	r1, #8
 8008ed6:	d01c      	beq.n	8008f12 <HAL_TIMEx_PWMN_Start_IT+0xf6>
 8008ed8:	f890 2045 	ldrb.w	r2, [r0, #69]	; 0x45
 8008edc:	2a01      	cmp	r2, #1
 8008ede:	b2d3      	uxtb	r3, r2
 8008ee0:	d104      	bne.n	8008eec <HAL_TIMEx_PWMN_Start_IT+0xd0>
 8008ee2:	2202      	movs	r2, #2
 8008ee4:	f880 2045 	strb.w	r2, [r0, #69]	; 0x45
 8008ee8:	4618      	mov	r0, r3
 8008eea:	4770      	bx	lr
 8008eec:	2301      	movs	r3, #1
 8008eee:	4618      	mov	r0, r3
 8008ef0:	4770      	bx	lr
 8008ef2:	f890 3043 	ldrb.w	r3, [r0, #67]	; 0x43
 8008ef6:	2b01      	cmp	r3, #1
 8008ef8:	d1f8      	bne.n	8008eec <HAL_TIMEx_PWMN_Start_IT+0xd0>
 8008efa:	6803      	ldr	r3, [r0, #0]
 8008efc:	2202      	movs	r2, #2
 8008efe:	f880 2043 	strb.w	r2, [r0, #67]	; 0x43
 8008f02:	68da      	ldr	r2, [r3, #12]
 8008f04:	f042 0204 	orr.w	r2, r2, #4
 8008f08:	60da      	str	r2, [r3, #12]
 8008f0a:	e795      	b.n	8008e38 <HAL_TIMEx_PWMN_Start_IT+0x1c>
 8008f0c:	2300      	movs	r3, #0
 8008f0e:	4618      	mov	r0, r3
 8008f10:	4770      	bx	lr
 8008f12:	f890 3044 	ldrb.w	r3, [r0, #68]	; 0x44
 8008f16:	2b01      	cmp	r3, #1
 8008f18:	d1e8      	bne.n	8008eec <HAL_TIMEx_PWMN_Start_IT+0xd0>
 8008f1a:	6803      	ldr	r3, [r0, #0]
 8008f1c:	2202      	movs	r2, #2
 8008f1e:	f880 2044 	strb.w	r2, [r0, #68]	; 0x44
 8008f22:	68da      	ldr	r2, [r3, #12]
 8008f24:	f042 0208 	orr.w	r2, r2, #8
 8008f28:	60da      	str	r2, [r3, #12]
 8008f2a:	e785      	b.n	8008e38 <HAL_TIMEx_PWMN_Start_IT+0x1c>

08008f2c <HAL_TIMEx_PWMN_Stop_IT>:
 8008f2c:	2904      	cmp	r1, #4
 8008f2e:	d006      	beq.n	8008f3e <HAL_TIMEx_PWMN_Stop_IT+0x12>
 8008f30:	2908      	cmp	r1, #8
 8008f32:	d04a      	beq.n	8008fca <HAL_TIMEx_PWMN_Stop_IT+0x9e>
 8008f34:	2900      	cmp	r1, #0
 8008f36:	d042      	beq.n	8008fbe <HAL_TIMEx_PWMN_Stop_IT+0x92>
 8008f38:	2101      	movs	r1, #1
 8008f3a:	4608      	mov	r0, r1
 8008f3c:	4770      	bx	lr
 8008f3e:	6803      	ldr	r3, [r0, #0]
 8008f40:	68da      	ldr	r2, [r3, #12]
 8008f42:	f022 0204 	bic.w	r2, r2, #4
 8008f46:	60da      	str	r2, [r3, #12]
 8008f48:	6a1a      	ldr	r2, [r3, #32]
 8008f4a:	b430      	push	{r4, r5}
 8008f4c:	f001 051f 	and.w	r5, r1, #31
 8008f50:	2404      	movs	r4, #4
 8008f52:	40ac      	lsls	r4, r5
 8008f54:	ea22 0204 	bic.w	r2, r2, r4
 8008f58:	621a      	str	r2, [r3, #32]
 8008f5a:	6a1a      	ldr	r2, [r3, #32]
 8008f5c:	621a      	str	r2, [r3, #32]
 8008f5e:	6a1c      	ldr	r4, [r3, #32]
 8008f60:	f240 4244 	movw	r2, #1092	; 0x444
 8008f64:	4214      	tst	r4, r2
 8008f66:	d103      	bne.n	8008f70 <HAL_TIMEx_PWMN_Stop_IT+0x44>
 8008f68:	68da      	ldr	r2, [r3, #12]
 8008f6a:	f022 0280 	bic.w	r2, r2, #128	; 0x80
 8008f6e:	60da      	str	r2, [r3, #12]
 8008f70:	6a1c      	ldr	r4, [r3, #32]
 8008f72:	f241 1211 	movw	r2, #4369	; 0x1111
 8008f76:	4214      	tst	r4, r2
 8008f78:	d104      	bne.n	8008f84 <HAL_TIMEx_PWMN_Stop_IT+0x58>
 8008f7a:	6a1c      	ldr	r4, [r3, #32]
 8008f7c:	f240 4244 	movw	r2, #1092	; 0x444
 8008f80:	4214      	tst	r4, r2
 8008f82:	d02d      	beq.n	8008fe0 <HAL_TIMEx_PWMN_Stop_IT+0xb4>
 8008f84:	6a1c      	ldr	r4, [r3, #32]
 8008f86:	f241 1211 	movw	r2, #4369	; 0x1111
 8008f8a:	4214      	tst	r4, r2
 8008f8c:	d104      	bne.n	8008f98 <HAL_TIMEx_PWMN_Stop_IT+0x6c>
 8008f8e:	6a1c      	ldr	r4, [r3, #32]
 8008f90:	f240 4244 	movw	r2, #1092	; 0x444
 8008f94:	4214      	tst	r4, r2
 8008f96:	d01e      	beq.n	8008fd6 <HAL_TIMEx_PWMN_Stop_IT+0xaa>
 8008f98:	2301      	movs	r3, #1
 8008f9a:	b921      	cbnz	r1, 8008fa6 <HAL_TIMEx_PWMN_Stop_IT+0x7a>
 8008f9c:	f880 3042 	strb.w	r3, [r0, #66]	; 0x42
 8008fa0:	bc30      	pop	{r4, r5}
 8008fa2:	4608      	mov	r0, r1
 8008fa4:	4770      	bx	lr
 8008fa6:	2904      	cmp	r1, #4
 8008fa8:	d01f      	beq.n	8008fea <HAL_TIMEx_PWMN_Stop_IT+0xbe>
 8008faa:	2908      	cmp	r1, #8
 8008fac:	bf0c      	ite	eq
 8008fae:	f880 3044 	strbeq.w	r3, [r0, #68]	; 0x44
 8008fb2:	f880 3045 	strbne.w	r3, [r0, #69]	; 0x45
 8008fb6:	2100      	movs	r1, #0
 8008fb8:	4608      	mov	r0, r1
 8008fba:	bc30      	pop	{r4, r5}
 8008fbc:	4770      	bx	lr
 8008fbe:	6803      	ldr	r3, [r0, #0]
 8008fc0:	68da      	ldr	r2, [r3, #12]
 8008fc2:	f022 0202 	bic.w	r2, r2, #2
 8008fc6:	60da      	str	r2, [r3, #12]
 8008fc8:	e7be      	b.n	8008f48 <HAL_TIMEx_PWMN_Stop_IT+0x1c>
 8008fca:	6803      	ldr	r3, [r0, #0]
 8008fcc:	68da      	ldr	r2, [r3, #12]
 8008fce:	f022 0208 	bic.w	r2, r2, #8
 8008fd2:	60da      	str	r2, [r3, #12]
 8008fd4:	e7b8      	b.n	8008f48 <HAL_TIMEx_PWMN_Stop_IT+0x1c>
 8008fd6:	681a      	ldr	r2, [r3, #0]
 8008fd8:	f022 0201 	bic.w	r2, r2, #1
 8008fdc:	601a      	str	r2, [r3, #0]
 8008fde:	e7db      	b.n	8008f98 <HAL_TIMEx_PWMN_Stop_IT+0x6c>
 8008fe0:	6c5a      	ldr	r2, [r3, #68]	; 0x44
 8008fe2:	f422 4200 	bic.w	r2, r2, #32768	; 0x8000
 8008fe6:	645a      	str	r2, [r3, #68]	; 0x44
 8008fe8:	e7cc      	b.n	8008f84 <HAL_TIMEx_PWMN_Stop_IT+0x58>
 8008fea:	f880 3043 	strb.w	r3, [r0, #67]	; 0x43
 8008fee:	2100      	movs	r1, #0
 8008ff0:	4608      	mov	r0, r1
 8008ff2:	bc30      	pop	{r4, r5}
 8008ff4:	4770      	bx	lr
 8008ff6:	bf00      	nop

08008ff8 <HAL_TIMEx_PWMN_Start_DMA>:
 8008ff8:	b5f8      	push	{r3, r4, r5, r6, r7, lr}
 8008ffa:	4604      	mov	r4, r0
 8008ffc:	460d      	mov	r5, r1
 8008ffe:	2900      	cmp	r1, #0
 8009000:	d17c      	bne.n	80090fc <HAL_TIMEx_PWMN_Start_DMA+0x104>
 8009002:	f890 1042 	ldrb.w	r1, [r0, #66]	; 0x42
 8009006:	2902      	cmp	r1, #2
 8009008:	b2c8      	uxtb	r0, r1
 800900a:	d076      	beq.n	80090fa <HAL_TIMEx_PWMN_Start_DMA+0x102>
 800900c:	f894 0042 	ldrb.w	r0, [r4, #66]	; 0x42
 8009010:	f1a0 0001 	sub.w	r0, r0, #1
 8009014:	fab0 f080 	clz	r0, r0
 8009018:	0940      	lsrs	r0, r0, #5
 800901a:	2800      	cmp	r0, #0
 800901c:	f000 8081 	beq.w	8009122 <HAL_TIMEx_PWMN_Start_DMA+0x12a>
 8009020:	2a00      	cmp	r2, #0
 8009022:	f000 8096 	beq.w	8009152 <HAL_TIMEx_PWMN_Start_DMA+0x15a>
 8009026:	2d00      	cmp	r5, #0
 8009028:	d17d      	bne.n	8009126 <HAL_TIMEx_PWMN_Start_DMA+0x12e>
 800902a:	6826      	ldr	r6, [r4, #0]
 800902c:	6a60      	ldr	r0, [r4, #36]	; 0x24
 800902e:	4611      	mov	r1, r2
 8009030:	f106 0234 	add.w	r2, r6, #52	; 0x34
 8009034:	f647 465d 	movw	r6, #31837	; 0x7c5d
 8009038:	f6c0 0600 	movt	r6, #2048	; 0x800
 800903c:	f04f 0c02 	mov.w	ip, #2
 8009040:	f884 c042 	strb.w	ip, [r4, #66]	; 0x42
 8009044:	f248 17a5 	movw	r7, #33189	; 0x81a5
 8009048:	6406      	str	r6, [r0, #64]	; 0x40
 800904a:	f248 1641 	movw	r6, #33089	; 0x8141
 800904e:	f6c0 0700 	movt	r7, #2048	; 0x800
 8009052:	f6c0 0600 	movt	r6, #2048	; 0x800
 8009056:	63c7      	str	r7, [r0, #60]	; 0x3c
 8009058:	64c6      	str	r6, [r0, #76]	; 0x4c
 800905a:	f7f8 fc03 	bl	8001864 <HAL_DMA_Start_IT>
 800905e:	2800      	cmp	r0, #0
 8009060:	d15f      	bne.n	8009122 <HAL_TIMEx_PWMN_Start_DMA+0x12a>
 8009062:	6823      	ldr	r3, [r4, #0]
 8009064:	68da      	ldr	r2, [r3, #12]
 8009066:	f442 7200 	orr.w	r2, r2, #512	; 0x200
 800906a:	60da      	str	r2, [r3, #12]
 800906c:	6a19      	ldr	r1, [r3, #32]
 800906e:	2204      	movs	r2, #4
 8009070:	f005 051f 	and.w	r5, r5, #31
 8009074:	fa02 f505 	lsl.w	r5, r2, r5
 8009078:	ea21 0105 	bic.w	r1, r1, r5
 800907c:	6219      	str	r1, [r3, #32]
 800907e:	6a1a      	ldr	r2, [r3, #32]
 8009080:	4315      	orrs	r5, r2
 8009082:	621d      	str	r5, [r3, #32]
 8009084:	6c5a      	ldr	r2, [r3, #68]	; 0x44
 8009086:	2100      	movs	r1, #0
 8009088:	f2c4 0101 	movt	r1, #16385	; 0x4001
 800908c:	f442 4200 	orr.w	r2, r2, #32768	; 0x8000
 8009090:	428b      	cmp	r3, r1
 8009092:	645a      	str	r2, [r3, #68]	; 0x44
 8009094:	d026      	beq.n	80090e4 <HAL_TIMEx_PWMN_Start_DMA+0xec>
 8009096:	f1b3 4f80 	cmp.w	r3, #1073741824	; 0x40000000
 800909a:	d023      	beq.n	80090e4 <HAL_TIMEx_PWMN_Start_DMA+0xec>
 800909c:	f44f 6280 	mov.w	r2, #1024	; 0x400
 80090a0:	f2c4 0200 	movt	r2, #16384	; 0x4000
 80090a4:	4293      	cmp	r3, r2
 80090a6:	d01d      	beq.n	80090e4 <HAL_TIMEx_PWMN_Start_DMA+0xec>
 80090a8:	f44f 6200 	mov.w	r2, #2048	; 0x800
 80090ac:	f2c4 0200 	movt	r2, #16384	; 0x4000
 80090b0:	4293      	cmp	r3, r2
 80090b2:	d017      	beq.n	80090e4 <HAL_TIMEx_PWMN_Start_DMA+0xec>
 80090b4:	f44f 6240 	mov.w	r2, #3072	; 0xc00
 80090b8:	f2c4 0200 	movt	r2, #16384	; 0x4000
 80090bc:	4293      	cmp	r3, r2
 80090be:	d011      	beq.n	80090e4 <HAL_TIMEx_PWMN_Start_DMA+0xec>
 80090c0:	f44f 6280 	mov.w	r2, #1024	; 0x400
 80090c4:	f2c4 0201 	movt	r2, #16385	; 0x4001
 80090c8:	4293      	cmp	r3, r2
 80090ca:	d00b      	beq.n	80090e4 <HAL_TIMEx_PWMN_Start_DMA+0xec>
 80090cc:	f44f 4280 	mov.w	r2, #16384	; 0x4000
 80090d0:	f2c4 0201 	movt	r2, #16385	; 0x4001
 80090d4:	4293      	cmp	r3, r2
 80090d6:	d005      	beq.n	80090e4 <HAL_TIMEx_PWMN_Start_DMA+0xec>
 80090d8:	f44f 52c0 	mov.w	r2, #6144	; 0x1800
 80090dc:	f2c4 0200 	movt	r2, #16384	; 0x4000
 80090e0:	4293      	cmp	r3, r2
 80090e2:	d105      	bne.n	80090f0 <HAL_TIMEx_PWMN_Start_DMA+0xf8>
 80090e4:	689a      	ldr	r2, [r3, #8]
 80090e6:	f002 0207 	and.w	r2, r2, #7
 80090ea:	2a06      	cmp	r2, #6
 80090ec:	f000 8086 	beq.w	80091fc <HAL_TIMEx_PWMN_Start_DMA+0x204>
 80090f0:	681a      	ldr	r2, [r3, #0]
 80090f2:	f042 0201 	orr.w	r2, r2, #1
 80090f6:	601a      	str	r2, [r3, #0]
 80090f8:	2000      	movs	r0, #0
 80090fa:	bdf8      	pop	{r3, r4, r5, r6, r7, pc}
 80090fc:	2904      	cmp	r1, #4
 80090fe:	d01b      	beq.n	8009138 <HAL_TIMEx_PWMN_Start_DMA+0x140>
 8009100:	2908      	cmp	r1, #8
 8009102:	d06e      	beq.n	80091e2 <HAL_TIMEx_PWMN_Start_DMA+0x1ea>
 8009104:	f890 1045 	ldrb.w	r1, [r0, #69]	; 0x45
 8009108:	2902      	cmp	r1, #2
 800910a:	b2c8      	uxtb	r0, r1
 800910c:	d0f5      	beq.n	80090fa <HAL_TIMEx_PWMN_Start_DMA+0x102>
 800910e:	f894 0045 	ldrb.w	r0, [r4, #69]	; 0x45
 8009112:	f1a0 0001 	sub.w	r0, r0, #1
 8009116:	fab0 f080 	clz	r0, r0
 800911a:	0940      	lsrs	r0, r0, #5
 800911c:	2800      	cmp	r0, #0
 800911e:	f47f af7f 	bne.w	8009020 <HAL_TIMEx_PWMN_Start_DMA+0x28>
 8009122:	2001      	movs	r0, #1
 8009124:	bdf8      	pop	{r3, r4, r5, r6, r7, pc}
 8009126:	2d04      	cmp	r5, #4
 8009128:	d017      	beq.n	800915a <HAL_TIMEx_PWMN_Start_DMA+0x162>
 800912a:	2d08      	cmp	r5, #8
 800912c:	d037      	beq.n	800919e <HAL_TIMEx_PWMN_Start_DMA+0x1a6>
 800912e:	2302      	movs	r3, #2
 8009130:	f884 3045 	strb.w	r3, [r4, #69]	; 0x45
 8009134:	2001      	movs	r0, #1
 8009136:	e7f5      	b.n	8009124 <HAL_TIMEx_PWMN_Start_DMA+0x12c>
 8009138:	f890 1043 	ldrb.w	r1, [r0, #67]	; 0x43
 800913c:	2902      	cmp	r1, #2
 800913e:	b2c8      	uxtb	r0, r1
 8009140:	d0db      	beq.n	80090fa <HAL_TIMEx_PWMN_Start_DMA+0x102>
 8009142:	f894 0043 	ldrb.w	r0, [r4, #67]	; 0x43
 8009146:	f1a0 0001 	sub.w	r0, r0, #1
 800914a:	fab0 f080 	clz	r0, r0
 800914e:	0940      	lsrs	r0, r0, #5
 8009150:	e763      	b.n	800901a <HAL_TIMEx_PWMN_Start_DMA+0x22>
 8009152:	2b00      	cmp	r3, #0
 8009154:	f43f af67 	beq.w	8009026 <HAL_TIMEx_PWMN_Start_DMA+0x2e>
 8009158:	e7e3      	b.n	8009122 <HAL_TIMEx_PWMN_Start_DMA+0x12a>
 800915a:	6826      	ldr	r6, [r4, #0]
 800915c:	6aa0      	ldr	r0, [r4, #40]	; 0x28
 800915e:	4611      	mov	r1, r2
 8009160:	f106 0238 	add.w	r2, r6, #56	; 0x38
 8009164:	f647 465d 	movw	r6, #31837	; 0x7c5d
 8009168:	f6c0 0600 	movt	r6, #2048	; 0x800
 800916c:	f04f 0c02 	mov.w	ip, #2
 8009170:	f884 c043 	strb.w	ip, [r4, #67]	; 0x43
 8009174:	f248 17a5 	movw	r7, #33189	; 0x81a5
 8009178:	6406      	str	r6, [r0, #64]	; 0x40
 800917a:	f248 1641 	movw	r6, #33089	; 0x8141
 800917e:	f6c0 0700 	movt	r7, #2048	; 0x800
 8009182:	f6c0 0600 	movt	r6, #2048	; 0x800
 8009186:	63c7      	str	r7, [r0, #60]	; 0x3c
 8009188:	64c6      	str	r6, [r0, #76]	; 0x4c
 800918a:	f7f8 fb6b 	bl	8001864 <HAL_DMA_Start_IT>
 800918e:	2800      	cmp	r0, #0
 8009190:	d1c7      	bne.n	8009122 <HAL_TIMEx_PWMN_Start_DMA+0x12a>
 8009192:	6823      	ldr	r3, [r4, #0]
 8009194:	68da      	ldr	r2, [r3, #12]
 8009196:	f442 6280 	orr.w	r2, r2, #1024	; 0x400
 800919a:	60da      	str	r2, [r3, #12]
 800919c:	e766      	b.n	800906c <HAL_TIMEx_PWMN_Start_DMA+0x74>
 800919e:	6826      	ldr	r6, [r4, #0]
 80091a0:	6ae0      	ldr	r0, [r4, #44]	; 0x2c
 80091a2:	4611      	mov	r1, r2
 80091a4:	f106 023c 	add.w	r2, r6, #60	; 0x3c
 80091a8:	f647 465d 	movw	r6, #31837	; 0x7c5d
 80091ac:	f6c0 0600 	movt	r6, #2048	; 0x800
 80091b0:	f04f 0c02 	mov.w	ip, #2
 80091b4:	f884 c044 	strb.w	ip, [r4, #68]	; 0x44
 80091b8:	f248 17a5 	movw	r7, #33189	; 0x81a5
 80091bc:	6406      	str	r6, [r0, #64]	; 0x40
 80091be:	f248 1641 	movw	r6, #33089	; 0x8141
 80091c2:	f6c0 0700 	movt	r7, #2048	; 0x800
 80091c6:	f6c0 0600 	movt	r6, #2048	; 0x800
 80091ca:	63c7      	str	r7, [r0, #60]	; 0x3c
 80091cc:	64c6      	str	r6, [r0, #76]	; 0x4c
 80091ce:	f7f8 fb49 	bl	8001864 <HAL_DMA_Start_IT>
 80091d2:	2800      	cmp	r0, #0
 80091d4:	d1a5      	bne.n	8009122 <HAL_TIMEx_PWMN_Start_DMA+0x12a>
 80091d6:	6823      	ldr	r3, [r4, #0]
 80091d8:	68da      	ldr	r2, [r3, #12]
 80091da:	f442 6200 	orr.w	r2, r2, #2048	; 0x800
 80091de:	60da      	str	r2, [r3, #12]
 80091e0:	e744      	b.n	800906c <HAL_TIMEx_PWMN_Start_DMA+0x74>
 80091e2:	f890 1044 	ldrb.w	r1, [r0, #68]	; 0x44
 80091e6:	2902      	cmp	r1, #2
 80091e8:	b2c8      	uxtb	r0, r1
 80091ea:	d086      	beq.n	80090fa <HAL_TIMEx_PWMN_Start_DMA+0x102>
 80091ec:	f894 0044 	ldrb.w	r0, [r4, #68]	; 0x44
 80091f0:	f1a0 0001 	sub.w	r0, r0, #1
 80091f4:	fab0 f080 	clz	r0, r0
 80091f8:	0940      	lsrs	r0, r0, #5
 80091fa:	e70e      	b.n	800901a <HAL_TIMEx_PWMN_Start_DMA+0x22>
 80091fc:	2000      	movs	r0, #0
 80091fe:	bdf8      	pop	{r3, r4, r5, r6, r7, pc}

08009200 <HAL_TIMEx_PWMN_Stop_DMA>:
 8009200:	2904      	cmp	r1, #4
 8009202:	b538      	push	{r3, r4, r5, lr}
 8009204:	460c      	mov	r4, r1
 8009206:	4605      	mov	r5, r0
 8009208:	d005      	beq.n	8009216 <HAL_TIMEx_PWMN_Stop_DMA+0x16>
 800920a:	2908      	cmp	r1, #8
 800920c:	d043      	beq.n	8009296 <HAL_TIMEx_PWMN_Stop_DMA+0x96>
 800920e:	2900      	cmp	r1, #0
 8009210:	d038      	beq.n	8009284 <HAL_TIMEx_PWMN_Stop_DMA+0x84>
 8009212:	2001      	movs	r0, #1
 8009214:	bd38      	pop	{r3, r4, r5, pc}
 8009216:	6802      	ldr	r2, [r0, #0]
 8009218:	6a80      	ldr	r0, [r0, #40]	; 0x28
 800921a:	68d3      	ldr	r3, [r2, #12]
 800921c:	f423 6380 	bic.w	r3, r3, #1024	; 0x400
 8009220:	60d3      	str	r3, [r2, #12]
 8009222:	f7f8 fba5 	bl	8001970 <HAL_DMA_Abort_IT>
 8009226:	682b      	ldr	r3, [r5, #0]
 8009228:	f004 001f 	and.w	r0, r4, #31
 800922c:	6a1a      	ldr	r2, [r3, #32]
 800922e:	2104      	movs	r1, #4
 8009230:	4081      	lsls	r1, r0
 8009232:	ea22 0201 	bic.w	r2, r2, r1
 8009236:	621a      	str	r2, [r3, #32]
 8009238:	6a1a      	ldr	r2, [r3, #32]
 800923a:	621a      	str	r2, [r3, #32]
 800923c:	6a19      	ldr	r1, [r3, #32]
 800923e:	f241 1211 	movw	r2, #4369	; 0x1111
 8009242:	4211      	tst	r1, r2
 8009244:	d104      	bne.n	8009250 <HAL_TIMEx_PWMN_Stop_DMA+0x50>
 8009246:	6a19      	ldr	r1, [r3, #32]
 8009248:	f240 4244 	movw	r2, #1092	; 0x444
 800924c:	4211      	tst	r1, r2
 800924e:	d030      	beq.n	80092b2 <HAL_TIMEx_PWMN_Stop_DMA+0xb2>
 8009250:	6a19      	ldr	r1, [r3, #32]
 8009252:	f241 1211 	movw	r2, #4369	; 0x1111
 8009256:	4211      	tst	r1, r2
 8009258:	d104      	bne.n	8009264 <HAL_TIMEx_PWMN_Stop_DMA+0x64>
 800925a:	6a19      	ldr	r1, [r3, #32]
 800925c:	f240 4244 	movw	r2, #1092	; 0x444
 8009260:	4211      	tst	r1, r2
 8009262:	d021      	beq.n	80092a8 <HAL_TIMEx_PWMN_Stop_DMA+0xa8>
 8009264:	2301      	movs	r3, #1
 8009266:	b91c      	cbnz	r4, 8009270 <HAL_TIMEx_PWMN_Stop_DMA+0x70>
 8009268:	f885 3042 	strb.w	r3, [r5, #66]	; 0x42
 800926c:	4620      	mov	r0, r4
 800926e:	bd38      	pop	{r3, r4, r5, pc}
 8009270:	2c04      	cmp	r4, #4
 8009272:	d023      	beq.n	80092bc <HAL_TIMEx_PWMN_Stop_DMA+0xbc>
 8009274:	2c08      	cmp	r4, #8
 8009276:	bf0c      	ite	eq
 8009278:	f885 3044 	strbeq.w	r3, [r5, #68]	; 0x44
 800927c:	f885 3045 	strbne.w	r3, [r5, #69]	; 0x45
 8009280:	2000      	movs	r0, #0
 8009282:	bd38      	pop	{r3, r4, r5, pc}
 8009284:	6802      	ldr	r2, [r0, #0]
 8009286:	6a40      	ldr	r0, [r0, #36]	; 0x24
 8009288:	68d3      	ldr	r3, [r2, #12]
 800928a:	f423 7300 	bic.w	r3, r3, #512	; 0x200
 800928e:	60d3      	str	r3, [r2, #12]
 8009290:	f7f8 fb6e 	bl	8001970 <HAL_DMA_Abort_IT>
 8009294:	e7c7      	b.n	8009226 <HAL_TIMEx_PWMN_Stop_DMA+0x26>
 8009296:	6802      	ldr	r2, [r0, #0]
 8009298:	6ac0      	ldr	r0, [r0, #44]	; 0x2c
 800929a:	68d3      	ldr	r3, [r2, #12]
 800929c:	f423 6300 	bic.w	r3, r3, #2048	; 0x800
 80092a0:	60d3      	str	r3, [r2, #12]
 80092a2:	f7f8 fb65 	bl	8001970 <HAL_DMA_Abort_IT>
 80092a6:	e7be      	b.n	8009226 <HAL_TIMEx_PWMN_Stop_DMA+0x26>
 80092a8:	681a      	ldr	r2, [r3, #0]
 80092aa:	f022 0201 	bic.w	r2, r2, #1
 80092ae:	601a      	str	r2, [r3, #0]
 80092b0:	e7d8      	b.n	8009264 <HAL_TIMEx_PWMN_Stop_DMA+0x64>
 80092b2:	6c5a      	ldr	r2, [r3, #68]	; 0x44
 80092b4:	f422 4200 	bic.w	r2, r2, #32768	; 0x8000
 80092b8:	645a      	str	r2, [r3, #68]	; 0x44
 80092ba:	e7c9      	b.n	8009250 <HAL_TIMEx_PWMN_Stop_DMA+0x50>
 80092bc:	f885 3043 	strb.w	r3, [r5, #67]	; 0x43
 80092c0:	2000      	movs	r0, #0
 80092c2:	bd38      	pop	{r3, r4, r5, pc}

080092c4 <HAL_TIMEx_OnePulseN_Start>:
 80092c4:	b5f8      	push	{r3, r4, r5, r6, r7, lr}
 80092c6:	f890 603e 	ldrb.w	r6, [r0, #62]	; 0x3e
 80092ca:	f890 303f 	ldrb.w	r3, [r0, #63]	; 0x3f
 80092ce:	f890 2042 	ldrb.w	r2, [r0, #66]	; 0x42
 80092d2:	f890 5043 	ldrb.w	r5, [r0, #67]	; 0x43
 80092d6:	2900      	cmp	r1, #0
 80092d8:	bf0c      	ite	eq
 80092da:	2704      	moveq	r7, #4
 80092dc:	2700      	movne	r7, #0
 80092de:	2e01      	cmp	r6, #1
 80092e0:	d105      	bne.n	80092ee <HAL_TIMEx_OnePulseN_Start+0x2a>
 80092e2:	b2db      	uxtb	r3, r3
 80092e4:	2b01      	cmp	r3, #1
 80092e6:	4604      	mov	r4, r0
 80092e8:	b2f0      	uxtb	r0, r6
 80092ea:	d002      	beq.n	80092f2 <HAL_TIMEx_OnePulseN_Start+0x2e>
 80092ec:	bdf8      	pop	{r3, r4, r5, r6, r7, pc}
 80092ee:	2001      	movs	r0, #1
 80092f0:	bdf8      	pop	{r3, r4, r5, r6, r7, pc}
 80092f2:	b2d2      	uxtb	r2, r2
 80092f4:	2a01      	cmp	r2, #1
 80092f6:	d1f9      	bne.n	80092ec <HAL_TIMEx_OnePulseN_Start+0x28>
 80092f8:	b2ed      	uxtb	r5, r5
 80092fa:	2d01      	cmp	r5, #1
 80092fc:	d1f6      	bne.n	80092ec <HAL_TIMEx_OnePulseN_Start+0x28>
 80092fe:	6825      	ldr	r5, [r4, #0]
 8009300:	2302      	movs	r3, #2
 8009302:	f884 303e 	strb.w	r3, [r4, #62]	; 0x3e
 8009306:	f884 303f 	strb.w	r3, [r4, #63]	; 0x3f
 800930a:	f884 3042 	strb.w	r3, [r4, #66]	; 0x42
 800930e:	f884 3043 	strb.w	r3, [r4, #67]	; 0x43
 8009312:	6a2a      	ldr	r2, [r5, #32]
 8009314:	f001 031f 	and.w	r3, r1, #31
 8009318:	2104      	movs	r1, #4
 800931a:	4099      	lsls	r1, r3
 800931c:	ea22 0201 	bic.w	r2, r2, r1
 8009320:	622a      	str	r2, [r5, #32]
 8009322:	6a2b      	ldr	r3, [r5, #32]
 8009324:	430b      	orrs	r3, r1
 8009326:	4602      	mov	r2, r0
 8009328:	622b      	str	r3, [r5, #32]
 800932a:	4628      	mov	r0, r5
 800932c:	4639      	mov	r1, r7
 800932e:	f7fe fef7 	bl	8008120 <TIM_CCxChannelCmd>
 8009332:	6822      	ldr	r2, [r4, #0]
 8009334:	6c53      	ldr	r3, [r2, #68]	; 0x44
 8009336:	f443 4300 	orr.w	r3, r3, #32768	; 0x8000
 800933a:	6453      	str	r3, [r2, #68]	; 0x44
 800933c:	2000      	movs	r0, #0
 800933e:	bdf8      	pop	{r3, r4, r5, r6, r7, pc}

08009340 <HAL_TIMEx_OnePulseN_Stop>:
 8009340:	b510      	push	{r4, lr}
 8009342:	4604      	mov	r4, r0
 8009344:	6800      	ldr	r0, [r0, #0]
 8009346:	2900      	cmp	r1, #0
 8009348:	6a03      	ldr	r3, [r0, #32]
 800934a:	f04f 0204 	mov.w	r2, #4
 800934e:	f001 011f 	and.w	r1, r1, #31
 8009352:	fa02 f101 	lsl.w	r1, r2, r1
 8009356:	ea23 0101 	bic.w	r1, r3, r1
 800935a:	6201      	str	r1, [r0, #32]
 800935c:	6a03      	ldr	r3, [r0, #32]
 800935e:	6203      	str	r3, [r0, #32]
 8009360:	bf0c      	ite	eq
 8009362:	4611      	moveq	r1, r2
 8009364:	2100      	movne	r1, #0
 8009366:	2200      	movs	r2, #0
 8009368:	f7fe feda 	bl	8008120 <TIM_CCxChannelCmd>
 800936c:	6823      	ldr	r3, [r4, #0]
 800936e:	6a19      	ldr	r1, [r3, #32]
 8009370:	f241 1211 	movw	r2, #4369	; 0x1111
 8009374:	4211      	tst	r1, r2
 8009376:	d104      	bne.n	8009382 <HAL_TIMEx_OnePulseN_Stop+0x42>
 8009378:	6a19      	ldr	r1, [r3, #32]
 800937a:	f240 4244 	movw	r2, #1092	; 0x444
 800937e:	4211      	tst	r1, r2
 8009380:	d018      	beq.n	80093b4 <HAL_TIMEx_OnePulseN_Stop+0x74>
 8009382:	6a19      	ldr	r1, [r3, #32]
 8009384:	f241 1211 	movw	r2, #4369	; 0x1111
 8009388:	4211      	tst	r1, r2
 800938a:	d108      	bne.n	800939e <HAL_TIMEx_OnePulseN_Stop+0x5e>
 800938c:	6a19      	ldr	r1, [r3, #32]
 800938e:	f240 4244 	movw	r2, #1092	; 0x444
 8009392:	4211      	tst	r1, r2
 8009394:	d103      	bne.n	800939e <HAL_TIMEx_OnePulseN_Stop+0x5e>
 8009396:	681a      	ldr	r2, [r3, #0]
 8009398:	f022 0201 	bic.w	r2, r2, #1
 800939c:	601a      	str	r2, [r3, #0]
 800939e:	2301      	movs	r3, #1
 80093a0:	f884 303e 	strb.w	r3, [r4, #62]	; 0x3e
 80093a4:	f884 303f 	strb.w	r3, [r4, #63]	; 0x3f
 80093a8:	f884 3042 	strb.w	r3, [r4, #66]	; 0x42
 80093ac:	f884 3043 	strb.w	r3, [r4, #67]	; 0x43
 80093b0:	2000      	movs	r0, #0
 80093b2:	bd10      	pop	{r4, pc}
 80093b4:	6c5a      	ldr	r2, [r3, #68]	; 0x44
 80093b6:	f422 4200 	bic.w	r2, r2, #32768	; 0x8000
 80093ba:	645a      	str	r2, [r3, #68]	; 0x44
 80093bc:	e7e1      	b.n	8009382 <HAL_TIMEx_OnePulseN_Stop+0x42>
 80093be:	bf00      	nop

080093c0 <HAL_TIMEx_OnePulseN_Start_IT>:
 80093c0:	b5f8      	push	{r3, r4, r5, r6, r7, lr}
 80093c2:	f890 603e 	ldrb.w	r6, [r0, #62]	; 0x3e
 80093c6:	f890 303f 	ldrb.w	r3, [r0, #63]	; 0x3f
 80093ca:	f890 2042 	ldrb.w	r2, [r0, #66]	; 0x42
 80093ce:	f890 5043 	ldrb.w	r5, [r0, #67]	; 0x43
 80093d2:	2900      	cmp	r1, #0
 80093d4:	bf0c      	ite	eq
 80093d6:	2704      	moveq	r7, #4
 80093d8:	2700      	movne	r7, #0
 80093da:	2e01      	cmp	r6, #1
 80093dc:	d105      	bne.n	80093ea <HAL_TIMEx_OnePulseN_Start_IT+0x2a>
 80093de:	b2db      	uxtb	r3, r3
 80093e0:	2b01      	cmp	r3, #1
 80093e2:	4604      	mov	r4, r0
 80093e4:	b2f0      	uxtb	r0, r6
 80093e6:	d002      	beq.n	80093ee <HAL_TIMEx_OnePulseN_Start_IT+0x2e>
 80093e8:	bdf8      	pop	{r3, r4, r5, r6, r7, pc}
 80093ea:	2001      	movs	r0, #1
 80093ec:	bdf8      	pop	{r3, r4, r5, r6, r7, pc}
 80093ee:	b2d2      	uxtb	r2, r2
 80093f0:	2a01      	cmp	r2, #1
 80093f2:	d1f9      	bne.n	80093e8 <HAL_TIMEx_OnePulseN_Start_IT+0x28>
 80093f4:	b2ed      	uxtb	r5, r5
 80093f6:	2d01      	cmp	r5, #1
 80093f8:	d1f6      	bne.n	80093e8 <HAL_TIMEx_OnePulseN_Start_IT+0x28>
 80093fa:	6825      	ldr	r5, [r4, #0]
 80093fc:	2302      	movs	r3, #2
 80093fe:	f884 303e 	strb.w	r3, [r4, #62]	; 0x3e
 8009402:	f884 303f 	strb.w	r3, [r4, #63]	; 0x3f
 8009406:	f884 3042 	strb.w	r3, [r4, #66]	; 0x42
 800940a:	f884 3043 	strb.w	r3, [r4, #67]	; 0x43
 800940e:	68eb      	ldr	r3, [r5, #12]
 8009410:	f043 0302 	orr.w	r3, r3, #2
 8009414:	60eb      	str	r3, [r5, #12]
 8009416:	68eb      	ldr	r3, [r5, #12]
 8009418:	f043 0304 	orr.w	r3, r3, #4
 800941c:	60eb      	str	r3, [r5, #12]
 800941e:	6a2a      	ldr	r2, [r5, #32]
 8009420:	f001 031f 	and.w	r3, r1, #31
 8009424:	2104      	movs	r1, #4
 8009426:	4099      	lsls	r1, r3
 8009428:	ea22 0201 	bic.w	r2, r2, r1
 800942c:	622a      	str	r2, [r5, #32]
 800942e:	6a2b      	ldr	r3, [r5, #32]
 8009430:	430b      	orrs	r3, r1
 8009432:	4602      	mov	r2, r0
 8009434:	622b      	str	r3, [r5, #32]
 8009436:	4628      	mov	r0, r5
 8009438:	4639      	mov	r1, r7
 800943a:	f7fe fe71 	bl	8008120 <TIM_CCxChannelCmd>
 800943e:	6822      	ldr	r2, [r4, #0]
 8009440:	6c53      	ldr	r3, [r2, #68]	; 0x44
 8009442:	f443 4300 	orr.w	r3, r3, #32768	; 0x8000
 8009446:	6453      	str	r3, [r2, #68]	; 0x44
 8009448:	2000      	movs	r0, #0
 800944a:	bdf8      	pop	{r3, r4, r5, r6, r7, pc}

0800944c <HAL_TIMEx_OnePulseN_Stop_IT>:
 800944c:	b510      	push	{r4, lr}
 800944e:	4604      	mov	r4, r0
 8009450:	6800      	ldr	r0, [r0, #0]
 8009452:	68c3      	ldr	r3, [r0, #12]
 8009454:	f023 0302 	bic.w	r3, r3, #2
 8009458:	60c3      	str	r3, [r0, #12]
 800945a:	68c3      	ldr	r3, [r0, #12]
 800945c:	f023 0304 	bic.w	r3, r3, #4
 8009460:	2900      	cmp	r1, #0
 8009462:	60c3      	str	r3, [r0, #12]
 8009464:	6a03      	ldr	r3, [r0, #32]
 8009466:	f04f 0204 	mov.w	r2, #4
 800946a:	f001 011f 	and.w	r1, r1, #31
 800946e:	fa02 f101 	lsl.w	r1, r2, r1
 8009472:	ea23 0101 	bic.w	r1, r3, r1
 8009476:	6201      	str	r1, [r0, #32]
 8009478:	6a03      	ldr	r3, [r0, #32]
 800947a:	6203      	str	r3, [r0, #32]
 800947c:	bf0c      	ite	eq
 800947e:	4611      	moveq	r1, r2
 8009480:	2100      	movne	r1, #0
 8009482:	2200      	movs	r2, #0
 8009484:	f7fe fe4c 	bl	8008120 <TIM_CCxChannelCmd>
 8009488:	6823      	ldr	r3, [r4, #0]
 800948a:	6a19      	ldr	r1, [r3, #32]
 800948c:	f241 1211 	movw	r2, #4369	; 0x1111
 8009490:	4211      	tst	r1, r2
 8009492:	d104      	bne.n	800949e <HAL_TIMEx_OnePulseN_Stop_IT+0x52>
 8009494:	6a19      	ldr	r1, [r3, #32]
 8009496:	f240 4244 	movw	r2, #1092	; 0x444
 800949a:	4211      	tst	r1, r2
 800949c:	d018      	beq.n	80094d0 <HAL_TIMEx_OnePulseN_Stop_IT+0x84>
 800949e:	6a19      	ldr	r1, [r3, #32]
 80094a0:	f241 1211 	movw	r2, #4369	; 0x1111
 80094a4:	4211      	tst	r1, r2
 80094a6:	d108      	bne.n	80094ba <HAL_TIMEx_OnePulseN_Stop_IT+0x6e>
 80094a8:	6a19      	ldr	r1, [r3, #32]
 80094aa:	f240 4244 	movw	r2, #1092	; 0x444
 80094ae:	4211      	tst	r1, r2
 80094b0:	d103      	bne.n	80094ba <HAL_TIMEx_OnePulseN_Stop_IT+0x6e>
 80094b2:	681a      	ldr	r2, [r3, #0]
 80094b4:	f022 0201 	bic.w	r2, r2, #1
 80094b8:	601a      	str	r2, [r3, #0]
 80094ba:	2301      	movs	r3, #1
 80094bc:	f884 303e 	strb.w	r3, [r4, #62]	; 0x3e
 80094c0:	f884 303f 	strb.w	r3, [r4, #63]	; 0x3f
 80094c4:	f884 3042 	strb.w	r3, [r4, #66]	; 0x42
 80094c8:	f884 3043 	strb.w	r3, [r4, #67]	; 0x43
 80094cc:	2000      	movs	r0, #0
 80094ce:	bd10      	pop	{r4, pc}
 80094d0:	6c5a      	ldr	r2, [r3, #68]	; 0x44
 80094d2:	f422 4200 	bic.w	r2, r2, #32768	; 0x8000
 80094d6:	645a      	str	r2, [r3, #68]	; 0x44
 80094d8:	e7e1      	b.n	800949e <HAL_TIMEx_OnePulseN_Stop_IT+0x52>
 80094da:	bf00      	nop

080094dc <HAL_TIMEx_ConfigCommutEvent>:
 80094dc:	f890 303c 	ldrb.w	r3, [r0, #60]	; 0x3c
 80094e0:	2b01      	cmp	r3, #1
 80094e2:	d029      	beq.n	8009538 <HAL_TIMEx_ConfigCommutEvent+0x5c>
 80094e4:	2301      	movs	r3, #1
 80094e6:	b410      	push	{r4}
 80094e8:	f880 303c 	strb.w	r3, [r0, #60]	; 0x3c
 80094ec:	f031 0330 	bics.w	r3, r1, #48	; 0x30
 80094f0:	4604      	mov	r4, r0
 80094f2:	6803      	ldr	r3, [r0, #0]
 80094f4:	d106      	bne.n	8009504 <HAL_TIMEx_ConfigCommutEvent+0x28>
 80094f6:	6898      	ldr	r0, [r3, #8]
 80094f8:	f020 0070 	bic.w	r0, r0, #112	; 0x70
 80094fc:	6098      	str	r0, [r3, #8]
 80094fe:	6898      	ldr	r0, [r3, #8]
 8009500:	4301      	orrs	r1, r0
 8009502:	6099      	str	r1, [r3, #8]
 8009504:	6859      	ldr	r1, [r3, #4]
 8009506:	f041 0101 	orr.w	r1, r1, #1
 800950a:	6059      	str	r1, [r3, #4]
 800950c:	6859      	ldr	r1, [r3, #4]
 800950e:	f021 0104 	bic.w	r1, r1, #4
 8009512:	6059      	str	r1, [r3, #4]
 8009514:	6859      	ldr	r1, [r3, #4]
 8009516:	430a      	orrs	r2, r1
 8009518:	605a      	str	r2, [r3, #4]
 800951a:	68da      	ldr	r2, [r3, #12]
 800951c:	f022 0220 	bic.w	r2, r2, #32
 8009520:	60da      	str	r2, [r3, #12]
 8009522:	68da      	ldr	r2, [r3, #12]
 8009524:	2100      	movs	r1, #0
 8009526:	f422 5200 	bic.w	r2, r2, #8192	; 0x2000
 800952a:	60da      	str	r2, [r3, #12]
 800952c:	f884 103c 	strb.w	r1, [r4, #60]	; 0x3c
 8009530:	4608      	mov	r0, r1
 8009532:	f85d 4b04 	ldr.w	r4, [sp], #4
 8009536:	4770      	bx	lr
 8009538:	2002      	movs	r0, #2
 800953a:	4770      	bx	lr

0800953c <HAL_TIMEx_ConfigCommutEvent_IT>:
 800953c:	f890 303c 	ldrb.w	r3, [r0, #60]	; 0x3c
 8009540:	2b01      	cmp	r3, #1
 8009542:	d029      	beq.n	8009598 <HAL_TIMEx_ConfigCommutEvent_IT+0x5c>
 8009544:	2301      	movs	r3, #1
 8009546:	b410      	push	{r4}
 8009548:	f880 303c 	strb.w	r3, [r0, #60]	; 0x3c
 800954c:	f031 0330 	bics.w	r3, r1, #48	; 0x30
 8009550:	4604      	mov	r4, r0
 8009552:	6803      	ldr	r3, [r0, #0]
 8009554:	d106      	bne.n	8009564 <HAL_TIMEx_ConfigCommutEvent_IT+0x28>
 8009556:	6898      	ldr	r0, [r3, #8]
 8009558:	f020 0070 	bic.w	r0, r0, #112	; 0x70
 800955c:	6098      	str	r0, [r3, #8]
 800955e:	6898      	ldr	r0, [r3, #8]
 8009560:	4301      	orrs	r1, r0
 8009562:	6099      	str	r1, [r3, #8]
 8009564:	6859      	ldr	r1, [r3, #4]
 8009566:	f041 0101 	orr.w	r1, r1, #1
 800956a:	6059      	str	r1, [r3, #4]
 800956c:	6859      	ldr	r1, [r3, #4]
 800956e:	f021 0104 	bic.w	r1, r1, #4
 8009572:	6059      	str	r1, [r3, #4]
 8009574:	6859      	ldr	r1, [r3, #4]
 8009576:	430a      	orrs	r2, r1
 8009578:	605a      	str	r2, [r3, #4]
 800957a:	68da      	ldr	r2, [r3, #12]
 800957c:	f422 5200 	bic.w	r2, r2, #8192	; 0x2000
 8009580:	60da      	str	r2, [r3, #12]
 8009582:	68da      	ldr	r2, [r3, #12]
 8009584:	2100      	movs	r1, #0
 8009586:	f042 0220 	orr.w	r2, r2, #32
 800958a:	60da      	str	r2, [r3, #12]
 800958c:	f884 103c 	strb.w	r1, [r4, #60]	; 0x3c
 8009590:	4608      	mov	r0, r1
 8009592:	f85d 4b04 	ldr.w	r4, [sp], #4
 8009596:	4770      	bx	lr
 8009598:	2002      	movs	r0, #2
 800959a:	4770      	bx	lr

0800959c <HAL_TIMEx_ConfigCommutEvent_DMA>:
 800959c:	f890 303c 	ldrb.w	r3, [r0, #60]	; 0x3c
 80095a0:	2b01      	cmp	r3, #1
 80095a2:	d038      	beq.n	8009616 <HAL_TIMEx_ConfigCommutEvent_DMA+0x7a>
 80095a4:	2301      	movs	r3, #1
 80095a6:	b430      	push	{r4, r5}
 80095a8:	f880 303c 	strb.w	r3, [r0, #60]	; 0x3c
 80095ac:	f031 0330 	bics.w	r3, r1, #48	; 0x30
 80095b0:	4604      	mov	r4, r0
 80095b2:	6803      	ldr	r3, [r0, #0]
 80095b4:	d106      	bne.n	80095c4 <HAL_TIMEx_ConfigCommutEvent_DMA+0x28>
 80095b6:	6898      	ldr	r0, [r3, #8]
 80095b8:	f020 0070 	bic.w	r0, r0, #112	; 0x70
 80095bc:	6098      	str	r0, [r3, #8]
 80095be:	6898      	ldr	r0, [r3, #8]
 80095c0:	4301      	orrs	r1, r0
 80095c2:	6099      	str	r1, [r3, #8]
 80095c4:	6858      	ldr	r0, [r3, #4]
 80095c6:	6b61      	ldr	r1, [r4, #52]	; 0x34
 80095c8:	f040 0001 	orr.w	r0, r0, #1
 80095cc:	6058      	str	r0, [r3, #4]
 80095ce:	6858      	ldr	r0, [r3, #4]
 80095d0:	f020 0004 	bic.w	r0, r0, #4
 80095d4:	6058      	str	r0, [r3, #4]
 80095d6:	6858      	ldr	r0, [r3, #4]
 80095d8:	4302      	orrs	r2, r0
 80095da:	605a      	str	r2, [r3, #4]
 80095dc:	f249 7029 	movw	r0, #38697	; 0x9729
 80095e0:	68da      	ldr	r2, [r3, #12]
 80095e2:	f6c0 0000 	movt	r0, #2048	; 0x800
 80095e6:	63c8      	str	r0, [r1, #60]	; 0x3c
 80095e8:	f249 753d 	movw	r5, #38717	; 0x973d
 80095ec:	f647 603d 	movw	r0, #32317	; 0x7e3d
 80095f0:	f022 0220 	bic.w	r2, r2, #32
 80095f4:	f6c0 0500 	movt	r5, #2048	; 0x800
 80095f8:	f6c0 0000 	movt	r0, #2048	; 0x800
 80095fc:	640d      	str	r5, [r1, #64]	; 0x40
 80095fe:	64c8      	str	r0, [r1, #76]	; 0x4c
 8009600:	60da      	str	r2, [r3, #12]
 8009602:	68da      	ldr	r2, [r3, #12]
 8009604:	2100      	movs	r1, #0
 8009606:	f442 5200 	orr.w	r2, r2, #8192	; 0x2000
 800960a:	60da      	str	r2, [r3, #12]
 800960c:	f884 103c 	strb.w	r1, [r4, #60]	; 0x3c
 8009610:	4608      	mov	r0, r1
 8009612:	bc30      	pop	{r4, r5}
 8009614:	4770      	bx	lr
 8009616:	2002      	movs	r0, #2
 8009618:	4770      	bx	lr
 800961a:	bf00      	nop

0800961c <HAL_TIMEx_MasterConfigSynchronization>:
 800961c:	f890 303c 	ldrb.w	r3, [r0, #60]	; 0x3c
 8009620:	2b01      	cmp	r3, #1
 8009622:	d045      	beq.n	80096b0 <HAL_TIMEx_MasterConfigSynchronization+0x94>
 8009624:	6803      	ldr	r3, [r0, #0]
 8009626:	2202      	movs	r2, #2
 8009628:	b430      	push	{r4, r5}
 800962a:	f880 203d 	strb.w	r2, [r0, #61]	; 0x3d
 800962e:	685a      	ldr	r2, [r3, #4]
 8009630:	680d      	ldr	r5, [r1, #0]
 8009632:	689c      	ldr	r4, [r3, #8]
 8009634:	f022 0270 	bic.w	r2, r2, #112	; 0x70
 8009638:	432a      	orrs	r2, r5
 800963a:	2500      	movs	r5, #0
 800963c:	f2c4 0501 	movt	r5, #16385	; 0x4001
 8009640:	42ab      	cmp	r3, r5
 8009642:	605a      	str	r2, [r3, #4]
 8009644:	d026      	beq.n	8009694 <HAL_TIMEx_MasterConfigSynchronization+0x78>
 8009646:	f1b3 4f80 	cmp.w	r3, #1073741824	; 0x40000000
 800964a:	d023      	beq.n	8009694 <HAL_TIMEx_MasterConfigSynchronization+0x78>
 800964c:	f44f 6280 	mov.w	r2, #1024	; 0x400
 8009650:	f2c4 0200 	movt	r2, #16384	; 0x4000
 8009654:	4293      	cmp	r3, r2
 8009656:	d01d      	beq.n	8009694 <HAL_TIMEx_MasterConfigSynchronization+0x78>
 8009658:	f44f 6200 	mov.w	r2, #2048	; 0x800
 800965c:	f2c4 0200 	movt	r2, #16384	; 0x4000
 8009660:	4293      	cmp	r3, r2
 8009662:	d017      	beq.n	8009694 <HAL_TIMEx_MasterConfigSynchronization+0x78>
 8009664:	f44f 6240 	mov.w	r2, #3072	; 0xc00
 8009668:	f2c4 0200 	movt	r2, #16384	; 0x4000
 800966c:	4293      	cmp	r3, r2
 800966e:	d011      	beq.n	8009694 <HAL_TIMEx_MasterConfigSynchronization+0x78>
 8009670:	f44f 6280 	mov.w	r2, #1024	; 0x400
 8009674:	f2c4 0201 	movt	r2, #16385	; 0x4001
 8009678:	4293      	cmp	r3, r2
 800967a:	d00b      	beq.n	8009694 <HAL_TIMEx_MasterConfigSynchronization+0x78>
 800967c:	f44f 4280 	mov.w	r2, #16384	; 0x4000
 8009680:	f2c4 0201 	movt	r2, #16385	; 0x4001
 8009684:	4293      	cmp	r3, r2
 8009686:	d005      	beq.n	8009694 <HAL_TIMEx_MasterConfigSynchronization+0x78>
 8009688:	f44f 52c0 	mov.w	r2, #6144	; 0x1800
 800968c:	f2c4 0200 	movt	r2, #16384	; 0x4000
 8009690:	4293      	cmp	r3, r2
 8009692:	d104      	bne.n	800969e <HAL_TIMEx_MasterConfigSynchronization+0x82>
 8009694:	684a      	ldr	r2, [r1, #4]
 8009696:	f024 0480 	bic.w	r4, r4, #128	; 0x80
 800969a:	4314      	orrs	r4, r2
 800969c:	609c      	str	r4, [r3, #8]
 800969e:	2300      	movs	r3, #0
 80096a0:	2201      	movs	r2, #1
 80096a2:	f880 203d 	strb.w	r2, [r0, #61]	; 0x3d
 80096a6:	f880 303c 	strb.w	r3, [r0, #60]	; 0x3c
 80096aa:	bc30      	pop	{r4, r5}
 80096ac:	4618      	mov	r0, r3
 80096ae:	4770      	bx	lr
 80096b0:	2002      	movs	r0, #2
 80096b2:	4770      	bx	lr

080096b4 <HAL_TIMEx_ConfigBreakDeadTime>:
 80096b4:	f890 303c 	ldrb.w	r3, [r0, #60]	; 0x3c
 80096b8:	2b01      	cmp	r3, #1
 80096ba:	d022      	beq.n	8009702 <HAL_TIMEx_ConfigBreakDeadTime+0x4e>
 80096bc:	b430      	push	{r4, r5}
 80096be:	e9d1 5302 	ldrd	r5, r3, [r1, #8]
 80096c2:	4604      	mov	r4, r0
 80096c4:	f423 7340 	bic.w	r3, r3, #768	; 0x300
 80096c8:	e9d1 2000 	ldrd	r2, r0, [r1]
 80096cc:	432b      	orrs	r3, r5
 80096ce:	f423 6380 	bic.w	r3, r3, #1024	; 0x400
 80096d2:	4303      	orrs	r3, r0
 80096d4:	f423 6300 	bic.w	r3, r3, #2048	; 0x800
 80096d8:	e9d1 5004 	ldrd	r5, r0, [r1, #16]
 80096dc:	4313      	orrs	r3, r2
 80096de:	f423 5380 	bic.w	r3, r3, #4096	; 0x1000
 80096e2:	432b      	orrs	r3, r5
 80096e4:	f423 5300 	bic.w	r3, r3, #8192	; 0x2000
 80096e8:	69c9      	ldr	r1, [r1, #28]
 80096ea:	6822      	ldr	r2, [r4, #0]
 80096ec:	4303      	orrs	r3, r0
 80096ee:	f423 4380 	bic.w	r3, r3, #16384	; 0x4000
 80096f2:	430b      	orrs	r3, r1
 80096f4:	2100      	movs	r1, #0
 80096f6:	6453      	str	r3, [r2, #68]	; 0x44
 80096f8:	f884 103c 	strb.w	r1, [r4, #60]	; 0x3c
 80096fc:	4608      	mov	r0, r1
 80096fe:	bc30      	pop	{r4, r5}
 8009700:	4770      	bx	lr
 8009702:	2002      	movs	r0, #2
 8009704:	4770      	bx	lr
 8009706:	bf00      	nop

08009708 <HAL_TIMEx_RemapConfig>:
 8009708:	f890 203c 	ldrb.w	r2, [r0, #60]	; 0x3c
 800970c:	2a01      	cmp	r2, #1
 800970e:	4603      	mov	r3, r0
 8009710:	d006      	beq.n	8009720 <HAL_TIMEx_RemapConfig+0x18>
 8009712:	6800      	ldr	r0, [r0, #0]
 8009714:	2200      	movs	r2, #0
 8009716:	6501      	str	r1, [r0, #80]	; 0x50
 8009718:	4610      	mov	r0, r2
 800971a:	f883 203c 	strb.w	r2, [r3, #60]	; 0x3c
 800971e:	4770      	bx	lr
 8009720:	2002      	movs	r0, #2
 8009722:	4770      	bx	lr

08009724 <HAL_TIMEx_CommutCallback>:
 8009724:	4770      	bx	lr
 8009726:	bf00      	nop

08009728 <TIMEx_DMACommutationCplt>:
 8009728:	b508      	push	{r3, lr}
 800972a:	6b80      	ldr	r0, [r0, #56]	; 0x38
 800972c:	2301      	movs	r3, #1
 800972e:	f880 303d 	strb.w	r3, [r0, #61]	; 0x3d
 8009732:	f7ff fff7 	bl	8009724 <HAL_TIMEx_CommutCallback>
 8009736:	bd08      	pop	{r3, pc}

08009738 <HAL_TIMEx_CommutHalfCpltCallback>:
 8009738:	4770      	bx	lr
 800973a:	bf00      	nop

0800973c <TIMEx_DMACommutationHalfCplt>:
 800973c:	b508      	push	{r3, lr}
 800973e:	6b80      	ldr	r0, [r0, #56]	; 0x38
 8009740:	2301      	movs	r3, #1
 8009742:	f880 303d 	strb.w	r3, [r0, #61]	; 0x3d
 8009746:	f7ff fff7 	bl	8009738 <HAL_TIMEx_CommutHalfCpltCallback>
 800974a:	bd08      	pop	{r3, pc}

0800974c <HAL_TIMEx_BreakCallback>:
 800974c:	4770      	bx	lr
 800974e:	bf00      	nop

08009750 <HAL_TIMEx_HallSensor_GetState>:
 8009750:	f890 003d 	ldrb.w	r0, [r0, #61]	; 0x3d
 8009754:	4770      	bx	lr
 8009756:	bf00      	nop

08009758 <HAL_TIMEx_GetChannelNState>:
 8009758:	b919      	cbnz	r1, 8009762 <HAL_TIMEx_GetChannelNState+0xa>
 800975a:	f890 0042 	ldrb.w	r0, [r0, #66]	; 0x42
 800975e:	b2c0      	uxtb	r0, r0
 8009760:	4770      	bx	lr
 8009762:	2904      	cmp	r1, #4
 8009764:	d007      	beq.n	8009776 <HAL_TIMEx_GetChannelNState+0x1e>
 8009766:	2908      	cmp	r1, #8
 8009768:	bf0c      	ite	eq
 800976a:	f890 0044 	ldrbeq.w	r0, [r0, #68]	; 0x44
 800976e:	f890 0045 	ldrbne.w	r0, [r0, #69]	; 0x45
 8009772:	b2c0      	uxtb	r0, r0
 8009774:	4770      	bx	lr
 8009776:	f890 0043 	ldrb.w	r0, [r0, #67]	; 0x43
 800977a:	b2c0      	uxtb	r0, r0
 800977c:	4770      	bx	lr
 800977e:	bf00      	nop
 8009780:	4770      	bx	lr
 8009782:	bf00      	nop

08009784 <HAL_UART_Init>:
 8009784:	2800      	cmp	r0, #0
 8009786:	f000 809b 	beq.w	80098c0 <HAL_UART_Init+0x13c>
 800978a:	b570      	push	{r4, r5, r6, lr}
 800978c:	f890 303d 	ldrb.w	r3, [r0, #61]	; 0x3d
 8009790:	4604      	mov	r4, r0
 8009792:	f003 02ff 	and.w	r2, r3, #255	; 0xff
 8009796:	2b00      	cmp	r3, #0
 8009798:	f000 808d 	beq.w	80098b6 <HAL_UART_Init+0x132>
 800979c:	6823      	ldr	r3, [r4, #0]
 800979e:	6926      	ldr	r6, [r4, #16]
 80097a0:	2224      	movs	r2, #36	; 0x24
 80097a2:	f884 203d 	strb.w	r2, [r4, #61]	; 0x3d
 80097a6:	68d8      	ldr	r0, [r3, #12]
 80097a8:	f420 5000 	bic.w	r0, r0, #8192	; 0x2000
 80097ac:	e9d4 2502 	ldrd	r2, r5, [r4, #8]
 80097b0:	60d8      	str	r0, [r3, #12]
 80097b2:	6919      	ldr	r1, [r3, #16]
 80097b4:	69e0      	ldr	r0, [r4, #28]
 80097b6:	f421 5140 	bic.w	r1, r1, #12288	; 0x3000
 80097ba:	4329      	orrs	r1, r5
 80097bc:	6119      	str	r1, [r3, #16]
 80097be:	68d9      	ldr	r1, [r3, #12]
 80097c0:	6965      	ldr	r5, [r4, #20]
 80097c2:	4332      	orrs	r2, r6
 80097c4:	f421 4116 	bic.w	r1, r1, #38400	; 0x9600
 80097c8:	432a      	orrs	r2, r5
 80097ca:	f021 010c 	bic.w	r1, r1, #12
 80097ce:	4302      	orrs	r2, r0
 80097d0:	430a      	orrs	r2, r1
 80097d2:	60da      	str	r2, [r3, #12]
 80097d4:	695a      	ldr	r2, [r3, #20]
 80097d6:	69a0      	ldr	r0, [r4, #24]
 80097d8:	f44f 5180 	mov.w	r1, #4096	; 0x1000
 80097dc:	f422 7240 	bic.w	r2, r2, #768	; 0x300
 80097e0:	f2c4 0101 	movt	r1, #16385	; 0x4001
 80097e4:	4302      	orrs	r2, r0
 80097e6:	428b      	cmp	r3, r1
 80097e8:	615a      	str	r2, [r3, #20]
 80097ea:	d03b      	beq.n	8009864 <HAL_UART_Init+0xe0>
 80097ec:	f44f 52a0 	mov.w	r2, #5120	; 0x1400
 80097f0:	f2c4 0201 	movt	r2, #16385	; 0x4001
 80097f4:	4293      	cmp	r3, r2
 80097f6:	d035      	beq.n	8009864 <HAL_UART_Init+0xe0>
 80097f8:	f7f9 f8b4 	bl	8002964 <HAL_RCC_GetPCLK1Freq>
 80097fc:	69e3      	ldr	r3, [r4, #28]
 80097fe:	f5b3 4f00 	cmp.w	r3, #32768	; 0x8000
 8009802:	d035      	beq.n	8009870 <HAL_UART_Init+0xec>
 8009804:	6863      	ldr	r3, [r4, #4]
 8009806:	2119      	movs	r1, #25
 8009808:	009a      	lsls	r2, r3, #2
 800980a:	fba0 0101 	umull	r0, r1, r0, r1
 800980e:	0f9b      	lsrs	r3, r3, #30
 8009810:	f001 fd5e 	bl	800b2d0 <__aeabi_uldivmod>
 8009814:	f248 551f 	movw	r5, #34079	; 0x851f
 8009818:	f2c5 15eb 	movt	r5, #20971	; 0x51eb
 800981c:	fba5 3100 	umull	r3, r1, r5, r0
 8009820:	0949      	lsrs	r1, r1, #5
 8009822:	2364      	movs	r3, #100	; 0x64
 8009824:	fb03 0211 	mls	r2, r3, r1, r0
 8009828:	0112      	lsls	r2, r2, #4
 800982a:	3232      	adds	r2, #50	; 0x32
 800982c:	fba5 3202 	umull	r3, r2, r5, r2
 8009830:	0109      	lsls	r1, r1, #4
 8009832:	6823      	ldr	r3, [r4, #0]
 8009834:	eb01 1252 	add.w	r2, r1, r2, lsr #5
 8009838:	609a      	str	r2, [r3, #8]
 800983a:	691a      	ldr	r2, [r3, #16]
 800983c:	f422 4290 	bic.w	r2, r2, #18432	; 0x4800
 8009840:	611a      	str	r2, [r3, #16]
 8009842:	695a      	ldr	r2, [r3, #20]
 8009844:	f022 022a 	bic.w	r2, r2, #42	; 0x2a
 8009848:	615a      	str	r2, [r3, #20]
 800984a:	68da      	ldr	r2, [r3, #12]
 800984c:	2500      	movs	r5, #0
 800984e:	2120      	movs	r1, #32
 8009850:	f442 5200 	orr.w	r2, r2, #8192	; 0x2000
 8009854:	60da      	str	r2, [r3, #12]
 8009856:	6425      	str	r5, [r4, #64]	; 0x40
 8009858:	f884 103d 	strb.w	r1, [r4, #61]	; 0x3d
 800985c:	f884 103e 	strb.w	r1, [r4, #62]	; 0x3e
 8009860:	4628      	mov	r0, r5
 8009862:	bd70      	pop	{r4, r5, r6, pc}
 8009864:	f7f9 f892 	bl	800298c <HAL_RCC_GetPCLK2Freq>
 8009868:	69e3      	ldr	r3, [r4, #28]
 800986a:	f5b3 4f00 	cmp.w	r3, #32768	; 0x8000
 800986e:	d1c9      	bne.n	8009804 <HAL_UART_Init+0x80>
 8009870:	6862      	ldr	r2, [r4, #4]
 8009872:	2300      	movs	r3, #0
 8009874:	1892      	adds	r2, r2, r2
 8009876:	f04f 0119 	mov.w	r1, #25
 800987a:	415b      	adcs	r3, r3
 800987c:	fba0 0101 	umull	r0, r1, r0, r1
 8009880:	f001 fd26 	bl	800b2d0 <__aeabi_uldivmod>
 8009884:	f248 521f 	movw	r2, #34079	; 0x851f
 8009888:	f2c5 12eb 	movt	r2, #20971	; 0x51eb
 800988c:	fba2 3100 	umull	r3, r1, r2, r0
 8009890:	094d      	lsrs	r5, r1, #5
 8009892:	2164      	movs	r1, #100	; 0x64
 8009894:	fb01 0315 	mls	r3, r1, r5, r0
 8009898:	00db      	lsls	r3, r3, #3
 800989a:	3332      	adds	r3, #50	; 0x32
 800989c:	fba2 2303 	umull	r2, r3, r2, r3
 80098a0:	f3c3 1242 	ubfx	r2, r3, #5, #3
 80098a4:	091b      	lsrs	r3, r3, #4
 80098a6:	eb02 1105 	add.w	r1, r2, r5, lsl #4
 80098aa:	f403 72f8 	and.w	r2, r3, #496	; 0x1f0
 80098ae:	6823      	ldr	r3, [r4, #0]
 80098b0:	440a      	add	r2, r1
 80098b2:	609a      	str	r2, [r3, #8]
 80098b4:	e7c1      	b.n	800983a <HAL_UART_Init+0xb6>
 80098b6:	f880 203c 	strb.w	r2, [r0, #60]	; 0x3c
 80098ba:	f7f7 f837 	bl	800092c <HAL_UART_MspInit>
 80098be:	e76d      	b.n	800979c <HAL_UART_Init+0x18>
 80098c0:	2001      	movs	r0, #1
 80098c2:	4770      	bx	lr

080098c4 <HAL_HalfDuplex_Init>:
 80098c4:	2800      	cmp	r0, #0
 80098c6:	f000 809f 	beq.w	8009a08 <HAL_HalfDuplex_Init+0x144>
 80098ca:	b570      	push	{r4, r5, r6, lr}
 80098cc:	f890 303d 	ldrb.w	r3, [r0, #61]	; 0x3d
 80098d0:	4604      	mov	r4, r0
 80098d2:	f003 02ff 	and.w	r2, r3, #255	; 0xff
 80098d6:	2b00      	cmp	r3, #0
 80098d8:	f000 8091 	beq.w	80099fe <HAL_HalfDuplex_Init+0x13a>
 80098dc:	6823      	ldr	r3, [r4, #0]
 80098de:	6926      	ldr	r6, [r4, #16]
 80098e0:	2224      	movs	r2, #36	; 0x24
 80098e2:	f884 203d 	strb.w	r2, [r4, #61]	; 0x3d
 80098e6:	68d8      	ldr	r0, [r3, #12]
 80098e8:	f420 5000 	bic.w	r0, r0, #8192	; 0x2000
 80098ec:	e9d4 2502 	ldrd	r2, r5, [r4, #8]
 80098f0:	60d8      	str	r0, [r3, #12]
 80098f2:	6919      	ldr	r1, [r3, #16]
 80098f4:	69e0      	ldr	r0, [r4, #28]
 80098f6:	f421 5140 	bic.w	r1, r1, #12288	; 0x3000
 80098fa:	4329      	orrs	r1, r5
 80098fc:	6119      	str	r1, [r3, #16]
 80098fe:	68d9      	ldr	r1, [r3, #12]
 8009900:	6965      	ldr	r5, [r4, #20]
 8009902:	4332      	orrs	r2, r6
 8009904:	f421 4116 	bic.w	r1, r1, #38400	; 0x9600
 8009908:	432a      	orrs	r2, r5
 800990a:	f021 010c 	bic.w	r1, r1, #12
 800990e:	4302      	orrs	r2, r0
 8009910:	430a      	orrs	r2, r1
 8009912:	60da      	str	r2, [r3, #12]
 8009914:	695a      	ldr	r2, [r3, #20]
 8009916:	69a0      	ldr	r0, [r4, #24]
 8009918:	f44f 5180 	mov.w	r1, #4096	; 0x1000
 800991c:	f422 7240 	bic.w	r2, r2, #768	; 0x300
 8009920:	f2c4 0101 	movt	r1, #16385	; 0x4001
 8009924:	4302      	orrs	r2, r0
 8009926:	428b      	cmp	r3, r1
 8009928:	615a      	str	r2, [r3, #20]
 800992a:	d03f      	beq.n	80099ac <HAL_HalfDuplex_Init+0xe8>
 800992c:	f44f 52a0 	mov.w	r2, #5120	; 0x1400
 8009930:	f2c4 0201 	movt	r2, #16385	; 0x4001
 8009934:	4293      	cmp	r3, r2
 8009936:	d039      	beq.n	80099ac <HAL_HalfDuplex_Init+0xe8>
 8009938:	f7f9 f814 	bl	8002964 <HAL_RCC_GetPCLK1Freq>
 800993c:	69e3      	ldr	r3, [r4, #28]
 800993e:	f5b3 4f00 	cmp.w	r3, #32768	; 0x8000
 8009942:	d039      	beq.n	80099b8 <HAL_HalfDuplex_Init+0xf4>
 8009944:	6863      	ldr	r3, [r4, #4]
 8009946:	2119      	movs	r1, #25
 8009948:	009a      	lsls	r2, r3, #2
 800994a:	fba0 0101 	umull	r0, r1, r0, r1
 800994e:	0f9b      	lsrs	r3, r3, #30
 8009950:	f001 fcbe 	bl	800b2d0 <__aeabi_uldivmod>
 8009954:	f248 551f 	movw	r5, #34079	; 0x851f
 8009958:	f2c5 15eb 	movt	r5, #20971	; 0x51eb
 800995c:	fba5 3100 	umull	r3, r1, r5, r0
 8009960:	0949      	lsrs	r1, r1, #5
 8009962:	2364      	movs	r3, #100	; 0x64
 8009964:	fb03 0211 	mls	r2, r3, r1, r0
 8009968:	0112      	lsls	r2, r2, #4
 800996a:	3232      	adds	r2, #50	; 0x32
 800996c:	fba5 3202 	umull	r3, r2, r5, r2
 8009970:	0109      	lsls	r1, r1, #4
 8009972:	6823      	ldr	r3, [r4, #0]
 8009974:	eb01 1252 	add.w	r2, r1, r2, lsr #5
 8009978:	609a      	str	r2, [r3, #8]
 800997a:	691a      	ldr	r2, [r3, #16]
 800997c:	f422 4290 	bic.w	r2, r2, #18432	; 0x4800
 8009980:	611a      	str	r2, [r3, #16]
 8009982:	695a      	ldr	r2, [r3, #20]
 8009984:	f022 0222 	bic.w	r2, r2, #34	; 0x22
 8009988:	615a      	str	r2, [r3, #20]
 800998a:	695a      	ldr	r2, [r3, #20]
 800998c:	f042 0208 	orr.w	r2, r2, #8
 8009990:	615a      	str	r2, [r3, #20]
 8009992:	68da      	ldr	r2, [r3, #12]
 8009994:	2500      	movs	r5, #0
 8009996:	2120      	movs	r1, #32
 8009998:	f442 5200 	orr.w	r2, r2, #8192	; 0x2000
 800999c:	60da      	str	r2, [r3, #12]
 800999e:	6425      	str	r5, [r4, #64]	; 0x40
 80099a0:	f884 103d 	strb.w	r1, [r4, #61]	; 0x3d
 80099a4:	f884 103e 	strb.w	r1, [r4, #62]	; 0x3e
 80099a8:	4628      	mov	r0, r5
 80099aa:	bd70      	pop	{r4, r5, r6, pc}
 80099ac:	f7f8 ffee 	bl	800298c <HAL_RCC_GetPCLK2Freq>
 80099b0:	69e3      	ldr	r3, [r4, #28]
 80099b2:	f5b3 4f00 	cmp.w	r3, #32768	; 0x8000
 80099b6:	d1c5      	bne.n	8009944 <HAL_HalfDuplex_Init+0x80>
 80099b8:	6862      	ldr	r2, [r4, #4]
 80099ba:	2300      	movs	r3, #0
 80099bc:	1892      	adds	r2, r2, r2
 80099be:	f04f 0119 	mov.w	r1, #25
 80099c2:	415b      	adcs	r3, r3
 80099c4:	fba0 0101 	umull	r0, r1, r0, r1
 80099c8:	f001 fc82 	bl	800b2d0 <__aeabi_uldivmod>
 80099cc:	f248 521f 	movw	r2, #34079	; 0x851f
 80099d0:	f2c5 12eb 	movt	r2, #20971	; 0x51eb
 80099d4:	fba2 3100 	umull	r3, r1, r2, r0
 80099d8:	094d      	lsrs	r5, r1, #5
 80099da:	2164      	movs	r1, #100	; 0x64
 80099dc:	fb01 0315 	mls	r3, r1, r5, r0
 80099e0:	00db      	lsls	r3, r3, #3
 80099e2:	3332      	adds	r3, #50	; 0x32
 80099e4:	fba2 2303 	umull	r2, r3, r2, r3
 80099e8:	f3c3 1242 	ubfx	r2, r3, #5, #3
 80099ec:	091b      	lsrs	r3, r3, #4
 80099ee:	eb02 1105 	add.w	r1, r2, r5, lsl #4
 80099f2:	f403 72f8 	and.w	r2, r3, #496	; 0x1f0
 80099f6:	6823      	ldr	r3, [r4, #0]
 80099f8:	440a      	add	r2, r1
 80099fa:	609a      	str	r2, [r3, #8]
 80099fc:	e7bd      	b.n	800997a <HAL_HalfDuplex_Init+0xb6>
 80099fe:	f880 203c 	strb.w	r2, [r0, #60]	; 0x3c
 8009a02:	f7f6 ff93 	bl	800092c <HAL_UART_MspInit>
 8009a06:	e769      	b.n	80098dc <HAL_HalfDuplex_Init+0x18>
 8009a08:	2001      	movs	r0, #1
 8009a0a:	4770      	bx	lr

08009a0c <HAL_LIN_Init>:
 8009a0c:	2800      	cmp	r0, #0
 8009a0e:	f000 80a7 	beq.w	8009b60 <HAL_LIN_Init+0x154>
 8009a12:	b5f8      	push	{r3, r4, r5, r6, r7, lr}
 8009a14:	f890 303d 	ldrb.w	r3, [r0, #61]	; 0x3d
 8009a18:	460d      	mov	r5, r1
 8009a1a:	4604      	mov	r4, r0
 8009a1c:	f003 02ff 	and.w	r2, r3, #255	; 0xff
 8009a20:	2b00      	cmp	r3, #0
 8009a22:	f000 8098 	beq.w	8009b56 <HAL_LIN_Init+0x14a>
 8009a26:	6823      	ldr	r3, [r4, #0]
 8009a28:	6927      	ldr	r7, [r4, #16]
 8009a2a:	2224      	movs	r2, #36	; 0x24
 8009a2c:	f884 203d 	strb.w	r2, [r4, #61]	; 0x3d
 8009a30:	68d8      	ldr	r0, [r3, #12]
 8009a32:	f420 5000 	bic.w	r0, r0, #8192	; 0x2000
 8009a36:	e9d4 2602 	ldrd	r2, r6, [r4, #8]
 8009a3a:	60d8      	str	r0, [r3, #12]
 8009a3c:	6919      	ldr	r1, [r3, #16]
 8009a3e:	69e0      	ldr	r0, [r4, #28]
 8009a40:	f421 5140 	bic.w	r1, r1, #12288	; 0x3000
 8009a44:	4331      	orrs	r1, r6
 8009a46:	6119      	str	r1, [r3, #16]
 8009a48:	68d9      	ldr	r1, [r3, #12]
 8009a4a:	6966      	ldr	r6, [r4, #20]
 8009a4c:	433a      	orrs	r2, r7
 8009a4e:	f421 4116 	bic.w	r1, r1, #38400	; 0x9600
 8009a52:	4332      	orrs	r2, r6
 8009a54:	f021 010c 	bic.w	r1, r1, #12
 8009a58:	4302      	orrs	r2, r0
 8009a5a:	430a      	orrs	r2, r1
 8009a5c:	60da      	str	r2, [r3, #12]
 8009a5e:	695a      	ldr	r2, [r3, #20]
 8009a60:	69a0      	ldr	r0, [r4, #24]
 8009a62:	f44f 5180 	mov.w	r1, #4096	; 0x1000
 8009a66:	f422 7240 	bic.w	r2, r2, #768	; 0x300
 8009a6a:	f2c4 0101 	movt	r1, #16385	; 0x4001
 8009a6e:	4302      	orrs	r2, r0
 8009a70:	428b      	cmp	r3, r1
 8009a72:	615a      	str	r2, [r3, #20]
 8009a74:	d046      	beq.n	8009b04 <HAL_LIN_Init+0xf8>
 8009a76:	f44f 52a0 	mov.w	r2, #5120	; 0x1400
 8009a7a:	f2c4 0201 	movt	r2, #16385	; 0x4001
 8009a7e:	4293      	cmp	r3, r2
 8009a80:	d040      	beq.n	8009b04 <HAL_LIN_Init+0xf8>
 8009a82:	f7f8 ff6f 	bl	8002964 <HAL_RCC_GetPCLK1Freq>
 8009a86:	69e3      	ldr	r3, [r4, #28]
 8009a88:	f5b3 4f00 	cmp.w	r3, #32768	; 0x8000
 8009a8c:	d040      	beq.n	8009b10 <HAL_LIN_Init+0x104>
 8009a8e:	6863      	ldr	r3, [r4, #4]
 8009a90:	2119      	movs	r1, #25
 8009a92:	009a      	lsls	r2, r3, #2
 8009a94:	fba0 0101 	umull	r0, r1, r0, r1
 8009a98:	0f9b      	lsrs	r3, r3, #30
 8009a9a:	f001 fc19 	bl	800b2d0 <__aeabi_uldivmod>
 8009a9e:	f248 561f 	movw	r6, #34079	; 0x851f
 8009aa2:	f2c5 16eb 	movt	r6, #20971	; 0x51eb
 8009aa6:	fba6 3100 	umull	r3, r1, r6, r0
 8009aaa:	0949      	lsrs	r1, r1, #5
 8009aac:	2364      	movs	r3, #100	; 0x64
 8009aae:	fb03 0211 	mls	r2, r3, r1, r0
 8009ab2:	0112      	lsls	r2, r2, #4
 8009ab4:	3232      	adds	r2, #50	; 0x32
 8009ab6:	fba6 3202 	umull	r3, r2, r6, r2
 8009aba:	0109      	lsls	r1, r1, #4
 8009abc:	6823      	ldr	r3, [r4, #0]
 8009abe:	eb01 1252 	add.w	r2, r1, r2, lsr #5
 8009ac2:	609a      	str	r2, [r3, #8]
 8009ac4:	691a      	ldr	r2, [r3, #16]
 8009ac6:	f422 6200 	bic.w	r2, r2, #2048	; 0x800
 8009aca:	611a      	str	r2, [r3, #16]
 8009acc:	695a      	ldr	r2, [r3, #20]
 8009ace:	f022 022a 	bic.w	r2, r2, #42	; 0x2a
 8009ad2:	615a      	str	r2, [r3, #20]
 8009ad4:	691a      	ldr	r2, [r3, #16]
 8009ad6:	f442 4280 	orr.w	r2, r2, #16384	; 0x4000
 8009ada:	611a      	str	r2, [r3, #16]
 8009adc:	691a      	ldr	r2, [r3, #16]
 8009ade:	f022 0220 	bic.w	r2, r2, #32
 8009ae2:	611a      	str	r2, [r3, #16]
 8009ae4:	6919      	ldr	r1, [r3, #16]
 8009ae6:	430d      	orrs	r5, r1
 8009ae8:	611d      	str	r5, [r3, #16]
 8009aea:	68da      	ldr	r2, [r3, #12]
 8009aec:	2500      	movs	r5, #0
 8009aee:	2120      	movs	r1, #32
 8009af0:	f442 5200 	orr.w	r2, r2, #8192	; 0x2000
 8009af4:	60da      	str	r2, [r3, #12]
 8009af6:	6425      	str	r5, [r4, #64]	; 0x40
 8009af8:	f884 103d 	strb.w	r1, [r4, #61]	; 0x3d
 8009afc:	f884 103e 	strb.w	r1, [r4, #62]	; 0x3e
 8009b00:	4628      	mov	r0, r5
 8009b02:	bdf8      	pop	{r3, r4, r5, r6, r7, pc}
 8009b04:	f7f8 ff42 	bl	800298c <HAL_RCC_GetPCLK2Freq>
 8009b08:	69e3      	ldr	r3, [r4, #28]
 8009b0a:	f5b3 4f00 	cmp.w	r3, #32768	; 0x8000
 8009b0e:	d1be      	bne.n	8009a8e <HAL_LIN_Init+0x82>
 8009b10:	6862      	ldr	r2, [r4, #4]
 8009b12:	2300      	movs	r3, #0
 8009b14:	1892      	adds	r2, r2, r2
 8009b16:	f04f 0119 	mov.w	r1, #25
 8009b1a:	415b      	adcs	r3, r3
 8009b1c:	fba0 0101 	umull	r0, r1, r0, r1
 8009b20:	f001 fbd6 	bl	800b2d0 <__aeabi_uldivmod>
 8009b24:	f248 521f 	movw	r2, #34079	; 0x851f
 8009b28:	f2c5 12eb 	movt	r2, #20971	; 0x51eb
 8009b2c:	fba2 3100 	umull	r3, r1, r2, r0
 8009b30:	094e      	lsrs	r6, r1, #5
 8009b32:	2164      	movs	r1, #100	; 0x64
 8009b34:	fb01 0316 	mls	r3, r1, r6, r0
 8009b38:	00db      	lsls	r3, r3, #3
 8009b3a:	3332      	adds	r3, #50	; 0x32
 8009b3c:	fba2 2303 	umull	r2, r3, r2, r3
 8009b40:	f3c3 1242 	ubfx	r2, r3, #5, #3
 8009b44:	091b      	lsrs	r3, r3, #4
 8009b46:	eb02 1106 	add.w	r1, r2, r6, lsl #4
 8009b4a:	f403 72f8 	and.w	r2, r3, #496	; 0x1f0
 8009b4e:	6823      	ldr	r3, [r4, #0]
 8009b50:	440a      	add	r2, r1
 8009b52:	609a      	str	r2, [r3, #8]
 8009b54:	e7b6      	b.n	8009ac4 <HAL_LIN_Init+0xb8>
 8009b56:	f880 203c 	strb.w	r2, [r0, #60]	; 0x3c
 8009b5a:	f7f6 fee7 	bl	800092c <HAL_UART_MspInit>
 8009b5e:	e762      	b.n	8009a26 <HAL_LIN_Init+0x1a>
 8009b60:	2001      	movs	r0, #1
 8009b62:	4770      	bx	lr

08009b64 <HAL_MultiProcessor_Init>:
 8009b64:	2800      	cmp	r0, #0
 8009b66:	f000 80ad 	beq.w	8009cc4 <HAL_MultiProcessor_Init+0x160>
 8009b6a:	b5f8      	push	{r3, r4, r5, r6, r7, lr}
 8009b6c:	f890 303d 	ldrb.w	r3, [r0, #61]	; 0x3d
 8009b70:	4616      	mov	r6, r2
 8009b72:	460d      	mov	r5, r1
 8009b74:	4604      	mov	r4, r0
 8009b76:	f003 02ff 	and.w	r2, r3, #255	; 0xff
 8009b7a:	2b00      	cmp	r3, #0
 8009b7c:	f000 809d 	beq.w	8009cba <HAL_MultiProcessor_Init+0x156>
 8009b80:	6823      	ldr	r3, [r4, #0]
 8009b82:	f8d4 c010 	ldr.w	ip, [r4, #16]
 8009b86:	2224      	movs	r2, #36	; 0x24
 8009b88:	f884 203d 	strb.w	r2, [r4, #61]	; 0x3d
 8009b8c:	68d9      	ldr	r1, [r3, #12]
 8009b8e:	f421 5100 	bic.w	r1, r1, #8192	; 0x2000
 8009b92:	e9d4 0702 	ldrd	r0, r7, [r4, #8]
 8009b96:	60d9      	str	r1, [r3, #12]
 8009b98:	691a      	ldr	r2, [r3, #16]
 8009b9a:	6961      	ldr	r1, [r4, #20]
 8009b9c:	f422 5240 	bic.w	r2, r2, #12288	; 0x3000
 8009ba0:	433a      	orrs	r2, r7
 8009ba2:	611a      	str	r2, [r3, #16]
 8009ba4:	68df      	ldr	r7, [r3, #12]
 8009ba6:	69e2      	ldr	r2, [r4, #28]
 8009ba8:	ea40 000c 	orr.w	r0, r0, ip
 8009bac:	4308      	orrs	r0, r1
 8009bae:	f427 4716 	bic.w	r7, r7, #38400	; 0x9600
 8009bb2:	4310      	orrs	r0, r2
 8009bb4:	f027 070c 	bic.w	r7, r7, #12
 8009bb8:	4338      	orrs	r0, r7
 8009bba:	60d8      	str	r0, [r3, #12]
 8009bbc:	695a      	ldr	r2, [r3, #20]
 8009bbe:	69a0      	ldr	r0, [r4, #24]
 8009bc0:	f44f 5180 	mov.w	r1, #4096	; 0x1000
 8009bc4:	f422 7240 	bic.w	r2, r2, #768	; 0x300
 8009bc8:	f2c4 0101 	movt	r1, #16385	; 0x4001
 8009bcc:	4302      	orrs	r2, r0
 8009bce:	428b      	cmp	r3, r1
 8009bd0:	615a      	str	r2, [r3, #20]
 8009bd2:	d049      	beq.n	8009c68 <HAL_MultiProcessor_Init+0x104>
 8009bd4:	f44f 52a0 	mov.w	r2, #5120	; 0x1400
 8009bd8:	f2c4 0201 	movt	r2, #16385	; 0x4001
 8009bdc:	4293      	cmp	r3, r2
 8009bde:	d043      	beq.n	8009c68 <HAL_MultiProcessor_Init+0x104>
 8009be0:	f7f8 fec0 	bl	8002964 <HAL_RCC_GetPCLK1Freq>
 8009be4:	69e3      	ldr	r3, [r4, #28]
 8009be6:	f5b3 4f00 	cmp.w	r3, #32768	; 0x8000
 8009bea:	d043      	beq.n	8009c74 <HAL_MultiProcessor_Init+0x110>
 8009bec:	6863      	ldr	r3, [r4, #4]
 8009bee:	2119      	movs	r1, #25
 8009bf0:	009a      	lsls	r2, r3, #2
 8009bf2:	fba0 0101 	umull	r0, r1, r0, r1
 8009bf6:	0f9b      	lsrs	r3, r3, #30
 8009bf8:	f001 fb6a 	bl	800b2d0 <__aeabi_uldivmod>
 8009bfc:	f248 571f 	movw	r7, #34079	; 0x851f
 8009c00:	f2c5 17eb 	movt	r7, #20971	; 0x51eb
 8009c04:	fba7 3100 	umull	r3, r1, r7, r0
 8009c08:	0949      	lsrs	r1, r1, #5
 8009c0a:	2364      	movs	r3, #100	; 0x64
 8009c0c:	fb03 0211 	mls	r2, r3, r1, r0
 8009c10:	0112      	lsls	r2, r2, #4
 8009c12:	3232      	adds	r2, #50	; 0x32
 8009c14:	fba7 3202 	umull	r3, r2, r7, r2
 8009c18:	0109      	lsls	r1, r1, #4
 8009c1a:	6823      	ldr	r3, [r4, #0]
 8009c1c:	eb01 1252 	add.w	r2, r1, r2, lsr #5
 8009c20:	609a      	str	r2, [r3, #8]
 8009c22:	691a      	ldr	r2, [r3, #16]
 8009c24:	f422 4290 	bic.w	r2, r2, #18432	; 0x4800
 8009c28:	611a      	str	r2, [r3, #16]
 8009c2a:	695a      	ldr	r2, [r3, #20]
 8009c2c:	f022 022a 	bic.w	r2, r2, #42	; 0x2a
 8009c30:	615a      	str	r2, [r3, #20]
 8009c32:	691a      	ldr	r2, [r3, #16]
 8009c34:	f022 020f 	bic.w	r2, r2, #15
 8009c38:	611a      	str	r2, [r3, #16]
 8009c3a:	6919      	ldr	r1, [r3, #16]
 8009c3c:	430d      	orrs	r5, r1
 8009c3e:	611d      	str	r5, [r3, #16]
 8009c40:	68da      	ldr	r2, [r3, #12]
 8009c42:	f422 6200 	bic.w	r2, r2, #2048	; 0x800
 8009c46:	60da      	str	r2, [r3, #12]
 8009c48:	68da      	ldr	r2, [r3, #12]
 8009c4a:	4316      	orrs	r6, r2
 8009c4c:	60de      	str	r6, [r3, #12]
 8009c4e:	68da      	ldr	r2, [r3, #12]
 8009c50:	2500      	movs	r5, #0
 8009c52:	2120      	movs	r1, #32
 8009c54:	f442 5200 	orr.w	r2, r2, #8192	; 0x2000
 8009c58:	60da      	str	r2, [r3, #12]
 8009c5a:	6425      	str	r5, [r4, #64]	; 0x40
 8009c5c:	f884 103d 	strb.w	r1, [r4, #61]	; 0x3d
 8009c60:	f884 103e 	strb.w	r1, [r4, #62]	; 0x3e
 8009c64:	4628      	mov	r0, r5
 8009c66:	bdf8      	pop	{r3, r4, r5, r6, r7, pc}
 8009c68:	f7f8 fe90 	bl	800298c <HAL_RCC_GetPCLK2Freq>
 8009c6c:	69e3      	ldr	r3, [r4, #28]
 8009c6e:	f5b3 4f00 	cmp.w	r3, #32768	; 0x8000
 8009c72:	d1bb      	bne.n	8009bec <HAL_MultiProcessor_Init+0x88>
 8009c74:	6862      	ldr	r2, [r4, #4]
 8009c76:	2300      	movs	r3, #0
 8009c78:	1892      	adds	r2, r2, r2
 8009c7a:	f04f 0119 	mov.w	r1, #25
 8009c7e:	415b      	adcs	r3, r3
 8009c80:	fba0 0101 	umull	r0, r1, r0, r1
 8009c84:	f001 fb24 	bl	800b2d0 <__aeabi_uldivmod>
 8009c88:	f248 521f 	movw	r2, #34079	; 0x851f
 8009c8c:	f2c5 12eb 	movt	r2, #20971	; 0x51eb
 8009c90:	fba2 3100 	umull	r3, r1, r2, r0
 8009c94:	094f      	lsrs	r7, r1, #5
 8009c96:	2164      	movs	r1, #100	; 0x64
 8009c98:	fb01 0317 	mls	r3, r1, r7, r0
 8009c9c:	00db      	lsls	r3, r3, #3
 8009c9e:	3332      	adds	r3, #50	; 0x32
 8009ca0:	fba2 2303 	umull	r2, r3, r2, r3
 8009ca4:	f3c3 1242 	ubfx	r2, r3, #5, #3
 8009ca8:	091b      	lsrs	r3, r3, #4
 8009caa:	eb02 1107 	add.w	r1, r2, r7, lsl #4
 8009cae:	f403 72f8 	and.w	r2, r3, #496	; 0x1f0
 8009cb2:	6823      	ldr	r3, [r4, #0]
 8009cb4:	440a      	add	r2, r1
 8009cb6:	609a      	str	r2, [r3, #8]
 8009cb8:	e7b3      	b.n	8009c22 <HAL_MultiProcessor_Init+0xbe>
 8009cba:	f880 203c 	strb.w	r2, [r0, #60]	; 0x3c
 8009cbe:	f7f6 fe35 	bl	800092c <HAL_UART_MspInit>
 8009cc2:	e75d      	b.n	8009b80 <HAL_MultiProcessor_Init+0x1c>
 8009cc4:	2001      	movs	r0, #1
 8009cc6:	4770      	bx	lr
 8009cc8:	4770      	bx	lr
 8009cca:	bf00      	nop

08009ccc <HAL_UART_DeInit>:
 8009ccc:	b1b0      	cbz	r0, 8009cfc <HAL_UART_DeInit+0x30>
 8009cce:	6802      	ldr	r2, [r0, #0]
 8009cd0:	2324      	movs	r3, #36	; 0x24
 8009cd2:	b510      	push	{r4, lr}
 8009cd4:	f880 303d 	strb.w	r3, [r0, #61]	; 0x3d
 8009cd8:	68d3      	ldr	r3, [r2, #12]
 8009cda:	f423 5300 	bic.w	r3, r3, #8192	; 0x2000
 8009cde:	4604      	mov	r4, r0
 8009ce0:	60d3      	str	r3, [r2, #12]
 8009ce2:	f7f6 fe5f 	bl	80009a4 <HAL_UART_MspDeInit>
 8009ce6:	2300      	movs	r3, #0
 8009ce8:	6423      	str	r3, [r4, #64]	; 0x40
 8009cea:	f884 303c 	strb.w	r3, [r4, #60]	; 0x3c
 8009cee:	f884 303d 	strb.w	r3, [r4, #61]	; 0x3d
 8009cf2:	f884 303e 	strb.w	r3, [r4, #62]	; 0x3e
 8009cf6:	4618      	mov	r0, r3
 8009cf8:	6323      	str	r3, [r4, #48]	; 0x30
 8009cfa:	bd10      	pop	{r4, pc}
 8009cfc:	2001      	movs	r0, #1
 8009cfe:	4770      	bx	lr

08009d00 <HAL_UART_Transmit>:
 8009d00:	e92d 43f8 	stmdb	sp!, {r3, r4, r5, r6, r7, r8, r9, lr}
 8009d04:	4604      	mov	r4, r0
 8009d06:	f890 003d 	ldrb.w	r0, [r0, #61]	; 0x3d
 8009d0a:	2820      	cmp	r0, #32
 8009d0c:	d177      	bne.n	8009dfe <HAL_UART_Transmit+0xfe>
 8009d0e:	4688      	mov	r8, r1
 8009d10:	2900      	cmp	r1, #0
 8009d12:	d040      	beq.n	8009d96 <HAL_UART_Transmit+0x96>
 8009d14:	4617      	mov	r7, r2
 8009d16:	2a00      	cmp	r2, #0
 8009d18:	d03d      	beq.n	8009d96 <HAL_UART_Transmit+0x96>
 8009d1a:	461d      	mov	r5, r3
 8009d1c:	f894 303c 	ldrb.w	r3, [r4, #60]	; 0x3c
 8009d20:	2b01      	cmp	r3, #1
 8009d22:	d06c      	beq.n	8009dfe <HAL_UART_Transmit+0xfe>
 8009d24:	2321      	movs	r3, #33	; 0x21
 8009d26:	2201      	movs	r2, #1
 8009d28:	f04f 0900 	mov.w	r9, #0
 8009d2c:	f8c4 9040 	str.w	r9, [r4, #64]	; 0x40
 8009d30:	f884 203c 	strb.w	r2, [r4, #60]	; 0x3c
 8009d34:	f884 303d 	strb.w	r3, [r4, #61]	; 0x3d
 8009d38:	f7f7 f9da 	bl	80010f0 <HAL_GetTick>
 8009d3c:	68a3      	ldr	r3, [r4, #8]
 8009d3e:	84a7      	strh	r7, [r4, #36]	; 0x24
 8009d40:	f5b3 5f80 	cmp.w	r3, #4096	; 0x1000
 8009d44:	4606      	mov	r6, r0
 8009d46:	84e7      	strh	r7, [r4, #38]	; 0x26
 8009d48:	d05c      	beq.n	8009e04 <HAL_UART_Transmit+0x104>
 8009d4a:	8ce3      	ldrh	r3, [r4, #38]	; 0x26
 8009d4c:	2200      	movs	r2, #0
 8009d4e:	b29b      	uxth	r3, r3
 8009d50:	f884 203c 	strb.w	r2, [r4, #60]	; 0x3c
 8009d54:	2b00      	cmp	r3, #0
 8009d56:	d07e      	beq.n	8009e56 <HAL_UART_Transmit+0x156>
 8009d58:	6822      	ldr	r2, [r4, #0]
 8009d5a:	1c69      	adds	r1, r5, #1
 8009d5c:	d11e      	bne.n	8009d9c <HAL_UART_Transmit+0x9c>
 8009d5e:	6813      	ldr	r3, [r2, #0]
 8009d60:	061b      	lsls	r3, r3, #24
 8009d62:	d5fc      	bpl.n	8009d5e <HAL_UART_Transmit+0x5e>
 8009d64:	f1b8 0f00 	cmp.w	r8, #0
 8009d68:	d044      	beq.n	8009df4 <HAL_UART_Transmit+0xf4>
 8009d6a:	f818 3b01 	ldrb.w	r3, [r8], #1
 8009d6e:	6053      	str	r3, [r2, #4]
 8009d70:	8ce3      	ldrh	r3, [r4, #38]	; 0x26
 8009d72:	3b01      	subs	r3, #1
 8009d74:	b29b      	uxth	r3, r3
 8009d76:	84e3      	strh	r3, [r4, #38]	; 0x26
 8009d78:	8ce3      	ldrh	r3, [r4, #38]	; 0x26
 8009d7a:	b29b      	uxth	r3, r3
 8009d7c:	2b00      	cmp	r3, #0
 8009d7e:	d1ec      	bne.n	8009d5a <HAL_UART_Transmit+0x5a>
 8009d80:	1c68      	adds	r0, r5, #1
 8009d82:	d145      	bne.n	8009e10 <HAL_UART_Transmit+0x110>
 8009d84:	6813      	ldr	r3, [r2, #0]
 8009d86:	0659      	lsls	r1, r3, #25
 8009d88:	d5fc      	bpl.n	8009d84 <HAL_UART_Transmit+0x84>
 8009d8a:	2320      	movs	r3, #32
 8009d8c:	f884 303d 	strb.w	r3, [r4, #61]	; 0x3d
 8009d90:	2000      	movs	r0, #0
 8009d92:	e8bd 83f8 	ldmia.w	sp!, {r3, r4, r5, r6, r7, r8, r9, pc}
 8009d96:	2001      	movs	r0, #1
 8009d98:	e8bd 83f8 	ldmia.w	sp!, {r3, r4, r5, r6, r7, r8, r9, pc}
 8009d9c:	6813      	ldr	r3, [r2, #0]
 8009d9e:	061f      	lsls	r7, r3, #24
 8009da0:	d4e0      	bmi.n	8009d64 <HAL_UART_Transmit+0x64>
 8009da2:	b12d      	cbz	r5, 8009db0 <HAL_UART_Transmit+0xb0>
 8009da4:	f7f7 f9a4 	bl	80010f0 <HAL_GetTick>
 8009da8:	1b80      	subs	r0, r0, r6
 8009daa:	4285      	cmp	r5, r0
 8009dac:	6822      	ldr	r2, [r4, #0]
 8009dae:	d2d4      	bcs.n	8009d5a <HAL_UART_Transmit+0x5a>
 8009db0:	f102 030c 	add.w	r3, r2, #12
 8009db4:	e853 3f00 	ldrex	r3, [r3]
 8009db8:	f423 73d0 	bic.w	r3, r3, #416	; 0x1a0
 8009dbc:	f102 000c 	add.w	r0, r2, #12
 8009dc0:	e840 3100 	strex	r1, r3, [r0]
 8009dc4:	2900      	cmp	r1, #0
 8009dc6:	d1f3      	bne.n	8009db0 <HAL_UART_Transmit+0xb0>
 8009dc8:	f102 0314 	add.w	r3, r2, #20
 8009dcc:	e853 3f00 	ldrex	r3, [r3]
 8009dd0:	f023 0301 	bic.w	r3, r3, #1
 8009dd4:	f102 0014 	add.w	r0, r2, #20
 8009dd8:	e840 3100 	strex	r1, r3, [r0]
 8009ddc:	2900      	cmp	r1, #0
 8009dde:	d1f3      	bne.n	8009dc8 <HAL_UART_Transmit+0xc8>
 8009de0:	2320      	movs	r3, #32
 8009de2:	f884 303d 	strb.w	r3, [r4, #61]	; 0x3d
 8009de6:	f884 103c 	strb.w	r1, [r4, #60]	; 0x3c
 8009dea:	f884 303e 	strb.w	r3, [r4, #62]	; 0x3e
 8009dee:	2003      	movs	r0, #3
 8009df0:	e8bd 83f8 	ldmia.w	sp!, {r3, r4, r5, r6, r7, r8, r9, pc}
 8009df4:	f839 3b02 	ldrh.w	r3, [r9], #2
 8009df8:	f3c3 0308 	ubfx	r3, r3, #0, #9
 8009dfc:	e7b7      	b.n	8009d6e <HAL_UART_Transmit+0x6e>
 8009dfe:	2002      	movs	r0, #2
 8009e00:	e8bd 83f8 	ldmia.w	sp!, {r3, r4, r5, r6, r7, r8, r9, pc}
 8009e04:	6923      	ldr	r3, [r4, #16]
 8009e06:	2b00      	cmp	r3, #0
 8009e08:	d19f      	bne.n	8009d4a <HAL_UART_Transmit+0x4a>
 8009e0a:	46c1      	mov	r9, r8
 8009e0c:	4698      	mov	r8, r3
 8009e0e:	e79c      	b.n	8009d4a <HAL_UART_Transmit+0x4a>
 8009e10:	6813      	ldr	r3, [r2, #0]
 8009e12:	065b      	lsls	r3, r3, #25
 8009e14:	d4b9      	bmi.n	8009d8a <HAL_UART_Transmit+0x8a>
 8009e16:	b12d      	cbz	r5, 8009e24 <HAL_UART_Transmit+0x124>
 8009e18:	f7f7 f96a 	bl	80010f0 <HAL_GetTick>
 8009e1c:	1b80      	subs	r0, r0, r6
 8009e1e:	4285      	cmp	r5, r0
 8009e20:	6822      	ldr	r2, [r4, #0]
 8009e22:	d2ad      	bcs.n	8009d80 <HAL_UART_Transmit+0x80>
 8009e24:	f102 030c 	add.w	r3, r2, #12
 8009e28:	e853 3f00 	ldrex	r3, [r3]
 8009e2c:	f423 73d0 	bic.w	r3, r3, #416	; 0x1a0
 8009e30:	f102 000c 	add.w	r0, r2, #12
 8009e34:	e840 3100 	strex	r1, r3, [r0]
 8009e38:	2900      	cmp	r1, #0
 8009e3a:	d1f3      	bne.n	8009e24 <HAL_UART_Transmit+0x124>
 8009e3c:	f102 0314 	add.w	r3, r2, #20
 8009e40:	e853 3f00 	ldrex	r3, [r3]
 8009e44:	f023 0301 	bic.w	r3, r3, #1
 8009e48:	f102 0014 	add.w	r0, r2, #20
 8009e4c:	e840 3100 	strex	r1, r3, [r0]
 8009e50:	2900      	cmp	r1, #0
 8009e52:	d1f3      	bne.n	8009e3c <HAL_UART_Transmit+0x13c>
 8009e54:	e7c4      	b.n	8009de0 <HAL_UART_Transmit+0xe0>
 8009e56:	6822      	ldr	r2, [r4, #0]
 8009e58:	e792      	b.n	8009d80 <HAL_UART_Transmit+0x80>
 8009e5a:	bf00      	nop

08009e5c <HAL_UART_Receive>:
 8009e5c:	e92d 43f8 	stmdb	sp!, {r3, r4, r5, r6, r7, r8, r9, lr}
 8009e60:	4604      	mov	r4, r0
 8009e62:	f890 003e 	ldrb.w	r0, [r0, #62]	; 0x3e
 8009e66:	2820      	cmp	r0, #32
 8009e68:	f040 8083 	bne.w	8009f72 <HAL_UART_Receive+0x116>
 8009e6c:	4688      	mov	r8, r1
 8009e6e:	2900      	cmp	r1, #0
 8009e70:	d046      	beq.n	8009f00 <HAL_UART_Receive+0xa4>
 8009e72:	4617      	mov	r7, r2
 8009e74:	2a00      	cmp	r2, #0
 8009e76:	d043      	beq.n	8009f00 <HAL_UART_Receive+0xa4>
 8009e78:	461d      	mov	r5, r3
 8009e7a:	f894 303c 	ldrb.w	r3, [r4, #60]	; 0x3c
 8009e7e:	2b01      	cmp	r3, #1
 8009e80:	d077      	beq.n	8009f72 <HAL_UART_Receive+0x116>
 8009e82:	2322      	movs	r3, #34	; 0x22
 8009e84:	f04f 0900 	mov.w	r9, #0
 8009e88:	2201      	movs	r2, #1
 8009e8a:	f8c4 9040 	str.w	r9, [r4, #64]	; 0x40
 8009e8e:	f884 203c 	strb.w	r2, [r4, #60]	; 0x3c
 8009e92:	f884 303e 	strb.w	r3, [r4, #62]	; 0x3e
 8009e96:	f8c4 9030 	str.w	r9, [r4, #48]	; 0x30
 8009e9a:	f7f7 f929 	bl	80010f0 <HAL_GetTick>
 8009e9e:	68a3      	ldr	r3, [r4, #8]
 8009ea0:	85a7      	strh	r7, [r4, #44]	; 0x2c
 8009ea2:	f5b3 5f80 	cmp.w	r3, #4096	; 0x1000
 8009ea6:	4606      	mov	r6, r0
 8009ea8:	85e7      	strh	r7, [r4, #46]	; 0x2e
 8009eaa:	d065      	beq.n	8009f78 <HAL_UART_Receive+0x11c>
 8009eac:	8de3      	ldrh	r3, [r4, #46]	; 0x2e
 8009eae:	2200      	movs	r2, #0
 8009eb0:	b29b      	uxth	r3, r3
 8009eb2:	f884 203c 	strb.w	r2, [r4, #60]	; 0x3c
 8009eb6:	b1eb      	cbz	r3, 8009ef4 <HAL_UART_Receive+0x98>
 8009eb8:	1c68      	adds	r0, r5, #1
 8009eba:	6822      	ldr	r2, [r4, #0]
 8009ebc:	d123      	bne.n	8009f06 <HAL_UART_Receive+0xaa>
 8009ebe:	6813      	ldr	r3, [r2, #0]
 8009ec0:	0699      	lsls	r1, r3, #26
 8009ec2:	d5fc      	bpl.n	8009ebe <HAL_UART_Receive+0x62>
 8009ec4:	f1b8 0f00 	cmp.w	r8, #0
 8009ec8:	d04d      	beq.n	8009f66 <HAL_UART_Receive+0x10a>
 8009eca:	68a3      	ldr	r3, [r4, #8]
 8009ecc:	f5b3 5f80 	cmp.w	r3, #4096	; 0x1000
 8009ed0:	d004      	beq.n	8009edc <HAL_UART_Receive+0x80>
 8009ed2:	2b00      	cmp	r3, #0
 8009ed4:	d143      	bne.n	8009f5e <HAL_UART_Receive+0x102>
 8009ed6:	6923      	ldr	r3, [r4, #16]
 8009ed8:	2b00      	cmp	r3, #0
 8009eda:	d140      	bne.n	8009f5e <HAL_UART_Receive+0x102>
 8009edc:	6853      	ldr	r3, [r2, #4]
 8009ede:	b2db      	uxtb	r3, r3
 8009ee0:	f808 3b01 	strb.w	r3, [r8], #1
 8009ee4:	8de2      	ldrh	r2, [r4, #46]	; 0x2e
 8009ee6:	3a01      	subs	r2, #1
 8009ee8:	b292      	uxth	r2, r2
 8009eea:	85e2      	strh	r2, [r4, #46]	; 0x2e
 8009eec:	8de3      	ldrh	r3, [r4, #46]	; 0x2e
 8009eee:	b29b      	uxth	r3, r3
 8009ef0:	2b00      	cmp	r3, #0
 8009ef2:	d1e1      	bne.n	8009eb8 <HAL_UART_Receive+0x5c>
 8009ef4:	2320      	movs	r3, #32
 8009ef6:	f884 303e 	strb.w	r3, [r4, #62]	; 0x3e
 8009efa:	2000      	movs	r0, #0
 8009efc:	e8bd 83f8 	ldmia.w	sp!, {r3, r4, r5, r6, r7, r8, r9, pc}
 8009f00:	2001      	movs	r0, #1
 8009f02:	e8bd 83f8 	ldmia.w	sp!, {r3, r4, r5, r6, r7, r8, r9, pc}
 8009f06:	6813      	ldr	r3, [r2, #0]
 8009f08:	069b      	lsls	r3, r3, #26
 8009f0a:	d4db      	bmi.n	8009ec4 <HAL_UART_Receive+0x68>
 8009f0c:	b12d      	cbz	r5, 8009f1a <HAL_UART_Receive+0xbe>
 8009f0e:	f7f7 f8ef 	bl	80010f0 <HAL_GetTick>
 8009f12:	1b80      	subs	r0, r0, r6
 8009f14:	4285      	cmp	r5, r0
 8009f16:	d2cf      	bcs.n	8009eb8 <HAL_UART_Receive+0x5c>
 8009f18:	6822      	ldr	r2, [r4, #0]
 8009f1a:	f102 030c 	add.w	r3, r2, #12
 8009f1e:	e853 3f00 	ldrex	r3, [r3]
 8009f22:	f423 73d0 	bic.w	r3, r3, #416	; 0x1a0
 8009f26:	f102 000c 	add.w	r0, r2, #12
 8009f2a:	e840 3100 	strex	r1, r3, [r0]
 8009f2e:	2900      	cmp	r1, #0
 8009f30:	d1f3      	bne.n	8009f1a <HAL_UART_Receive+0xbe>
 8009f32:	f102 0314 	add.w	r3, r2, #20
 8009f36:	e853 3f00 	ldrex	r3, [r3]
 8009f3a:	f023 0301 	bic.w	r3, r3, #1
 8009f3e:	f102 0014 	add.w	r0, r2, #20
 8009f42:	e840 3100 	strex	r1, r3, [r0]
 8009f46:	2900      	cmp	r1, #0
 8009f48:	d1f3      	bne.n	8009f32 <HAL_UART_Receive+0xd6>
 8009f4a:	2320      	movs	r3, #32
 8009f4c:	f884 303d 	strb.w	r3, [r4, #61]	; 0x3d
 8009f50:	f884 103c 	strb.w	r1, [r4, #60]	; 0x3c
 8009f54:	f884 303e 	strb.w	r3, [r4, #62]	; 0x3e
 8009f58:	2003      	movs	r0, #3
 8009f5a:	e8bd 83f8 	ldmia.w	sp!, {r3, r4, r5, r6, r7, r8, r9, pc}
 8009f5e:	6853      	ldr	r3, [r2, #4]
 8009f60:	f003 037f 	and.w	r3, r3, #127	; 0x7f
 8009f64:	e7bc      	b.n	8009ee0 <HAL_UART_Receive+0x84>
 8009f66:	6853      	ldr	r3, [r2, #4]
 8009f68:	f3c3 0308 	ubfx	r3, r3, #0, #9
 8009f6c:	f829 3b02 	strh.w	r3, [r9], #2
 8009f70:	e7b8      	b.n	8009ee4 <HAL_UART_Receive+0x88>
 8009f72:	2002      	movs	r0, #2
 8009f74:	e8bd 83f8 	ldmia.w	sp!, {r3, r4, r5, r6, r7, r8, r9, pc}
 8009f78:	6923      	ldr	r3, [r4, #16]
 8009f7a:	2b00      	cmp	r3, #0
 8009f7c:	d196      	bne.n	8009eac <HAL_UART_Receive+0x50>
 8009f7e:	46c1      	mov	r9, r8
 8009f80:	4698      	mov	r8, r3
 8009f82:	e793      	b.n	8009eac <HAL_UART_Receive+0x50>

08009f84 <HAL_UART_Transmit_IT>:
 8009f84:	f890 303d 	ldrb.w	r3, [r0, #61]	; 0x3d
 8009f88:	2b20      	cmp	r3, #32
 8009f8a:	d11a      	bne.n	8009fc2 <HAL_UART_Transmit_IT+0x3e>
 8009f8c:	b1b9      	cbz	r1, 8009fbe <HAL_UART_Transmit_IT+0x3a>
 8009f8e:	b1b2      	cbz	r2, 8009fbe <HAL_UART_Transmit_IT+0x3a>
 8009f90:	f890 303c 	ldrb.w	r3, [r0, #60]	; 0x3c
 8009f94:	2b01      	cmp	r3, #1
 8009f96:	d014      	beq.n	8009fc2 <HAL_UART_Transmit_IT+0x3e>
 8009f98:	b430      	push	{r4, r5}
 8009f9a:	2300      	movs	r3, #0
 8009f9c:	6805      	ldr	r5, [r0, #0]
 8009f9e:	84c2      	strh	r2, [r0, #38]	; 0x26
 8009fa0:	2421      	movs	r4, #33	; 0x21
 8009fa2:	f880 303c 	strb.w	r3, [r0, #60]	; 0x3c
 8009fa6:	6403      	str	r3, [r0, #64]	; 0x40
 8009fa8:	f880 403d 	strb.w	r4, [r0, #61]	; 0x3d
 8009fac:	68ec      	ldr	r4, [r5, #12]
 8009fae:	6201      	str	r1, [r0, #32]
 8009fb0:	f044 0480 	orr.w	r4, r4, #128	; 0x80
 8009fb4:	8482      	strh	r2, [r0, #36]	; 0x24
 8009fb6:	4618      	mov	r0, r3
 8009fb8:	60ec      	str	r4, [r5, #12]
 8009fba:	bc30      	pop	{r4, r5}
 8009fbc:	4770      	bx	lr
 8009fbe:	2001      	movs	r0, #1
 8009fc0:	4770      	bx	lr
 8009fc2:	2002      	movs	r0, #2
 8009fc4:	4770      	bx	lr
 8009fc6:	bf00      	nop

08009fc8 <HAL_UART_Receive_IT>:
 8009fc8:	f890 303e 	ldrb.w	r3, [r0, #62]	; 0x3e
 8009fcc:	2b20      	cmp	r3, #32
 8009fce:	d123      	bne.n	800a018 <HAL_UART_Receive_IT+0x50>
 8009fd0:	b301      	cbz	r1, 800a014 <HAL_UART_Receive_IT+0x4c>
 8009fd2:	b1fa      	cbz	r2, 800a014 <HAL_UART_Receive_IT+0x4c>
 8009fd4:	f890 303c 	ldrb.w	r3, [r0, #60]	; 0x3c
 8009fd8:	2b01      	cmp	r3, #1
 8009fda:	d01d      	beq.n	800a018 <HAL_UART_Receive_IT+0x50>
 8009fdc:	b430      	push	{r4, r5}
 8009fde:	2300      	movs	r3, #0
 8009fe0:	6804      	ldr	r4, [r0, #0]
 8009fe2:	6303      	str	r3, [r0, #48]	; 0x30
 8009fe4:	2522      	movs	r5, #34	; 0x22
 8009fe6:	85c2      	strh	r2, [r0, #46]	; 0x2e
 8009fe8:	f880 303c 	strb.w	r3, [r0, #60]	; 0x3c
 8009fec:	6403      	str	r3, [r0, #64]	; 0x40
 8009fee:	f880 503e 	strb.w	r5, [r0, #62]	; 0x3e
 8009ff2:	68e5      	ldr	r5, [r4, #12]
 8009ff4:	8582      	strh	r2, [r0, #44]	; 0x2c
 8009ff6:	f445 7580 	orr.w	r5, r5, #256	; 0x100
 8009ffa:	6281      	str	r1, [r0, #40]	; 0x28
 8009ffc:	60e5      	str	r5, [r4, #12]
 8009ffe:	6962      	ldr	r2, [r4, #20]
 800a000:	f042 0201 	orr.w	r2, r2, #1
 800a004:	6162      	str	r2, [r4, #20]
 800a006:	68e2      	ldr	r2, [r4, #12]
 800a008:	f042 0220 	orr.w	r2, r2, #32
 800a00c:	4618      	mov	r0, r3
 800a00e:	60e2      	str	r2, [r4, #12]
 800a010:	bc30      	pop	{r4, r5}
 800a012:	4770      	bx	lr
 800a014:	2001      	movs	r0, #1
 800a016:	4770      	bx	lr
 800a018:	2002      	movs	r0, #2
 800a01a:	4770      	bx	lr

0800a01c <HAL_UART_Transmit_DMA>:
 800a01c:	b5f8      	push	{r3, r4, r5, r6, r7, lr}
 800a01e:	4604      	mov	r4, r0
 800a020:	f890 003d 	ldrb.w	r0, [r0, #61]	; 0x3d
 800a024:	2820      	cmp	r0, #32
 800a026:	d13f      	bne.n	800a0a8 <HAL_UART_Transmit_DMA+0x8c>
 800a028:	2900      	cmp	r1, #0
 800a02a:	d03b      	beq.n	800a0a4 <HAL_UART_Transmit_DMA+0x88>
 800a02c:	2a00      	cmp	r2, #0
 800a02e:	d039      	beq.n	800a0a4 <HAL_UART_Transmit_DMA+0x88>
 800a030:	f894 003c 	ldrb.w	r0, [r4, #60]	; 0x3c
 800a034:	2801      	cmp	r0, #1
 800a036:	d037      	beq.n	800a0a8 <HAL_UART_Transmit_DMA+0x8c>
 800a038:	6826      	ldr	r6, [r4, #0]
 800a03a:	84e2      	strh	r2, [r4, #38]	; 0x26
 800a03c:	84a2      	strh	r2, [r4, #36]	; 0x24
 800a03e:	2500      	movs	r5, #0
 800a040:	4613      	mov	r3, r2
 800a042:	2221      	movs	r2, #33	; 0x21
 800a044:	6425      	str	r5, [r4, #64]	; 0x40
 800a046:	6b60      	ldr	r0, [r4, #52]	; 0x34
 800a048:	f884 203d 	strb.w	r2, [r4, #61]	; 0x3d
 800a04c:	1d32      	adds	r2, r6, #4
 800a04e:	f24a 66f5 	movw	r6, #42741	; 0xa6f5
 800a052:	f04f 0c01 	mov.w	ip, #1
 800a056:	f6c0 0600 	movt	r6, #2048	; 0x800
 800a05a:	6221      	str	r1, [r4, #32]
 800a05c:	f884 c03c 	strb.w	ip, [r4, #60]	; 0x3c
 800a060:	f24a 67a5 	movw	r7, #42661	; 0xa6a5
 800a064:	6406      	str	r6, [r0, #64]	; 0x40
 800a066:	f24a 760d 	movw	r6, #42765	; 0xa70d
 800a06a:	f6c0 0700 	movt	r7, #2048	; 0x800
 800a06e:	f6c0 0600 	movt	r6, #2048	; 0x800
 800a072:	63c7      	str	r7, [r0, #60]	; 0x3c
 800a074:	6505      	str	r5, [r0, #80]	; 0x50
 800a076:	64c6      	str	r6, [r0, #76]	; 0x4c
 800a078:	f7f7 fbf4 	bl	8001864 <HAL_DMA_Start_IT>
 800a07c:	6822      	ldr	r2, [r4, #0]
 800a07e:	f06f 0340 	mvn.w	r3, #64	; 0x40
 800a082:	6013      	str	r3, [r2, #0]
 800a084:	f884 503c 	strb.w	r5, [r4, #60]	; 0x3c
 800a088:	f102 0314 	add.w	r3, r2, #20
 800a08c:	e853 3f00 	ldrex	r3, [r3]
 800a090:	f043 0380 	orr.w	r3, r3, #128	; 0x80
 800a094:	f102 0014 	add.w	r0, r2, #20
 800a098:	e840 3100 	strex	r1, r3, [r0]
 800a09c:	2900      	cmp	r1, #0
 800a09e:	d1f3      	bne.n	800a088 <HAL_UART_Transmit_DMA+0x6c>
 800a0a0:	2000      	movs	r0, #0
 800a0a2:	bdf8      	pop	{r3, r4, r5, r6, r7, pc}
 800a0a4:	2001      	movs	r0, #1
 800a0a6:	bdf8      	pop	{r3, r4, r5, r6, r7, pc}
 800a0a8:	2002      	movs	r0, #2
 800a0aa:	bdf8      	pop	{r3, r4, r5, r6, r7, pc}

0800a0ac <HAL_UART_DMAPause>:
 800a0ac:	f890 303c 	ldrb.w	r3, [r0, #60]	; 0x3c
 800a0b0:	2b01      	cmp	r3, #1
 800a0b2:	d048      	beq.n	800a146 <HAL_UART_DMAPause+0x9a>
 800a0b4:	2201      	movs	r2, #1
 800a0b6:	6803      	ldr	r3, [r0, #0]
 800a0b8:	f880 203c 	strb.w	r2, [r0, #60]	; 0x3c
 800a0bc:	6959      	ldr	r1, [r3, #20]
 800a0be:	f890 203d 	ldrb.w	r2, [r0, #61]	; 0x3d
 800a0c2:	2a21      	cmp	r2, #33	; 0x21
 800a0c4:	d009      	beq.n	800a0da <HAL_UART_DMAPause+0x2e>
 800a0c6:	6959      	ldr	r1, [r3, #20]
 800a0c8:	f890 203e 	ldrb.w	r2, [r0, #62]	; 0x3e
 800a0cc:	2a22      	cmp	r2, #34	; 0x22
 800a0ce:	d013      	beq.n	800a0f8 <HAL_UART_DMAPause+0x4c>
 800a0d0:	2300      	movs	r3, #0
 800a0d2:	f880 303c 	strb.w	r3, [r0, #60]	; 0x3c
 800a0d6:	4618      	mov	r0, r3
 800a0d8:	4770      	bx	lr
 800a0da:	0609      	lsls	r1, r1, #24
 800a0dc:	d5f3      	bpl.n	800a0c6 <HAL_UART_DMAPause+0x1a>
 800a0de:	f103 0214 	add.w	r2, r3, #20
 800a0e2:	e852 2f00 	ldrex	r2, [r2]
 800a0e6:	f022 0280 	bic.w	r2, r2, #128	; 0x80
 800a0ea:	f103 0c14 	add.w	ip, r3, #20
 800a0ee:	e84c 2100 	strex	r1, r2, [ip]
 800a0f2:	2900      	cmp	r1, #0
 800a0f4:	d1f3      	bne.n	800a0de <HAL_UART_DMAPause+0x32>
 800a0f6:	e7e6      	b.n	800a0c6 <HAL_UART_DMAPause+0x1a>
 800a0f8:	064a      	lsls	r2, r1, #25
 800a0fa:	d5e9      	bpl.n	800a0d0 <HAL_UART_DMAPause+0x24>
 800a0fc:	f103 020c 	add.w	r2, r3, #12
 800a100:	e852 2f00 	ldrex	r2, [r2]
 800a104:	f422 7280 	bic.w	r2, r2, #256	; 0x100
 800a108:	f103 0c0c 	add.w	ip, r3, #12
 800a10c:	e84c 2100 	strex	r1, r2, [ip]
 800a110:	2900      	cmp	r1, #0
 800a112:	d1f3      	bne.n	800a0fc <HAL_UART_DMAPause+0x50>
 800a114:	f103 0214 	add.w	r2, r3, #20
 800a118:	e852 2f00 	ldrex	r2, [r2]
 800a11c:	f022 0201 	bic.w	r2, r2, #1
 800a120:	f103 0c14 	add.w	ip, r3, #20
 800a124:	e84c 2100 	strex	r1, r2, [ip]
 800a128:	2900      	cmp	r1, #0
 800a12a:	d1f3      	bne.n	800a114 <HAL_UART_DMAPause+0x68>
 800a12c:	f103 0214 	add.w	r2, r3, #20
 800a130:	e852 2f00 	ldrex	r2, [r2]
 800a134:	f022 0240 	bic.w	r2, r2, #64	; 0x40
 800a138:	f103 0c14 	add.w	ip, r3, #20
 800a13c:	e84c 2100 	strex	r1, r2, [ip]
 800a140:	2900      	cmp	r1, #0
 800a142:	d1f3      	bne.n	800a12c <HAL_UART_DMAPause+0x80>
 800a144:	e7c4      	b.n	800a0d0 <HAL_UART_DMAPause+0x24>
 800a146:	2002      	movs	r0, #2
 800a148:	4770      	bx	lr
 800a14a:	bf00      	nop

0800a14c <HAL_UART_DMAResume>:
 800a14c:	f890 303c 	ldrb.w	r3, [r0, #60]	; 0x3c
 800a150:	2b01      	cmp	r3, #1
 800a152:	d053      	beq.n	800a1fc <HAL_UART_DMAResume+0xb0>
 800a154:	f890 303d 	ldrb.w	r3, [r0, #61]	; 0x3d
 800a158:	2201      	movs	r2, #1
 800a15a:	2b21      	cmp	r3, #33	; 0x21
 800a15c:	f880 203c 	strb.w	r2, [r0, #60]	; 0x3c
 800a160:	d008      	beq.n	800a174 <HAL_UART_DMAResume+0x28>
 800a162:	f890 303e 	ldrb.w	r3, [r0, #62]	; 0x3e
 800a166:	2b22      	cmp	r3, #34	; 0x22
 800a168:	d015      	beq.n	800a196 <HAL_UART_DMAResume+0x4a>
 800a16a:	2300      	movs	r3, #0
 800a16c:	f880 303c 	strb.w	r3, [r0, #60]	; 0x3c
 800a170:	4618      	mov	r0, r3
 800a172:	4770      	bx	lr
 800a174:	6803      	ldr	r3, [r0, #0]
 800a176:	f103 0214 	add.w	r2, r3, #20
 800a17a:	e852 2f00 	ldrex	r2, [r2]
 800a17e:	f042 0280 	orr.w	r2, r2, #128	; 0x80
 800a182:	f103 0c14 	add.w	ip, r3, #20
 800a186:	e84c 2100 	strex	r1, r2, [ip]
 800a18a:	2900      	cmp	r1, #0
 800a18c:	d1f3      	bne.n	800a176 <HAL_UART_DMAResume+0x2a>
 800a18e:	f890 303e 	ldrb.w	r3, [r0, #62]	; 0x3e
 800a192:	2b22      	cmp	r3, #34	; 0x22
 800a194:	d1e9      	bne.n	800a16a <HAL_UART_DMAResume+0x1e>
 800a196:	b082      	sub	sp, #8
 800a198:	6803      	ldr	r3, [r0, #0]
 800a19a:	2200      	movs	r2, #0
 800a19c:	9201      	str	r2, [sp, #4]
 800a19e:	681a      	ldr	r2, [r3, #0]
 800a1a0:	9201      	str	r2, [sp, #4]
 800a1a2:	685a      	ldr	r2, [r3, #4]
 800a1a4:	9201      	str	r2, [sp, #4]
 800a1a6:	9a01      	ldr	r2, [sp, #4]
 800a1a8:	f103 020c 	add.w	r2, r3, #12
 800a1ac:	e852 2f00 	ldrex	r2, [r2]
 800a1b0:	f442 7280 	orr.w	r2, r2, #256	; 0x100
 800a1b4:	f103 0c0c 	add.w	ip, r3, #12
 800a1b8:	e84c 2100 	strex	r1, r2, [ip]
 800a1bc:	2900      	cmp	r1, #0
 800a1be:	d1f3      	bne.n	800a1a8 <HAL_UART_DMAResume+0x5c>
 800a1c0:	f103 0214 	add.w	r2, r3, #20
 800a1c4:	e852 2f00 	ldrex	r2, [r2]
 800a1c8:	f042 0201 	orr.w	r2, r2, #1
 800a1cc:	f103 0c14 	add.w	ip, r3, #20
 800a1d0:	e84c 2100 	strex	r1, r2, [ip]
 800a1d4:	2900      	cmp	r1, #0
 800a1d6:	d1f3      	bne.n	800a1c0 <HAL_UART_DMAResume+0x74>
 800a1d8:	f103 0214 	add.w	r2, r3, #20
 800a1dc:	e852 2f00 	ldrex	r2, [r2]
 800a1e0:	f042 0240 	orr.w	r2, r2, #64	; 0x40
 800a1e4:	f103 0c14 	add.w	ip, r3, #20
 800a1e8:	e84c 2100 	strex	r1, r2, [ip]
 800a1ec:	2900      	cmp	r1, #0
 800a1ee:	d1f3      	bne.n	800a1d8 <HAL_UART_DMAResume+0x8c>
 800a1f0:	2300      	movs	r3, #0
 800a1f2:	f880 303c 	strb.w	r3, [r0, #60]	; 0x3c
 800a1f6:	4618      	mov	r0, r3
 800a1f8:	b002      	add	sp, #8
 800a1fa:	4770      	bx	lr
 800a1fc:	2002      	movs	r0, #2
 800a1fe:	4770      	bx	lr

0800a200 <HAL_UART_DMAStop>:
 800a200:	b510      	push	{r4, lr}
 800a202:	6803      	ldr	r3, [r0, #0]
 800a204:	6959      	ldr	r1, [r3, #20]
 800a206:	f890 203d 	ldrb.w	r2, [r0, #61]	; 0x3d
 800a20a:	2a21      	cmp	r2, #33	; 0x21
 800a20c:	4604      	mov	r4, r0
 800a20e:	d006      	beq.n	800a21e <HAL_UART_DMAStop+0x1e>
 800a210:	6959      	ldr	r1, [r3, #20]
 800a212:	f894 203e 	ldrb.w	r2, [r4, #62]	; 0x3e
 800a216:	2a22      	cmp	r2, #34	; 0x22
 800a218:	d028      	beq.n	800a26c <HAL_UART_DMAStop+0x6c>
 800a21a:	2000      	movs	r0, #0
 800a21c:	bd10      	pop	{r4, pc}
 800a21e:	0609      	lsls	r1, r1, #24
 800a220:	d5f6      	bpl.n	800a210 <HAL_UART_DMAStop+0x10>
 800a222:	f103 0214 	add.w	r2, r3, #20
 800a226:	e852 2f00 	ldrex	r2, [r2]
 800a22a:	f022 0280 	bic.w	r2, r2, #128	; 0x80
 800a22e:	f103 0014 	add.w	r0, r3, #20
 800a232:	e840 2100 	strex	r1, r2, [r0]
 800a236:	2900      	cmp	r1, #0
 800a238:	d1f3      	bne.n	800a222 <HAL_UART_DMAStop+0x22>
 800a23a:	6b60      	ldr	r0, [r4, #52]	; 0x34
 800a23c:	b110      	cbz	r0, 800a244 <HAL_UART_DMAStop+0x44>
 800a23e:	f7f7 fb4f 	bl	80018e0 <HAL_DMA_Abort>
 800a242:	6823      	ldr	r3, [r4, #0]
 800a244:	f103 020c 	add.w	r2, r3, #12
 800a248:	e852 2f00 	ldrex	r2, [r2]
 800a24c:	f022 02c0 	bic.w	r2, r2, #192	; 0xc0
 800a250:	f103 000c 	add.w	r0, r3, #12
 800a254:	e840 2100 	strex	r1, r2, [r0]
 800a258:	2900      	cmp	r1, #0
 800a25a:	d1f3      	bne.n	800a244 <HAL_UART_DMAStop+0x44>
 800a25c:	2220      	movs	r2, #32
 800a25e:	f884 203d 	strb.w	r2, [r4, #61]	; 0x3d
 800a262:	6959      	ldr	r1, [r3, #20]
 800a264:	f894 203e 	ldrb.w	r2, [r4, #62]	; 0x3e
 800a268:	2a22      	cmp	r2, #34	; 0x22
 800a26a:	d1d6      	bne.n	800a21a <HAL_UART_DMAStop+0x1a>
 800a26c:	064a      	lsls	r2, r1, #25
 800a26e:	d5d4      	bpl.n	800a21a <HAL_UART_DMAStop+0x1a>
 800a270:	f103 0214 	add.w	r2, r3, #20
 800a274:	e852 2f00 	ldrex	r2, [r2]
 800a278:	f022 0240 	bic.w	r2, r2, #64	; 0x40
 800a27c:	f103 0014 	add.w	r0, r3, #20
 800a280:	e840 2100 	strex	r1, r2, [r0]
 800a284:	2900      	cmp	r1, #0
 800a286:	d1f3      	bne.n	800a270 <HAL_UART_DMAStop+0x70>
 800a288:	6ba0      	ldr	r0, [r4, #56]	; 0x38
 800a28a:	b110      	cbz	r0, 800a292 <HAL_UART_DMAStop+0x92>
 800a28c:	f7f7 fb28 	bl	80018e0 <HAL_DMA_Abort>
 800a290:	6823      	ldr	r3, [r4, #0]
 800a292:	f103 020c 	add.w	r2, r3, #12
 800a296:	e852 2f00 	ldrex	r2, [r2]
 800a29a:	f422 7290 	bic.w	r2, r2, #288	; 0x120
 800a29e:	f103 000c 	add.w	r0, r3, #12
 800a2a2:	e840 2100 	strex	r1, r2, [r0]
 800a2a6:	2900      	cmp	r1, #0
 800a2a8:	d1f3      	bne.n	800a292 <HAL_UART_DMAStop+0x92>
 800a2aa:	f103 0214 	add.w	r2, r3, #20
 800a2ae:	e852 2f00 	ldrex	r2, [r2]
 800a2b2:	f022 0201 	bic.w	r2, r2, #1
 800a2b6:	f103 0014 	add.w	r0, r3, #20
 800a2ba:	e840 2100 	strex	r1, r2, [r0]
 800a2be:	2900      	cmp	r1, #0
 800a2c0:	d1f3      	bne.n	800a2aa <HAL_UART_DMAStop+0xaa>
 800a2c2:	6b22      	ldr	r2, [r4, #48]	; 0x30
 800a2c4:	2a01      	cmp	r2, #1
 800a2c6:	d006      	beq.n	800a2d6 <HAL_UART_DMAStop+0xd6>
 800a2c8:	2220      	movs	r2, #32
 800a2ca:	2300      	movs	r3, #0
 800a2cc:	f884 203e 	strb.w	r2, [r4, #62]	; 0x3e
 800a2d0:	2000      	movs	r0, #0
 800a2d2:	6323      	str	r3, [r4, #48]	; 0x30
 800a2d4:	bd10      	pop	{r4, pc}
 800a2d6:	f103 020c 	add.w	r2, r3, #12
 800a2da:	e852 2f00 	ldrex	r2, [r2]
 800a2de:	f022 0210 	bic.w	r2, r2, #16
 800a2e2:	f103 000c 	add.w	r0, r3, #12
 800a2e6:	e840 2100 	strex	r1, r2, [r0]
 800a2ea:	2900      	cmp	r1, #0
 800a2ec:	d1f3      	bne.n	800a2d6 <HAL_UART_DMAStop+0xd6>
 800a2ee:	e7eb      	b.n	800a2c8 <HAL_UART_DMAStop+0xc8>

0800a2f0 <HAL_UARTEx_ReceiveToIdle>:
 800a2f0:	e92d 47f0 	stmdb	sp!, {r4, r5, r6, r7, r8, r9, sl, lr}
 800a2f4:	4604      	mov	r4, r0
 800a2f6:	f890 003e 	ldrb.w	r0, [r0, #62]	; 0x3e
 800a2fa:	b082      	sub	sp, #8
 800a2fc:	2820      	cmp	r0, #32
 800a2fe:	f8dd 9028 	ldr.w	r9, [sp, #40]	; 0x28
 800a302:	d168      	bne.n	800a3d6 <HAL_UARTEx_ReceiveToIdle+0xe6>
 800a304:	468a      	mov	sl, r1
 800a306:	2900      	cmp	r1, #0
 800a308:	d05d      	beq.n	800a3c6 <HAL_UARTEx_ReceiveToIdle+0xd6>
 800a30a:	4616      	mov	r6, r2
 800a30c:	2a00      	cmp	r2, #0
 800a30e:	d05a      	beq.n	800a3c6 <HAL_UARTEx_ReceiveToIdle+0xd6>
 800a310:	461d      	mov	r5, r3
 800a312:	f894 303c 	ldrb.w	r3, [r4, #60]	; 0x3c
 800a316:	2b01      	cmp	r3, #1
 800a318:	d05d      	beq.n	800a3d6 <HAL_UARTEx_ReceiveToIdle+0xe6>
 800a31a:	2301      	movs	r3, #1
 800a31c:	2222      	movs	r2, #34	; 0x22
 800a31e:	f04f 0800 	mov.w	r8, #0
 800a322:	f8c4 8040 	str.w	r8, [r4, #64]	; 0x40
 800a326:	f884 303c 	strb.w	r3, [r4, #60]	; 0x3c
 800a32a:	f884 203e 	strb.w	r2, [r4, #62]	; 0x3e
 800a32e:	6323      	str	r3, [r4, #48]	; 0x30
 800a330:	f7f6 fede 	bl	80010f0 <HAL_GetTick>
 800a334:	68a3      	ldr	r3, [r4, #8]
 800a336:	85a6      	strh	r6, [r4, #44]	; 0x2c
 800a338:	f5b3 5f80 	cmp.w	r3, #4096	; 0x1000
 800a33c:	4607      	mov	r7, r0
 800a33e:	85e6      	strh	r6, [r4, #46]	; 0x2e
 800a340:	d04d      	beq.n	800a3de <HAL_UARTEx_ReceiveToIdle+0xee>
 800a342:	2600      	movs	r6, #0
 800a344:	f884 603c 	strb.w	r6, [r4, #60]	; 0x3c
 800a348:	802e      	strh	r6, [r5, #0]
 800a34a:	8de3      	ldrh	r3, [r4, #46]	; 0x2e
 800a34c:	b29b      	uxth	r3, r3
 800a34e:	bb13      	cbnz	r3, 800a396 <HAL_UARTEx_ReceiveToIdle+0xa6>
 800a350:	e04b      	b.n	800a3ea <HAL_UARTEx_ReceiveToIdle+0xfa>
 800a352:	68a3      	ldr	r3, [r4, #8]
 800a354:	f5b3 5f80 	cmp.w	r3, #4096	; 0x1000
 800a358:	d004      	beq.n	800a364 <HAL_UARTEx_ReceiveToIdle+0x74>
 800a35a:	2b00      	cmp	r3, #0
 800a35c:	d137      	bne.n	800a3ce <HAL_UARTEx_ReceiveToIdle+0xde>
 800a35e:	6923      	ldr	r3, [r4, #16]
 800a360:	2b00      	cmp	r3, #0
 800a362:	d134      	bne.n	800a3ce <HAL_UARTEx_ReceiveToIdle+0xde>
 800a364:	6853      	ldr	r3, [r2, #4]
 800a366:	b2db      	uxtb	r3, r3
 800a368:	f80a 3b01 	strb.w	r3, [sl], #1
 800a36c:	882b      	ldrh	r3, [r5, #0]
 800a36e:	3301      	adds	r3, #1
 800a370:	802b      	strh	r3, [r5, #0]
 800a372:	8de3      	ldrh	r3, [r4, #46]	; 0x2e
 800a374:	3b01      	subs	r3, #1
 800a376:	b29b      	uxth	r3, r3
 800a378:	85e3      	strh	r3, [r4, #46]	; 0x2e
 800a37a:	f1b9 3fff 	cmp.w	r9, #4294967295	; 0xffffffff
 800a37e:	d007      	beq.n	800a390 <HAL_UARTEx_ReceiveToIdle+0xa0>
 800a380:	f7f6 feb6 	bl	80010f0 <HAL_GetTick>
 800a384:	1bc0      	subs	r0, r0, r7
 800a386:	4548      	cmp	r0, r9
 800a388:	d83a      	bhi.n	800a400 <HAL_UARTEx_ReceiveToIdle+0x110>
 800a38a:	f1b9 0f00 	cmp.w	r9, #0
 800a38e:	d037      	beq.n	800a400 <HAL_UARTEx_ReceiveToIdle+0x110>
 800a390:	8de2      	ldrh	r2, [r4, #46]	; 0x2e
 800a392:	b292      	uxth	r2, r2
 800a394:	b34a      	cbz	r2, 800a3ea <HAL_UARTEx_ReceiveToIdle+0xfa>
 800a396:	6822      	ldr	r2, [r4, #0]
 800a398:	6813      	ldr	r3, [r2, #0]
 800a39a:	06d9      	lsls	r1, r3, #27
 800a39c:	d507      	bpl.n	800a3ae <HAL_UARTEx_ReceiveToIdle+0xbe>
 800a39e:	9601      	str	r6, [sp, #4]
 800a3a0:	6813      	ldr	r3, [r2, #0]
 800a3a2:	9301      	str	r3, [sp, #4]
 800a3a4:	6851      	ldr	r1, [r2, #4]
 800a3a6:	882b      	ldrh	r3, [r5, #0]
 800a3a8:	9101      	str	r1, [sp, #4]
 800a3aa:	9901      	ldr	r1, [sp, #4]
 800a3ac:	bb7b      	cbnz	r3, 800a40e <HAL_UARTEx_ReceiveToIdle+0x11e>
 800a3ae:	6813      	ldr	r3, [r2, #0]
 800a3b0:	069b      	lsls	r3, r3, #26
 800a3b2:	d5e2      	bpl.n	800a37a <HAL_UARTEx_ReceiveToIdle+0x8a>
 800a3b4:	f1ba 0f00 	cmp.w	sl, #0
 800a3b8:	d1cb      	bne.n	800a352 <HAL_UARTEx_ReceiveToIdle+0x62>
 800a3ba:	6853      	ldr	r3, [r2, #4]
 800a3bc:	f3c3 0308 	ubfx	r3, r3, #0, #9
 800a3c0:	f828 3b02 	strh.w	r3, [r8], #2
 800a3c4:	e7d2      	b.n	800a36c <HAL_UARTEx_ReceiveToIdle+0x7c>
 800a3c6:	2001      	movs	r0, #1
 800a3c8:	b002      	add	sp, #8
 800a3ca:	e8bd 87f0 	ldmia.w	sp!, {r4, r5, r6, r7, r8, r9, sl, pc}
 800a3ce:	6853      	ldr	r3, [r2, #4]
 800a3d0:	f003 037f 	and.w	r3, r3, #127	; 0x7f
 800a3d4:	e7c8      	b.n	800a368 <HAL_UARTEx_ReceiveToIdle+0x78>
 800a3d6:	2002      	movs	r0, #2
 800a3d8:	b002      	add	sp, #8
 800a3da:	e8bd 87f0 	ldmia.w	sp!, {r4, r5, r6, r7, r8, r9, sl, pc}
 800a3de:	6923      	ldr	r3, [r4, #16]
 800a3e0:	2b00      	cmp	r3, #0
 800a3e2:	d1ae      	bne.n	800a342 <HAL_UARTEx_ReceiveToIdle+0x52>
 800a3e4:	46d0      	mov	r8, sl
 800a3e6:	469a      	mov	sl, r3
 800a3e8:	e7ab      	b.n	800a342 <HAL_UARTEx_ReceiveToIdle+0x52>
 800a3ea:	8de1      	ldrh	r1, [r4, #46]	; 0x2e
 800a3ec:	8da3      	ldrh	r3, [r4, #44]	; 0x2c
 800a3ee:	2220      	movs	r2, #32
 800a3f0:	1a5b      	subs	r3, r3, r1
 800a3f2:	2000      	movs	r0, #0
 800a3f4:	802b      	strh	r3, [r5, #0]
 800a3f6:	f884 203e 	strb.w	r2, [r4, #62]	; 0x3e
 800a3fa:	b002      	add	sp, #8
 800a3fc:	e8bd 87f0 	ldmia.w	sp!, {r4, r5, r6, r7, r8, r9, sl, pc}
 800a400:	2320      	movs	r3, #32
 800a402:	2003      	movs	r0, #3
 800a404:	f884 303e 	strb.w	r3, [r4, #62]	; 0x3e
 800a408:	b002      	add	sp, #8
 800a40a:	e8bd 87f0 	ldmia.w	sp!, {r4, r5, r6, r7, r8, r9, sl, pc}
 800a40e:	2320      	movs	r3, #32
 800a410:	f884 303e 	strb.w	r3, [r4, #62]	; 0x3e
 800a414:	2000      	movs	r0, #0
 800a416:	e7d7      	b.n	800a3c8 <HAL_UARTEx_ReceiveToIdle+0xd8>

0800a418 <HAL_UARTEx_ReceiveToIdle_IT>:
 800a418:	f890 303e 	ldrb.w	r3, [r0, #62]	; 0x3e
 800a41c:	2b20      	cmp	r3, #32
 800a41e:	d127      	bne.n	800a470 <HAL_UARTEx_ReceiveToIdle_IT+0x58>
 800a420:	b341      	cbz	r1, 800a474 <HAL_UARTEx_ReceiveToIdle_IT+0x5c>
 800a422:	b33a      	cbz	r2, 800a474 <HAL_UARTEx_ReceiveToIdle_IT+0x5c>
 800a424:	f890 303c 	ldrb.w	r3, [r0, #60]	; 0x3c
 800a428:	2b01      	cmp	r3, #1
 800a42a:	d021      	beq.n	800a470 <HAL_UARTEx_ReceiveToIdle_IT+0x58>
 800a42c:	2301      	movs	r3, #1
 800a42e:	b430      	push	{r4, r5}
 800a430:	6303      	str	r3, [r0, #48]	; 0x30
 800a432:	2500      	movs	r5, #0
 800a434:	6803      	ldr	r3, [r0, #0]
 800a436:	85c2      	strh	r2, [r0, #46]	; 0x2e
 800a438:	2422      	movs	r4, #34	; 0x22
 800a43a:	6405      	str	r5, [r0, #64]	; 0x40
 800a43c:	f880 503c 	strb.w	r5, [r0, #60]	; 0x3c
 800a440:	f880 403e 	strb.w	r4, [r0, #62]	; 0x3e
 800a444:	68dc      	ldr	r4, [r3, #12]
 800a446:	8582      	strh	r2, [r0, #44]	; 0x2c
 800a448:	f444 7480 	orr.w	r4, r4, #256	; 0x100
 800a44c:	6281      	str	r1, [r0, #40]	; 0x28
 800a44e:	60dc      	str	r4, [r3, #12]
 800a450:	695a      	ldr	r2, [r3, #20]
 800a452:	f042 0201 	orr.w	r2, r2, #1
 800a456:	615a      	str	r2, [r3, #20]
 800a458:	68da      	ldr	r2, [r3, #12]
 800a45a:	f042 0220 	orr.w	r2, r2, #32
 800a45e:	60da      	str	r2, [r3, #12]
 800a460:	6b02      	ldr	r2, [r0, #48]	; 0x30
 800a462:	2a01      	cmp	r2, #1
 800a464:	b082      	sub	sp, #8
 800a466:	d007      	beq.n	800a478 <HAL_UARTEx_ReceiveToIdle_IT+0x60>
 800a468:	2001      	movs	r0, #1
 800a46a:	b002      	add	sp, #8
 800a46c:	bc30      	pop	{r4, r5}
 800a46e:	4770      	bx	lr
 800a470:	2002      	movs	r0, #2
 800a472:	4770      	bx	lr
 800a474:	2001      	movs	r0, #1
 800a476:	4770      	bx	lr
 800a478:	9501      	str	r5, [sp, #4]
 800a47a:	681a      	ldr	r2, [r3, #0]
 800a47c:	9201      	str	r2, [sp, #4]
 800a47e:	685a      	ldr	r2, [r3, #4]
 800a480:	9201      	str	r2, [sp, #4]
 800a482:	9a01      	ldr	r2, [sp, #4]
 800a484:	f103 020c 	add.w	r2, r3, #12
 800a488:	e852 2f00 	ldrex	r2, [r2]
 800a48c:	f042 0210 	orr.w	r2, r2, #16
 800a490:	f103 000c 	add.w	r0, r3, #12
 800a494:	e840 2100 	strex	r1, r2, [r0]
 800a498:	2900      	cmp	r1, #0
 800a49a:	d1f3      	bne.n	800a484 <HAL_UARTEx_ReceiveToIdle_IT+0x6c>
 800a49c:	2000      	movs	r0, #0
 800a49e:	e7e4      	b.n	800a46a <HAL_UARTEx_ReceiveToIdle_IT+0x52>

0800a4a0 <HAL_UART_Abort>:
 800a4a0:	6803      	ldr	r3, [r0, #0]
 800a4a2:	b510      	push	{r4, lr}
 800a4a4:	4604      	mov	r4, r0
 800a4a6:	f103 020c 	add.w	r2, r3, #12
 800a4aa:	e852 2f00 	ldrex	r2, [r2]
 800a4ae:	f422 72f0 	bic.w	r2, r2, #480	; 0x1e0
 800a4b2:	f103 000c 	add.w	r0, r3, #12
 800a4b6:	e840 2100 	strex	r1, r2, [r0]
 800a4ba:	2900      	cmp	r1, #0
 800a4bc:	d1f3      	bne.n	800a4a6 <HAL_UART_Abort+0x6>
 800a4be:	f103 0214 	add.w	r2, r3, #20
 800a4c2:	e852 2f00 	ldrex	r2, [r2]
 800a4c6:	f022 0201 	bic.w	r2, r2, #1
 800a4ca:	f103 0014 	add.w	r0, r3, #20
 800a4ce:	e840 2100 	strex	r1, r2, [r0]
 800a4d2:	2900      	cmp	r1, #0
 800a4d4:	d1f3      	bne.n	800a4be <HAL_UART_Abort+0x1e>
 800a4d6:	6b22      	ldr	r2, [r4, #48]	; 0x30
 800a4d8:	2a01      	cmp	r2, #1
 800a4da:	d03b      	beq.n	800a554 <HAL_UART_Abort+0xb4>
 800a4dc:	695a      	ldr	r2, [r3, #20]
 800a4de:	0611      	lsls	r1, r2, #24
 800a4e0:	d422      	bmi.n	800a528 <HAL_UART_Abort+0x88>
 800a4e2:	695a      	ldr	r2, [r3, #20]
 800a4e4:	0652      	lsls	r2, r2, #25
 800a4e6:	d513      	bpl.n	800a510 <HAL_UART_Abort+0x70>
 800a4e8:	f103 0214 	add.w	r2, r3, #20
 800a4ec:	e852 2f00 	ldrex	r2, [r2]
 800a4f0:	f022 0240 	bic.w	r2, r2, #64	; 0x40
 800a4f4:	f103 0014 	add.w	r0, r3, #20
 800a4f8:	e840 2100 	strex	r1, r2, [r0]
 800a4fc:	2900      	cmp	r1, #0
 800a4fe:	d1f3      	bne.n	800a4e8 <HAL_UART_Abort+0x48>
 800a500:	6ba0      	ldr	r0, [r4, #56]	; 0x38
 800a502:	b128      	cbz	r0, 800a510 <HAL_UART_Abort+0x70>
 800a504:	2300      	movs	r3, #0
 800a506:	6503      	str	r3, [r0, #80]	; 0x50
 800a508:	f7f7 f9ea 	bl	80018e0 <HAL_DMA_Abort>
 800a50c:	2800      	cmp	r0, #0
 800a50e:	d137      	bne.n	800a580 <HAL_UART_Abort+0xe0>
 800a510:	2300      	movs	r3, #0
 800a512:	2220      	movs	r2, #32
 800a514:	84e3      	strh	r3, [r4, #38]	; 0x26
 800a516:	85e3      	strh	r3, [r4, #46]	; 0x2e
 800a518:	6423      	str	r3, [r4, #64]	; 0x40
 800a51a:	f884 203e 	strb.w	r2, [r4, #62]	; 0x3e
 800a51e:	f884 203d 	strb.w	r2, [r4, #61]	; 0x3d
 800a522:	4618      	mov	r0, r3
 800a524:	6323      	str	r3, [r4, #48]	; 0x30
 800a526:	bd10      	pop	{r4, pc}
 800a528:	f103 0214 	add.w	r2, r3, #20
 800a52c:	e852 2f00 	ldrex	r2, [r2]
 800a530:	f022 0280 	bic.w	r2, r2, #128	; 0x80
 800a534:	f103 0014 	add.w	r0, r3, #20
 800a538:	e840 2100 	strex	r1, r2, [r0]
 800a53c:	2900      	cmp	r1, #0
 800a53e:	d1f3      	bne.n	800a528 <HAL_UART_Abort+0x88>
 800a540:	6b60      	ldr	r0, [r4, #52]	; 0x34
 800a542:	2800      	cmp	r0, #0
 800a544:	d0cd      	beq.n	800a4e2 <HAL_UART_Abort+0x42>
 800a546:	2300      	movs	r3, #0
 800a548:	6503      	str	r3, [r0, #80]	; 0x50
 800a54a:	f7f7 f9c9 	bl	80018e0 <HAL_DMA_Abort>
 800a54e:	b970      	cbnz	r0, 800a56e <HAL_UART_Abort+0xce>
 800a550:	6823      	ldr	r3, [r4, #0]
 800a552:	e7c6      	b.n	800a4e2 <HAL_UART_Abort+0x42>
 800a554:	f103 020c 	add.w	r2, r3, #12
 800a558:	e852 2f00 	ldrex	r2, [r2]
 800a55c:	f022 0210 	bic.w	r2, r2, #16
 800a560:	f103 000c 	add.w	r0, r3, #12
 800a564:	e840 2100 	strex	r1, r2, [r0]
 800a568:	2900      	cmp	r1, #0
 800a56a:	d1f3      	bne.n	800a554 <HAL_UART_Abort+0xb4>
 800a56c:	e7b6      	b.n	800a4dc <HAL_UART_Abort+0x3c>
 800a56e:	6b60      	ldr	r0, [r4, #52]	; 0x34
 800a570:	f7f7 fc40 	bl	8001df4 <HAL_DMA_GetError>
 800a574:	2820      	cmp	r0, #32
 800a576:	d1eb      	bne.n	800a550 <HAL_UART_Abort+0xb0>
 800a578:	2310      	movs	r3, #16
 800a57a:	6423      	str	r3, [r4, #64]	; 0x40
 800a57c:	2003      	movs	r0, #3
 800a57e:	bd10      	pop	{r4, pc}
 800a580:	6ba0      	ldr	r0, [r4, #56]	; 0x38
 800a582:	f7f7 fc37 	bl	8001df4 <HAL_DMA_GetError>
 800a586:	2820      	cmp	r0, #32
 800a588:	d1c2      	bne.n	800a510 <HAL_UART_Abort+0x70>
 800a58a:	e7f5      	b.n	800a578 <HAL_UART_Abort+0xd8>

0800a58c <HAL_UART_AbortTransmit>:
 800a58c:	6802      	ldr	r2, [r0, #0]
 800a58e:	b510      	push	{r4, lr}
 800a590:	4604      	mov	r4, r0
 800a592:	f102 030c 	add.w	r3, r2, #12
 800a596:	e853 3f00 	ldrex	r3, [r3]
 800a59a:	f023 03c0 	bic.w	r3, r3, #192	; 0xc0
 800a59e:	f102 000c 	add.w	r0, r2, #12
 800a5a2:	e840 3100 	strex	r1, r3, [r0]
 800a5a6:	2900      	cmp	r1, #0
 800a5a8:	d1f3      	bne.n	800a592 <HAL_UART_AbortTransmit+0x6>
 800a5aa:	6953      	ldr	r3, [r2, #20]
 800a5ac:	061b      	lsls	r3, r3, #24
 800a5ae:	d405      	bmi.n	800a5bc <HAL_UART_AbortTransmit+0x30>
 800a5b0:	2000      	movs	r0, #0
 800a5b2:	2320      	movs	r3, #32
 800a5b4:	84e0      	strh	r0, [r4, #38]	; 0x26
 800a5b6:	f884 303d 	strb.w	r3, [r4, #61]	; 0x3d
 800a5ba:	bd10      	pop	{r4, pc}
 800a5bc:	f102 0314 	add.w	r3, r2, #20
 800a5c0:	e853 3f00 	ldrex	r3, [r3]
 800a5c4:	f023 0380 	bic.w	r3, r3, #128	; 0x80
 800a5c8:	f102 0014 	add.w	r0, r2, #20
 800a5cc:	e840 3100 	strex	r1, r3, [r0]
 800a5d0:	2900      	cmp	r1, #0
 800a5d2:	d1f3      	bne.n	800a5bc <HAL_UART_AbortTransmit+0x30>
 800a5d4:	6b60      	ldr	r0, [r4, #52]	; 0x34
 800a5d6:	2800      	cmp	r0, #0
 800a5d8:	d0ea      	beq.n	800a5b0 <HAL_UART_AbortTransmit+0x24>
 800a5da:	2300      	movs	r3, #0
 800a5dc:	6503      	str	r3, [r0, #80]	; 0x50
 800a5de:	f7f7 f97f 	bl	80018e0 <HAL_DMA_Abort>
 800a5e2:	2800      	cmp	r0, #0
 800a5e4:	d0e4      	beq.n	800a5b0 <HAL_UART_AbortTransmit+0x24>
 800a5e6:	6b60      	ldr	r0, [r4, #52]	; 0x34
 800a5e8:	f7f7 fc04 	bl	8001df4 <HAL_DMA_GetError>
 800a5ec:	2820      	cmp	r0, #32
 800a5ee:	d1df      	bne.n	800a5b0 <HAL_UART_AbortTransmit+0x24>
 800a5f0:	2310      	movs	r3, #16
 800a5f2:	6423      	str	r3, [r4, #64]	; 0x40
 800a5f4:	2003      	movs	r0, #3
 800a5f6:	bd10      	pop	{r4, pc}

0800a5f8 <HAL_UART_AbortReceive>:
 800a5f8:	6803      	ldr	r3, [r0, #0]
 800a5fa:	b510      	push	{r4, lr}
 800a5fc:	4604      	mov	r4, r0
 800a5fe:	f103 020c 	add.w	r2, r3, #12
 800a602:	e852 2f00 	ldrex	r2, [r2]
 800a606:	f422 7290 	bic.w	r2, r2, #288	; 0x120
 800a60a:	f103 000c 	add.w	r0, r3, #12
 800a60e:	e840 2100 	strex	r1, r2, [r0]
 800a612:	2900      	cmp	r1, #0
 800a614:	d1f3      	bne.n	800a5fe <HAL_UART_AbortReceive+0x6>
 800a616:	f103 0214 	add.w	r2, r3, #20
 800a61a:	e852 2f00 	ldrex	r2, [r2]
 800a61e:	f022 0201 	bic.w	r2, r2, #1
 800a622:	f103 0014 	add.w	r0, r3, #20
 800a626:	e840 2100 	strex	r1, r2, [r0]
 800a62a:	2900      	cmp	r1, #0
 800a62c:	d1f3      	bne.n	800a616 <HAL_UART_AbortReceive+0x1e>
 800a62e:	6b22      	ldr	r2, [r4, #48]	; 0x30
 800a630:	2a01      	cmp	r2, #1
 800a632:	d028      	beq.n	800a686 <HAL_UART_AbortReceive+0x8e>
 800a634:	695a      	ldr	r2, [r3, #20]
 800a636:	0652      	lsls	r2, r2, #25
 800a638:	d407      	bmi.n	800a64a <HAL_UART_AbortReceive+0x52>
 800a63a:	2300      	movs	r3, #0
 800a63c:	2220      	movs	r2, #32
 800a63e:	85e3      	strh	r3, [r4, #46]	; 0x2e
 800a640:	f884 203e 	strb.w	r2, [r4, #62]	; 0x3e
 800a644:	4618      	mov	r0, r3
 800a646:	6323      	str	r3, [r4, #48]	; 0x30
 800a648:	bd10      	pop	{r4, pc}
 800a64a:	f103 0214 	add.w	r2, r3, #20
 800a64e:	e852 2f00 	ldrex	r2, [r2]
 800a652:	f022 0240 	bic.w	r2, r2, #64	; 0x40
 800a656:	f103 0014 	add.w	r0, r3, #20
 800a65a:	e840 2100 	strex	r1, r2, [r0]
 800a65e:	2900      	cmp	r1, #0
 800a660:	d1f3      	bne.n	800a64a <HAL_UART_AbortReceive+0x52>
 800a662:	6ba0      	ldr	r0, [r4, #56]	; 0x38
 800a664:	2800      	cmp	r0, #0
 800a666:	d0e8      	beq.n	800a63a <HAL_UART_AbortReceive+0x42>
 800a668:	2300      	movs	r3, #0
 800a66a:	6503      	str	r3, [r0, #80]	; 0x50
 800a66c:	f7f7 f938 	bl	80018e0 <HAL_DMA_Abort>
 800a670:	2800      	cmp	r0, #0
 800a672:	d0e2      	beq.n	800a63a <HAL_UART_AbortReceive+0x42>
 800a674:	6ba0      	ldr	r0, [r4, #56]	; 0x38
 800a676:	f7f7 fbbd 	bl	8001df4 <HAL_DMA_GetError>
 800a67a:	2820      	cmp	r0, #32
 800a67c:	d1dd      	bne.n	800a63a <HAL_UART_AbortReceive+0x42>
 800a67e:	2310      	movs	r3, #16
 800a680:	6423      	str	r3, [r4, #64]	; 0x40
 800a682:	2003      	movs	r0, #3
 800a684:	bd10      	pop	{r4, pc}
 800a686:	f103 020c 	add.w	r2, r3, #12
 800a68a:	e852 2f00 	ldrex	r2, [r2]
 800a68e:	f022 0210 	bic.w	r2, r2, #16
 800a692:	f103 000c 	add.w	r0, r3, #12
 800a696:	e840 2100 	strex	r1, r2, [r0]
 800a69a:	2900      	cmp	r1, #0
 800a69c:	d1f3      	bne.n	800a686 <HAL_UART_AbortReceive+0x8e>
 800a69e:	e7c9      	b.n	800a634 <HAL_UART_AbortReceive+0x3c>

0800a6a0 <HAL_UART_TxCpltCallback>:
 800a6a0:	4770      	bx	lr
 800a6a2:	bf00      	nop

0800a6a4 <UART_DMATransmitCplt>:
 800a6a4:	b508      	push	{r3, lr}
 800a6a6:	6803      	ldr	r3, [r0, #0]
 800a6a8:	6b80      	ldr	r0, [r0, #56]	; 0x38
 800a6aa:	681b      	ldr	r3, [r3, #0]
 800a6ac:	f413 7380 	ands.w	r3, r3, #256	; 0x100
 800a6b0:	d11a      	bne.n	800a6e8 <UART_DMATransmitCplt+0x44>
 800a6b2:	6802      	ldr	r2, [r0, #0]
 800a6b4:	84c3      	strh	r3, [r0, #38]	; 0x26
 800a6b6:	f102 0314 	add.w	r3, r2, #20
 800a6ba:	e853 3f00 	ldrex	r3, [r3]
 800a6be:	f023 0380 	bic.w	r3, r3, #128	; 0x80
 800a6c2:	f102 0014 	add.w	r0, r2, #20
 800a6c6:	e840 3100 	strex	r1, r3, [r0]
 800a6ca:	2900      	cmp	r1, #0
 800a6cc:	d1f3      	bne.n	800a6b6 <UART_DMATransmitCplt+0x12>
 800a6ce:	f102 030c 	add.w	r3, r2, #12
 800a6d2:	e853 3f00 	ldrex	r3, [r3]
 800a6d6:	f043 0340 	orr.w	r3, r3, #64	; 0x40
 800a6da:	f102 000c 	add.w	r0, r2, #12
 800a6de:	e840 3100 	strex	r1, r3, [r0]
 800a6e2:	2900      	cmp	r1, #0
 800a6e4:	d1f3      	bne.n	800a6ce <UART_DMATransmitCplt+0x2a>
 800a6e6:	bd08      	pop	{r3, pc}
 800a6e8:	f7ff ffda 	bl	800a6a0 <HAL_UART_TxCpltCallback>
 800a6ec:	bd08      	pop	{r3, pc}
 800a6ee:	bf00      	nop

0800a6f0 <HAL_UART_TxHalfCpltCallback>:
 800a6f0:	4770      	bx	lr
 800a6f2:	bf00      	nop

0800a6f4 <UART_DMATxHalfCplt>:
 800a6f4:	b508      	push	{r3, lr}
 800a6f6:	6b80      	ldr	r0, [r0, #56]	; 0x38
 800a6f8:	f7ff fffa 	bl	800a6f0 <HAL_UART_TxHalfCpltCallback>
 800a6fc:	bd08      	pop	{r3, pc}
 800a6fe:	bf00      	nop

0800a700 <HAL_UART_RxCpltCallback>:
 800a700:	4770      	bx	lr
 800a702:	bf00      	nop

0800a704 <HAL_UART_RxHalfCpltCallback>:
 800a704:	4770      	bx	lr
 800a706:	bf00      	nop

0800a708 <HAL_UART_ErrorCallback>:
 800a708:	4770      	bx	lr
 800a70a:	bf00      	nop

0800a70c <UART_DMAError>:
 800a70c:	b508      	push	{r3, lr}
 800a70e:	6b80      	ldr	r0, [r0, #56]	; 0x38
 800a710:	6803      	ldr	r3, [r0, #0]
 800a712:	6959      	ldr	r1, [r3, #20]
 800a714:	f890 203d 	ldrb.w	r2, [r0, #61]	; 0x3d
 800a718:	2a21      	cmp	r2, #33	; 0x21
 800a71a:	d00b      	beq.n	800a734 <UART_DMAError+0x28>
 800a71c:	6959      	ldr	r1, [r3, #20]
 800a71e:	f890 203e 	ldrb.w	r2, [r0, #62]	; 0x3e
 800a722:	2a22      	cmp	r2, #34	; 0x22
 800a724:	d01e      	beq.n	800a764 <UART_DMAError+0x58>
 800a726:	6c03      	ldr	r3, [r0, #64]	; 0x40
 800a728:	f043 0310 	orr.w	r3, r3, #16
 800a72c:	6403      	str	r3, [r0, #64]	; 0x40
 800a72e:	f7ff ffeb 	bl	800a708 <HAL_UART_ErrorCallback>
 800a732:	bd08      	pop	{r3, pc}
 800a734:	0609      	lsls	r1, r1, #24
 800a736:	d5f1      	bpl.n	800a71c <UART_DMAError+0x10>
 800a738:	2200      	movs	r2, #0
 800a73a:	84c2      	strh	r2, [r0, #38]	; 0x26
 800a73c:	f103 020c 	add.w	r2, r3, #12
 800a740:	e852 2f00 	ldrex	r2, [r2]
 800a744:	f022 02c0 	bic.w	r2, r2, #192	; 0xc0
 800a748:	f103 0c0c 	add.w	ip, r3, #12
 800a74c:	e84c 2100 	strex	r1, r2, [ip]
 800a750:	2900      	cmp	r1, #0
 800a752:	d1f3      	bne.n	800a73c <UART_DMAError+0x30>
 800a754:	2220      	movs	r2, #32
 800a756:	f880 203d 	strb.w	r2, [r0, #61]	; 0x3d
 800a75a:	6959      	ldr	r1, [r3, #20]
 800a75c:	f890 203e 	ldrb.w	r2, [r0, #62]	; 0x3e
 800a760:	2a22      	cmp	r2, #34	; 0x22
 800a762:	d1e0      	bne.n	800a726 <UART_DMAError+0x1a>
 800a764:	064a      	lsls	r2, r1, #25
 800a766:	d5de      	bpl.n	800a726 <UART_DMAError+0x1a>
 800a768:	2200      	movs	r2, #0
 800a76a:	85c2      	strh	r2, [r0, #46]	; 0x2e
 800a76c:	f103 020c 	add.w	r2, r3, #12
 800a770:	e852 2f00 	ldrex	r2, [r2]
 800a774:	f422 7290 	bic.w	r2, r2, #288	; 0x120
 800a778:	f103 0c0c 	add.w	ip, r3, #12
 800a77c:	e84c 2100 	strex	r1, r2, [ip]
 800a780:	2900      	cmp	r1, #0
 800a782:	d1f3      	bne.n	800a76c <UART_DMAError+0x60>
 800a784:	f103 0214 	add.w	r2, r3, #20
 800a788:	e852 2f00 	ldrex	r2, [r2]
 800a78c:	f022 0201 	bic.w	r2, r2, #1
 800a790:	f103 0c14 	add.w	ip, r3, #20
 800a794:	e84c 2100 	strex	r1, r2, [ip]
 800a798:	2900      	cmp	r1, #0
 800a79a:	d1f3      	bne.n	800a784 <UART_DMAError+0x78>
 800a79c:	6b02      	ldr	r2, [r0, #48]	; 0x30
 800a79e:	2a01      	cmp	r2, #1
 800a7a0:	d005      	beq.n	800a7ae <UART_DMAError+0xa2>
 800a7a2:	2220      	movs	r2, #32
 800a7a4:	2300      	movs	r3, #0
 800a7a6:	f880 203e 	strb.w	r2, [r0, #62]	; 0x3e
 800a7aa:	6303      	str	r3, [r0, #48]	; 0x30
 800a7ac:	e7bb      	b.n	800a726 <UART_DMAError+0x1a>
 800a7ae:	f103 020c 	add.w	r2, r3, #12
 800a7b2:	e852 2f00 	ldrex	r2, [r2]
 800a7b6:	f022 0210 	bic.w	r2, r2, #16
 800a7ba:	f103 0c0c 	add.w	ip, r3, #12
 800a7be:	e84c 2100 	strex	r1, r2, [ip]
 800a7c2:	2900      	cmp	r1, #0
 800a7c4:	d1f3      	bne.n	800a7ae <UART_DMAError+0xa2>
 800a7c6:	e7ec      	b.n	800a7a2 <UART_DMAError+0x96>

0800a7c8 <UART_DMAAbortOnError>:
 800a7c8:	b508      	push	{r3, lr}
 800a7ca:	6b80      	ldr	r0, [r0, #56]	; 0x38
 800a7cc:	2300      	movs	r3, #0
 800a7ce:	85c3      	strh	r3, [r0, #46]	; 0x2e
 800a7d0:	84c3      	strh	r3, [r0, #38]	; 0x26
 800a7d2:	f7ff ff99 	bl	800a708 <HAL_UART_ErrorCallback>
 800a7d6:	bd08      	pop	{r3, pc}

0800a7d8 <HAL_UART_AbortCpltCallback>:
 800a7d8:	4770      	bx	lr
 800a7da:	bf00      	nop

0800a7dc <HAL_UART_Abort_IT>:
 800a7dc:	6803      	ldr	r3, [r0, #0]
 800a7de:	b570      	push	{r4, r5, r6, lr}
 800a7e0:	4605      	mov	r5, r0
 800a7e2:	f103 020c 	add.w	r2, r3, #12
 800a7e6:	e852 2f00 	ldrex	r2, [r2]
 800a7ea:	f422 72f0 	bic.w	r2, r2, #480	; 0x1e0
 800a7ee:	f103 000c 	add.w	r0, r3, #12
 800a7f2:	e840 2100 	strex	r1, r2, [r0]
 800a7f6:	2900      	cmp	r1, #0
 800a7f8:	d1f3      	bne.n	800a7e2 <HAL_UART_Abort_IT+0x6>
 800a7fa:	f103 0214 	add.w	r2, r3, #20
 800a7fe:	e852 2f00 	ldrex	r2, [r2]
 800a802:	f022 0201 	bic.w	r2, r2, #1
 800a806:	f103 0114 	add.w	r1, r3, #20
 800a80a:	e841 2400 	strex	r4, r2, [r1]
 800a80e:	2c00      	cmp	r4, #0
 800a810:	d1f3      	bne.n	800a7fa <HAL_UART_Abort_IT+0x1e>
 800a812:	6b2a      	ldr	r2, [r5, #48]	; 0x30
 800a814:	2a01      	cmp	r2, #1
 800a816:	d05a      	beq.n	800a8ce <HAL_UART_Abort_IT+0xf2>
 800a818:	6b6e      	ldr	r6, [r5, #52]	; 0x34
 800a81a:	b146      	cbz	r6, 800a82e <HAL_UART_Abort_IT+0x52>
 800a81c:	695a      	ldr	r2, [r3, #20]
 800a81e:	f012 0280 	ands.w	r2, r2, #128	; 0x80
 800a822:	bf1c      	itt	ne
 800a824:	f64a 122d 	movwne	r2, #43309	; 0xa92d
 800a828:	f6c0 0200 	movtne	r2, #2048	; 0x800
 800a82c:	6532      	str	r2, [r6, #80]	; 0x50
 800a82e:	6ba8      	ldr	r0, [r5, #56]	; 0x38
 800a830:	b140      	cbz	r0, 800a844 <HAL_UART_Abort_IT+0x68>
 800a832:	695a      	ldr	r2, [r3, #20]
 800a834:	f012 0240 	ands.w	r2, r2, #64	; 0x40
 800a838:	bf1c      	itt	ne
 800a83a:	f64a 02fd 	movwne	r2, #43261	; 0xa8fd
 800a83e:	f6c0 0200 	movtne	r2, #2048	; 0x800
 800a842:	6502      	str	r2, [r0, #80]	; 0x50
 800a844:	695a      	ldr	r2, [r3, #20]
 800a846:	0612      	lsls	r2, r2, #24
 800a848:	d426      	bmi.n	800a898 <HAL_UART_Abort_IT+0xbc>
 800a84a:	695a      	ldr	r2, [r3, #20]
 800a84c:	0652      	lsls	r2, r2, #25
 800a84e:	d514      	bpl.n	800a87a <HAL_UART_Abort_IT+0x9e>
 800a850:	2401      	movs	r4, #1
 800a852:	f103 0214 	add.w	r2, r3, #20
 800a856:	e852 2f00 	ldrex	r2, [r2]
 800a85a:	f022 0240 	bic.w	r2, r2, #64	; 0x40
 800a85e:	f103 0614 	add.w	r6, r3, #20
 800a862:	e846 2100 	strex	r1, r2, [r6]
 800a866:	2900      	cmp	r1, #0
 800a868:	d1f3      	bne.n	800a852 <HAL_UART_Abort_IT+0x76>
 800a86a:	2800      	cmp	r0, #0
 800a86c:	d03c      	beq.n	800a8e8 <HAL_UART_Abort_IT+0x10c>
 800a86e:	f7f7 f87f 	bl	8001970 <HAL_DMA_Abort_IT>
 800a872:	b178      	cbz	r0, 800a894 <HAL_UART_Abort_IT+0xb8>
 800a874:	6bab      	ldr	r3, [r5, #56]	; 0x38
 800a876:	2200      	movs	r2, #0
 800a878:	651a      	str	r2, [r3, #80]	; 0x50
 800a87a:	2300      	movs	r3, #0
 800a87c:	2220      	movs	r2, #32
 800a87e:	84eb      	strh	r3, [r5, #38]	; 0x26
 800a880:	4628      	mov	r0, r5
 800a882:	85eb      	strh	r3, [r5, #46]	; 0x2e
 800a884:	642b      	str	r3, [r5, #64]	; 0x40
 800a886:	f885 203d 	strb.w	r2, [r5, #61]	; 0x3d
 800a88a:	f885 203e 	strb.w	r2, [r5, #62]	; 0x3e
 800a88e:	632b      	str	r3, [r5, #48]	; 0x30
 800a890:	f7ff ffa2 	bl	800a7d8 <HAL_UART_AbortCpltCallback>
 800a894:	2000      	movs	r0, #0
 800a896:	bd70      	pop	{r4, r5, r6, pc}
 800a898:	f103 0214 	add.w	r2, r3, #20
 800a89c:	e852 2f00 	ldrex	r2, [r2]
 800a8a0:	f022 0280 	bic.w	r2, r2, #128	; 0x80
 800a8a4:	f103 0c14 	add.w	ip, r3, #20
 800a8a8:	e84c 2100 	strex	r1, r2, [ip]
 800a8ac:	2900      	cmp	r1, #0
 800a8ae:	d1f3      	bne.n	800a898 <HAL_UART_Abort_IT+0xbc>
 800a8b0:	2e00      	cmp	r6, #0
 800a8b2:	d0ca      	beq.n	800a84a <HAL_UART_Abort_IT+0x6e>
 800a8b4:	4630      	mov	r0, r6
 800a8b6:	f7f7 f85b 	bl	8001970 <HAL_DMA_Abort_IT>
 800a8ba:	682b      	ldr	r3, [r5, #0]
 800a8bc:	b1c0      	cbz	r0, 800a8f0 <HAL_UART_Abort_IT+0x114>
 800a8be:	6b69      	ldr	r1, [r5, #52]	; 0x34
 800a8c0:	695a      	ldr	r2, [r3, #20]
 800a8c2:	2000      	movs	r0, #0
 800a8c4:	6508      	str	r0, [r1, #80]	; 0x50
 800a8c6:	0651      	lsls	r1, r2, #25
 800a8c8:	d5d7      	bpl.n	800a87a <HAL_UART_Abort_IT+0x9e>
 800a8ca:	6ba8      	ldr	r0, [r5, #56]	; 0x38
 800a8cc:	e7c0      	b.n	800a850 <HAL_UART_Abort_IT+0x74>
 800a8ce:	f103 020c 	add.w	r2, r3, #12
 800a8d2:	e852 2f00 	ldrex	r2, [r2]
 800a8d6:	f022 0210 	bic.w	r2, r2, #16
 800a8da:	f103 000c 	add.w	r0, r3, #12
 800a8de:	e840 2100 	strex	r1, r2, [r0]
 800a8e2:	2900      	cmp	r1, #0
 800a8e4:	d1f3      	bne.n	800a8ce <HAL_UART_Abort_IT+0xf2>
 800a8e6:	e797      	b.n	800a818 <HAL_UART_Abort_IT+0x3c>
 800a8e8:	2c01      	cmp	r4, #1
 800a8ea:	d0c6      	beq.n	800a87a <HAL_UART_Abort_IT+0x9e>
 800a8ec:	2000      	movs	r0, #0
 800a8ee:	bd70      	pop	{r4, r5, r6, pc}
 800a8f0:	695a      	ldr	r2, [r3, #20]
 800a8f2:	0650      	lsls	r0, r2, #25
 800a8f4:	d5ce      	bpl.n	800a894 <HAL_UART_Abort_IT+0xb8>
 800a8f6:	6ba8      	ldr	r0, [r5, #56]	; 0x38
 800a8f8:	e7ab      	b.n	800a852 <HAL_UART_Abort_IT+0x76>
 800a8fa:	bf00      	nop

0800a8fc <UART_DMARxAbortCallback>:
 800a8fc:	6b80      	ldr	r0, [r0, #56]	; 0x38
 800a8fe:	b508      	push	{r3, lr}
 800a900:	e9d0 320d 	ldrd	r3, r2, [r0, #52]	; 0x34
 800a904:	2100      	movs	r1, #0
 800a906:	6511      	str	r1, [r2, #80]	; 0x50
 800a908:	b113      	cbz	r3, 800a910 <UART_DMARxAbortCallback+0x14>
 800a90a:	6d1b      	ldr	r3, [r3, #80]	; 0x50
 800a90c:	b103      	cbz	r3, 800a910 <UART_DMARxAbortCallback+0x14>
 800a90e:	bd08      	pop	{r3, pc}
 800a910:	2300      	movs	r3, #0
 800a912:	2220      	movs	r2, #32
 800a914:	84c3      	strh	r3, [r0, #38]	; 0x26
 800a916:	85c3      	strh	r3, [r0, #46]	; 0x2e
 800a918:	6403      	str	r3, [r0, #64]	; 0x40
 800a91a:	f880 203d 	strb.w	r2, [r0, #61]	; 0x3d
 800a91e:	f880 203e 	strb.w	r2, [r0, #62]	; 0x3e
 800a922:	6303      	str	r3, [r0, #48]	; 0x30
 800a924:	f7ff ff58 	bl	800a7d8 <HAL_UART_AbortCpltCallback>
 800a928:	bd08      	pop	{r3, pc}
 800a92a:	bf00      	nop

0800a92c <UART_DMATxAbortCallback>:
 800a92c:	6b80      	ldr	r0, [r0, #56]	; 0x38
 800a92e:	b508      	push	{r3, lr}
 800a930:	e9d0 230d 	ldrd	r2, r3, [r0, #52]	; 0x34
 800a934:	2100      	movs	r1, #0
 800a936:	6511      	str	r1, [r2, #80]	; 0x50
 800a938:	b113      	cbz	r3, 800a940 <UART_DMATxAbortCallback+0x14>
 800a93a:	6d1b      	ldr	r3, [r3, #80]	; 0x50
 800a93c:	b103      	cbz	r3, 800a940 <UART_DMATxAbortCallback+0x14>
 800a93e:	bd08      	pop	{r3, pc}
 800a940:	2300      	movs	r3, #0
 800a942:	2220      	movs	r2, #32
 800a944:	84c3      	strh	r3, [r0, #38]	; 0x26
 800a946:	85c3      	strh	r3, [r0, #46]	; 0x2e
 800a948:	6403      	str	r3, [r0, #64]	; 0x40
 800a94a:	f880 203d 	strb.w	r2, [r0, #61]	; 0x3d
 800a94e:	f880 203e 	strb.w	r2, [r0, #62]	; 0x3e
 800a952:	6303      	str	r3, [r0, #48]	; 0x30
 800a954:	f7ff ff40 	bl	800a7d8 <HAL_UART_AbortCpltCallback>
 800a958:	bd08      	pop	{r3, pc}
 800a95a:	bf00      	nop

0800a95c <HAL_UART_AbortTransmitCpltCallback>:
 800a95c:	4770      	bx	lr
 800a95e:	bf00      	nop

0800a960 <HAL_UART_AbortTransmit_IT>:
 800a960:	6802      	ldr	r2, [r0, #0]
 800a962:	b510      	push	{r4, lr}
 800a964:	4604      	mov	r4, r0
 800a966:	f102 030c 	add.w	r3, r2, #12
 800a96a:	e853 3f00 	ldrex	r3, [r3]
 800a96e:	f023 03c0 	bic.w	r3, r3, #192	; 0xc0
 800a972:	f102 000c 	add.w	r0, r2, #12
 800a976:	e840 3100 	strex	r1, r3, [r0]
 800a97a:	2900      	cmp	r1, #0
 800a97c:	d1f3      	bne.n	800a966 <HAL_UART_AbortTransmit_IT+0x6>
 800a97e:	6953      	ldr	r3, [r2, #20]
 800a980:	f013 0380 	ands.w	r3, r3, #128	; 0x80
 800a984:	d023      	beq.n	800a9ce <HAL_UART_AbortTransmit_IT+0x6e>
 800a986:	f102 0314 	add.w	r3, r2, #20
 800a98a:	e853 3f00 	ldrex	r3, [r3]
 800a98e:	f023 0380 	bic.w	r3, r3, #128	; 0x80
 800a992:	f102 0014 	add.w	r0, r2, #20
 800a996:	e840 3100 	strex	r1, r3, [r0]
 800a99a:	2900      	cmp	r1, #0
 800a99c:	d1f3      	bne.n	800a986 <HAL_UART_AbortTransmit_IT+0x26>
 800a99e:	6b60      	ldr	r0, [r4, #52]	; 0x34
 800a9a0:	b160      	cbz	r0, 800a9bc <HAL_UART_AbortTransmit_IT+0x5c>
 800a9a2:	f64a 13e1 	movw	r3, #43489	; 0xa9e1
 800a9a6:	f6c0 0300 	movt	r3, #2048	; 0x800
 800a9aa:	6503      	str	r3, [r0, #80]	; 0x50
 800a9ac:	f7f6 ffe0 	bl	8001970 <HAL_DMA_Abort_IT>
 800a9b0:	b110      	cbz	r0, 800a9b8 <HAL_UART_AbortTransmit_IT+0x58>
 800a9b2:	6b60      	ldr	r0, [r4, #52]	; 0x34
 800a9b4:	6d03      	ldr	r3, [r0, #80]	; 0x50
 800a9b6:	4798      	blx	r3
 800a9b8:	2000      	movs	r0, #0
 800a9ba:	bd10      	pop	{r4, pc}
 800a9bc:	2320      	movs	r3, #32
 800a9be:	84e0      	strh	r0, [r4, #38]	; 0x26
 800a9c0:	4620      	mov	r0, r4
 800a9c2:	f884 303d 	strb.w	r3, [r4, #61]	; 0x3d
 800a9c6:	f7ff ffc9 	bl	800a95c <HAL_UART_AbortTransmitCpltCallback>
 800a9ca:	2000      	movs	r0, #0
 800a9cc:	bd10      	pop	{r4, pc}
 800a9ce:	2220      	movs	r2, #32
 800a9d0:	84e3      	strh	r3, [r4, #38]	; 0x26
 800a9d2:	4620      	mov	r0, r4
 800a9d4:	f884 203d 	strb.w	r2, [r4, #61]	; 0x3d
 800a9d8:	f7ff ffc0 	bl	800a95c <HAL_UART_AbortTransmitCpltCallback>
 800a9dc:	2000      	movs	r0, #0
 800a9de:	bd10      	pop	{r4, pc}

0800a9e0 <UART_DMATxOnlyAbortCallback>:
 800a9e0:	b508      	push	{r3, lr}
 800a9e2:	6b80      	ldr	r0, [r0, #56]	; 0x38
 800a9e4:	2200      	movs	r2, #0
 800a9e6:	2320      	movs	r3, #32
 800a9e8:	84c2      	strh	r2, [r0, #38]	; 0x26
 800a9ea:	f880 303d 	strb.w	r3, [r0, #61]	; 0x3d
 800a9ee:	f7ff ffb5 	bl	800a95c <HAL_UART_AbortTransmitCpltCallback>
 800a9f2:	bd08      	pop	{r3, pc}

0800a9f4 <HAL_UART_AbortReceiveCpltCallback>:
 800a9f4:	4770      	bx	lr
 800a9f6:	bf00      	nop

0800a9f8 <HAL_UART_AbortReceive_IT>:
 800a9f8:	6803      	ldr	r3, [r0, #0]
 800a9fa:	b510      	push	{r4, lr}
 800a9fc:	4604      	mov	r4, r0
 800a9fe:	f103 020c 	add.w	r2, r3, #12
 800aa02:	e852 2f00 	ldrex	r2, [r2]
 800aa06:	f422 7290 	bic.w	r2, r2, #288	; 0x120
 800aa0a:	f103 000c 	add.w	r0, r3, #12
 800aa0e:	e840 2100 	strex	r1, r2, [r0]
 800aa12:	2900      	cmp	r1, #0
 800aa14:	d1f3      	bne.n	800a9fe <HAL_UART_AbortReceive_IT+0x6>
 800aa16:	f103 0214 	add.w	r2, r3, #20
 800aa1a:	e852 2f00 	ldrex	r2, [r2]
 800aa1e:	f022 0201 	bic.w	r2, r2, #1
 800aa22:	f103 0014 	add.w	r0, r3, #20
 800aa26:	e840 2100 	strex	r1, r2, [r0]
 800aa2a:	2900      	cmp	r1, #0
 800aa2c:	d1f3      	bne.n	800aa16 <HAL_UART_AbortReceive_IT+0x1e>
 800aa2e:	6b22      	ldr	r2, [r4, #48]	; 0x30
 800aa30:	2a01      	cmp	r2, #1
 800aa32:	d01f      	beq.n	800aa74 <HAL_UART_AbortReceive_IT+0x7c>
 800aa34:	695a      	ldr	r2, [r3, #20]
 800aa36:	f012 0240 	ands.w	r2, r2, #64	; 0x40
 800aa3a:	d032      	beq.n	800aaa2 <HAL_UART_AbortReceive_IT+0xaa>
 800aa3c:	f103 0214 	add.w	r2, r3, #20
 800aa40:	e852 2f00 	ldrex	r2, [r2]
 800aa44:	f022 0240 	bic.w	r2, r2, #64	; 0x40
 800aa48:	f103 0014 	add.w	r0, r3, #20
 800aa4c:	e840 2100 	strex	r1, r2, [r0]
 800aa50:	2900      	cmp	r1, #0
 800aa52:	d1f3      	bne.n	800aa3c <HAL_UART_AbortReceive_IT+0x44>
 800aa54:	6ba3      	ldr	r3, [r4, #56]	; 0x38
 800aa56:	b1d3      	cbz	r3, 800aa8e <HAL_UART_AbortReceive_IT+0x96>
 800aa58:	f64a 22b9 	movw	r2, #43705	; 0xaab9
 800aa5c:	f6c0 0200 	movt	r2, #2048	; 0x800
 800aa60:	651a      	str	r2, [r3, #80]	; 0x50
 800aa62:	4618      	mov	r0, r3
 800aa64:	f7f6 ff84 	bl	8001970 <HAL_DMA_Abort_IT>
 800aa68:	b110      	cbz	r0, 800aa70 <HAL_UART_AbortReceive_IT+0x78>
 800aa6a:	6ba0      	ldr	r0, [r4, #56]	; 0x38
 800aa6c:	6d03      	ldr	r3, [r0, #80]	; 0x50
 800aa6e:	4798      	blx	r3
 800aa70:	2000      	movs	r0, #0
 800aa72:	bd10      	pop	{r4, pc}
 800aa74:	f103 020c 	add.w	r2, r3, #12
 800aa78:	e852 2f00 	ldrex	r2, [r2]
 800aa7c:	f022 0210 	bic.w	r2, r2, #16
 800aa80:	f103 000c 	add.w	r0, r3, #12
 800aa84:	e840 2100 	strex	r1, r2, [r0]
 800aa88:	2900      	cmp	r1, #0
 800aa8a:	d1f3      	bne.n	800aa74 <HAL_UART_AbortReceive_IT+0x7c>
 800aa8c:	e7d2      	b.n	800aa34 <HAL_UART_AbortReceive_IT+0x3c>
 800aa8e:	2220      	movs	r2, #32
 800aa90:	85e3      	strh	r3, [r4, #46]	; 0x2e
 800aa92:	4620      	mov	r0, r4
 800aa94:	f884 203e 	strb.w	r2, [r4, #62]	; 0x3e
 800aa98:	6323      	str	r3, [r4, #48]	; 0x30
 800aa9a:	f7ff ffab 	bl	800a9f4 <HAL_UART_AbortReceiveCpltCallback>
 800aa9e:	2000      	movs	r0, #0
 800aaa0:	bd10      	pop	{r4, pc}
 800aaa2:	2320      	movs	r3, #32
 800aaa4:	85e2      	strh	r2, [r4, #46]	; 0x2e
 800aaa6:	4620      	mov	r0, r4
 800aaa8:	f884 303e 	strb.w	r3, [r4, #62]	; 0x3e
 800aaac:	6322      	str	r2, [r4, #48]	; 0x30
 800aaae:	f7ff ffa1 	bl	800a9f4 <HAL_UART_AbortReceiveCpltCallback>
 800aab2:	2000      	movs	r0, #0
 800aab4:	bd10      	pop	{r4, pc}
 800aab6:	bf00      	nop

0800aab8 <UART_DMARxOnlyAbortCallback>:
 800aab8:	b508      	push	{r3, lr}
 800aaba:	6b80      	ldr	r0, [r0, #56]	; 0x38
 800aabc:	2300      	movs	r3, #0
 800aabe:	2220      	movs	r2, #32
 800aac0:	85c3      	strh	r3, [r0, #46]	; 0x2e
 800aac2:	f880 203e 	strb.w	r2, [r0, #62]	; 0x3e
 800aac6:	6303      	str	r3, [r0, #48]	; 0x30
 800aac8:	f7ff ff94 	bl	800a9f4 <HAL_UART_AbortReceiveCpltCallback>
 800aacc:	bd08      	pop	{r3, pc}
 800aace:	bf00      	nop

0800aad0 <HAL_UARTEx_RxEventCallback>:
 800aad0:	4770      	bx	lr
 800aad2:	bf00      	nop

0800aad4 <UART_Receive_IT.part.0>:
 800aad4:	6883      	ldr	r3, [r0, #8]
 800aad6:	f5b3 5f80 	cmp.w	r3, #4096	; 0x1000
 800aada:	d044      	beq.n	800ab66 <UART_Receive_IT.part.0+0x92>
 800aadc:	6a82      	ldr	r2, [r0, #40]	; 0x28
 800aade:	2b00      	cmp	r3, #0
 800aae0:	d038      	beq.n	800ab54 <UART_Receive_IT.part.0+0x80>
 800aae2:	6803      	ldr	r3, [r0, #0]
 800aae4:	685b      	ldr	r3, [r3, #4]
 800aae6:	f003 037f 	and.w	r3, r3, #127	; 0x7f
 800aaea:	7013      	strb	r3, [r2, #0]
 800aaec:	6a83      	ldr	r3, [r0, #40]	; 0x28
 800aaee:	3301      	adds	r3, #1
 800aaf0:	6283      	str	r3, [r0, #40]	; 0x28
 800aaf2:	8dc3      	ldrh	r3, [r0, #46]	; 0x2e
 800aaf4:	3b01      	subs	r3, #1
 800aaf6:	b29b      	uxth	r3, r3
 800aaf8:	85c3      	strh	r3, [r0, #46]	; 0x2e
 800aafa:	2b00      	cmp	r3, #0
 800aafc:	d131      	bne.n	800ab62 <UART_Receive_IT.part.0+0x8e>
 800aafe:	6802      	ldr	r2, [r0, #0]
 800ab00:	68d1      	ldr	r1, [r2, #12]
 800ab02:	f021 0120 	bic.w	r1, r1, #32
 800ab06:	b510      	push	{r4, lr}
 800ab08:	60d1      	str	r1, [r2, #12]
 800ab0a:	68d1      	ldr	r1, [r2, #12]
 800ab0c:	f421 7180 	bic.w	r1, r1, #256	; 0x100
 800ab10:	60d1      	str	r1, [r2, #12]
 800ab12:	6951      	ldr	r1, [r2, #20]
 800ab14:	2420      	movs	r4, #32
 800ab16:	f021 0101 	bic.w	r1, r1, #1
 800ab1a:	6151      	str	r1, [r2, #20]
 800ab1c:	f880 403e 	strb.w	r4, [r0, #62]	; 0x3e
 800ab20:	6b01      	ldr	r1, [r0, #48]	; 0x30
 800ab22:	2901      	cmp	r1, #1
 800ab24:	b082      	sub	sp, #8
 800ab26:	d129      	bne.n	800ab7c <UART_Receive_IT.part.0+0xa8>
 800ab28:	6303      	str	r3, [r0, #48]	; 0x30
 800ab2a:	f102 030c 	add.w	r3, r2, #12
 800ab2e:	e853 3f00 	ldrex	r3, [r3]
 800ab32:	f023 0310 	bic.w	r3, r3, #16
 800ab36:	f102 040c 	add.w	r4, r2, #12
 800ab3a:	e844 3100 	strex	r1, r3, [r4]
 800ab3e:	2900      	cmp	r1, #0
 800ab40:	d1f3      	bne.n	800ab2a <UART_Receive_IT.part.0+0x56>
 800ab42:	6813      	ldr	r3, [r2, #0]
 800ab44:	06db      	lsls	r3, r3, #27
 800ab46:	d423      	bmi.n	800ab90 <UART_Receive_IT.part.0+0xbc>
 800ab48:	8d81      	ldrh	r1, [r0, #44]	; 0x2c
 800ab4a:	f7ff ffc1 	bl	800aad0 <HAL_UARTEx_RxEventCallback>
 800ab4e:	2000      	movs	r0, #0
 800ab50:	b002      	add	sp, #8
 800ab52:	bd10      	pop	{r4, pc}
 800ab54:	6903      	ldr	r3, [r0, #16]
 800ab56:	2b00      	cmp	r3, #0
 800ab58:	d1c3      	bne.n	800aae2 <UART_Receive_IT.part.0+0xe>
 800ab5a:	6803      	ldr	r3, [r0, #0]
 800ab5c:	685b      	ldr	r3, [r3, #4]
 800ab5e:	7013      	strb	r3, [r2, #0]
 800ab60:	e7c4      	b.n	800aaec <UART_Receive_IT.part.0+0x18>
 800ab62:	2000      	movs	r0, #0
 800ab64:	4770      	bx	lr
 800ab66:	6903      	ldr	r3, [r0, #16]
 800ab68:	b96b      	cbnz	r3, 800ab86 <UART_Receive_IT.part.0+0xb2>
 800ab6a:	6802      	ldr	r2, [r0, #0]
 800ab6c:	6a83      	ldr	r3, [r0, #40]	; 0x28
 800ab6e:	6852      	ldr	r2, [r2, #4]
 800ab70:	f3c2 0208 	ubfx	r2, r2, #0, #9
 800ab74:	f823 2b02 	strh.w	r2, [r3], #2
 800ab78:	6283      	str	r3, [r0, #40]	; 0x28
 800ab7a:	e7ba      	b.n	800aaf2 <UART_Receive_IT.part.0+0x1e>
 800ab7c:	f7ff fdc0 	bl	800a700 <HAL_UART_RxCpltCallback>
 800ab80:	2000      	movs	r0, #0
 800ab82:	b002      	add	sp, #8
 800ab84:	bd10      	pop	{r4, pc}
 800ab86:	6803      	ldr	r3, [r0, #0]
 800ab88:	6a82      	ldr	r2, [r0, #40]	; 0x28
 800ab8a:	685b      	ldr	r3, [r3, #4]
 800ab8c:	7013      	strb	r3, [r2, #0]
 800ab8e:	e7ad      	b.n	800aaec <UART_Receive_IT.part.0+0x18>
 800ab90:	2300      	movs	r3, #0
 800ab92:	9301      	str	r3, [sp, #4]
 800ab94:	6813      	ldr	r3, [r2, #0]
 800ab96:	9301      	str	r3, [sp, #4]
 800ab98:	6853      	ldr	r3, [r2, #4]
 800ab9a:	9301      	str	r3, [sp, #4]
 800ab9c:	9b01      	ldr	r3, [sp, #4]
 800ab9e:	e7d3      	b.n	800ab48 <UART_Receive_IT.part.0+0x74>

0800aba0 <HAL_UART_IRQHandler>:
 800aba0:	b530      	push	{r4, r5, lr}
 800aba2:	6803      	ldr	r3, [r0, #0]
 800aba4:	681a      	ldr	r2, [r3, #0]
 800aba6:	68d9      	ldr	r1, [r3, #12]
 800aba8:	695d      	ldr	r5, [r3, #20]
 800abaa:	f012 0f0f 	tst.w	r2, #15
 800abae:	b083      	sub	sp, #12
 800abb0:	4604      	mov	r4, r0
 800abb2:	d16e      	bne.n	800ac92 <HAL_UART_IRQHandler+0xf2>
 800abb4:	0695      	lsls	r5, r2, #26
 800abb6:	d502      	bpl.n	800abbe <HAL_UART_IRQHandler+0x1e>
 800abb8:	068d      	lsls	r5, r1, #26
 800abba:	f100 80b1 	bmi.w	800ad20 <HAL_UART_IRQHandler+0x180>
 800abbe:	6b20      	ldr	r0, [r4, #48]	; 0x30
 800abc0:	2801      	cmp	r0, #1
 800abc2:	d00b      	beq.n	800abdc <HAL_UART_IRQHandler+0x3c>
 800abc4:	0610      	lsls	r0, r2, #24
 800abc6:	d502      	bpl.n	800abce <HAL_UART_IRQHandler+0x2e>
 800abc8:	060d      	lsls	r5, r1, #24
 800abca:	f100 80b2 	bmi.w	800ad32 <HAL_UART_IRQHandler+0x192>
 800abce:	0650      	lsls	r0, r2, #25
 800abd0:	d502      	bpl.n	800abd8 <HAL_UART_IRQHandler+0x38>
 800abd2:	064a      	lsls	r2, r1, #25
 800abd4:	f100 80cc 	bmi.w	800ad70 <HAL_UART_IRQHandler+0x1d0>
 800abd8:	b003      	add	sp, #12
 800abda:	bd30      	pop	{r4, r5, pc}
 800abdc:	06d5      	lsls	r5, r2, #27
 800abde:	d5f1      	bpl.n	800abc4 <HAL_UART_IRQHandler+0x24>
 800abe0:	06c8      	lsls	r0, r1, #27
 800abe2:	d5ef      	bpl.n	800abc4 <HAL_UART_IRQHandler+0x24>
 800abe4:	2200      	movs	r2, #0
 800abe6:	9201      	str	r2, [sp, #4]
 800abe8:	681a      	ldr	r2, [r3, #0]
 800abea:	9201      	str	r2, [sp, #4]
 800abec:	685a      	ldr	r2, [r3, #4]
 800abee:	9201      	str	r2, [sp, #4]
 800abf0:	9a01      	ldr	r2, [sp, #4]
 800abf2:	695a      	ldr	r2, [r3, #20]
 800abf4:	0655      	lsls	r5, r2, #25
 800abf6:	f140 8118 	bpl.w	800ae2a <HAL_UART_IRQHandler+0x28a>
 800abfa:	6ba0      	ldr	r0, [r4, #56]	; 0x38
 800abfc:	6802      	ldr	r2, [r0, #0]
 800abfe:	6852      	ldr	r2, [r2, #4]
 800ac00:	b292      	uxth	r2, r2
 800ac02:	2a00      	cmp	r2, #0
 800ac04:	d0e8      	beq.n	800abd8 <HAL_UART_IRQHandler+0x38>
 800ac06:	8da1      	ldrh	r1, [r4, #44]	; 0x2c
 800ac08:	4291      	cmp	r1, r2
 800ac0a:	d9e5      	bls.n	800abd8 <HAL_UART_IRQHandler+0x38>
 800ac0c:	69c5      	ldr	r5, [r0, #28]
 800ac0e:	85e2      	strh	r2, [r4, #46]	; 0x2e
 800ac10:	f5b5 7f80 	cmp.w	r5, #256	; 0x100
 800ac14:	d036      	beq.n	800ac84 <HAL_UART_IRQHandler+0xe4>
 800ac16:	f103 020c 	add.w	r2, r3, #12
 800ac1a:	e852 2f00 	ldrex	r2, [r2]
 800ac1e:	f422 7280 	bic.w	r2, r2, #256	; 0x100
 800ac22:	f103 050c 	add.w	r5, r3, #12
 800ac26:	e845 2100 	strex	r1, r2, [r5]
 800ac2a:	2900      	cmp	r1, #0
 800ac2c:	d1f3      	bne.n	800ac16 <HAL_UART_IRQHandler+0x76>
 800ac2e:	f103 0214 	add.w	r2, r3, #20
 800ac32:	e852 2f00 	ldrex	r2, [r2]
 800ac36:	f022 0201 	bic.w	r2, r2, #1
 800ac3a:	f103 0514 	add.w	r5, r3, #20
 800ac3e:	e845 2100 	strex	r1, r2, [r5]
 800ac42:	2900      	cmp	r1, #0
 800ac44:	d1f3      	bne.n	800ac2e <HAL_UART_IRQHandler+0x8e>
 800ac46:	f103 0214 	add.w	r2, r3, #20
 800ac4a:	e852 2f00 	ldrex	r2, [r2]
 800ac4e:	f022 0240 	bic.w	r2, r2, #64	; 0x40
 800ac52:	f103 0514 	add.w	r5, r3, #20
 800ac56:	e845 2100 	strex	r1, r2, [r5]
 800ac5a:	2900      	cmp	r1, #0
 800ac5c:	d1f3      	bne.n	800ac46 <HAL_UART_IRQHandler+0xa6>
 800ac5e:	2220      	movs	r2, #32
 800ac60:	f884 203e 	strb.w	r2, [r4, #62]	; 0x3e
 800ac64:	6321      	str	r1, [r4, #48]	; 0x30
 800ac66:	f103 020c 	add.w	r2, r3, #12
 800ac6a:	e852 2f00 	ldrex	r2, [r2]
 800ac6e:	f022 0210 	bic.w	r2, r2, #16
 800ac72:	f103 050c 	add.w	r5, r3, #12
 800ac76:	e845 2100 	strex	r1, r2, [r5]
 800ac7a:	2900      	cmp	r1, #0
 800ac7c:	d1f3      	bne.n	800ac66 <HAL_UART_IRQHandler+0xc6>
 800ac7e:	f7f6 fe2f 	bl	80018e0 <HAL_DMA_Abort>
 800ac82:	8da1      	ldrh	r1, [r4, #44]	; 0x2c
 800ac84:	8de3      	ldrh	r3, [r4, #46]	; 0x2e
 800ac86:	1ac9      	subs	r1, r1, r3
 800ac88:	b289      	uxth	r1, r1
 800ac8a:	4620      	mov	r0, r4
 800ac8c:	f7ff ff20 	bl	800aad0 <HAL_UARTEx_RxEventCallback>
 800ac90:	e7a2      	b.n	800abd8 <HAL_UART_IRQHandler+0x38>
 800ac92:	f005 0501 	and.w	r5, r5, #1
 800ac96:	f401 7090 	and.w	r0, r1, #288	; 0x120
 800ac9a:	4328      	orrs	r0, r5
 800ac9c:	d08f      	beq.n	800abbe <HAL_UART_IRQHandler+0x1e>
 800ac9e:	07d0      	lsls	r0, r2, #31
 800aca0:	d505      	bpl.n	800acae <HAL_UART_IRQHandler+0x10e>
 800aca2:	05c8      	lsls	r0, r1, #23
 800aca4:	d503      	bpl.n	800acae <HAL_UART_IRQHandler+0x10e>
 800aca6:	6c20      	ldr	r0, [r4, #64]	; 0x40
 800aca8:	f040 0001 	orr.w	r0, r0, #1
 800acac:	6420      	str	r0, [r4, #64]	; 0x40
 800acae:	0750      	lsls	r0, r2, #29
 800acb0:	d52d      	bpl.n	800ad0e <HAL_UART_IRQHandler+0x16e>
 800acb2:	b12d      	cbz	r5, 800acc0 <HAL_UART_IRQHandler+0x120>
 800acb4:	6c20      	ldr	r0, [r4, #64]	; 0x40
 800acb6:	f040 0002 	orr.w	r0, r0, #2
 800acba:	6420      	str	r0, [r4, #64]	; 0x40
 800acbc:	0790      	lsls	r0, r2, #30
 800acbe:	d42a      	bmi.n	800ad16 <HAL_UART_IRQHandler+0x176>
 800acc0:	0710      	lsls	r0, r2, #28
 800acc2:	d507      	bpl.n	800acd4 <HAL_UART_IRQHandler+0x134>
 800acc4:	f001 0020 	and.w	r0, r1, #32
 800acc8:	4328      	orrs	r0, r5
 800acca:	d003      	beq.n	800acd4 <HAL_UART_IRQHandler+0x134>
 800accc:	6c20      	ldr	r0, [r4, #64]	; 0x40
 800acce:	f040 0008 	orr.w	r0, r0, #8
 800acd2:	6420      	str	r0, [r4, #64]	; 0x40
 800acd4:	6c20      	ldr	r0, [r4, #64]	; 0x40
 800acd6:	2800      	cmp	r0, #0
 800acd8:	f43f af7e 	beq.w	800abd8 <HAL_UART_IRQHandler+0x38>
 800acdc:	0690      	lsls	r0, r2, #26
 800acde:	d509      	bpl.n	800acf4 <HAL_UART_IRQHandler+0x154>
 800ace0:	0689      	lsls	r1, r1, #26
 800ace2:	d507      	bpl.n	800acf4 <HAL_UART_IRQHandler+0x154>
 800ace4:	f894 203e 	ldrb.w	r2, [r4, #62]	; 0x3e
 800ace8:	2a22      	cmp	r2, #34	; 0x22
 800acea:	d103      	bne.n	800acf4 <HAL_UART_IRQHandler+0x154>
 800acec:	4620      	mov	r0, r4
 800acee:	f7ff fef1 	bl	800aad4 <UART_Receive_IT.part.0>
 800acf2:	6823      	ldr	r3, [r4, #0]
 800acf4:	695a      	ldr	r2, [r3, #20]
 800acf6:	6c25      	ldr	r5, [r4, #64]	; 0x40
 800acf8:	f002 0240 	and.w	r2, r2, #64	; 0x40
 800acfc:	f005 0508 	and.w	r5, r5, #8
 800ad00:	4315      	orrs	r5, r2
 800ad02:	d140      	bne.n	800ad86 <HAL_UART_IRQHandler+0x1e6>
 800ad04:	4620      	mov	r0, r4
 800ad06:	f7ff fcff 	bl	800a708 <HAL_UART_ErrorCallback>
 800ad0a:	6425      	str	r5, [r4, #64]	; 0x40
 800ad0c:	e764      	b.n	800abd8 <HAL_UART_IRQHandler+0x38>
 800ad0e:	0790      	lsls	r0, r2, #30
 800ad10:	d5d6      	bpl.n	800acc0 <HAL_UART_IRQHandler+0x120>
 800ad12:	2d00      	cmp	r5, #0
 800ad14:	d0d4      	beq.n	800acc0 <HAL_UART_IRQHandler+0x120>
 800ad16:	6c20      	ldr	r0, [r4, #64]	; 0x40
 800ad18:	f040 0004 	orr.w	r0, r0, #4
 800ad1c:	6420      	str	r0, [r4, #64]	; 0x40
 800ad1e:	e7cf      	b.n	800acc0 <HAL_UART_IRQHandler+0x120>
 800ad20:	f890 303e 	ldrb.w	r3, [r0, #62]	; 0x3e
 800ad24:	2b22      	cmp	r3, #34	; 0x22
 800ad26:	f47f af57 	bne.w	800abd8 <HAL_UART_IRQHandler+0x38>
 800ad2a:	b003      	add	sp, #12
 800ad2c:	e8bd 4030 	ldmia.w	sp!, {r4, r5, lr}
 800ad30:	e6d0      	b.n	800aad4 <UART_Receive_IT.part.0>
 800ad32:	f894 203d 	ldrb.w	r2, [r4, #61]	; 0x3d
 800ad36:	2a21      	cmp	r2, #33	; 0x21
 800ad38:	f47f af4e 	bne.w	800abd8 <HAL_UART_IRQHandler+0x38>
 800ad3c:	68a2      	ldr	r2, [r4, #8]
 800ad3e:	f5b2 5f80 	cmp.w	r2, #4096	; 0x1000
 800ad42:	f000 80ab 	beq.w	800ae9c <HAL_UART_IRQHandler+0x2fc>
 800ad46:	6a22      	ldr	r2, [r4, #32]
 800ad48:	1c51      	adds	r1, r2, #1
 800ad4a:	6221      	str	r1, [r4, #32]
 800ad4c:	7812      	ldrb	r2, [r2, #0]
 800ad4e:	605a      	str	r2, [r3, #4]
 800ad50:	8ce2      	ldrh	r2, [r4, #38]	; 0x26
 800ad52:	3a01      	subs	r2, #1
 800ad54:	b292      	uxth	r2, r2
 800ad56:	84e2      	strh	r2, [r4, #38]	; 0x26
 800ad58:	2a00      	cmp	r2, #0
 800ad5a:	f47f af3d 	bne.w	800abd8 <HAL_UART_IRQHandler+0x38>
 800ad5e:	68da      	ldr	r2, [r3, #12]
 800ad60:	f022 0280 	bic.w	r2, r2, #128	; 0x80
 800ad64:	60da      	str	r2, [r3, #12]
 800ad66:	68da      	ldr	r2, [r3, #12]
 800ad68:	f042 0240 	orr.w	r2, r2, #64	; 0x40
 800ad6c:	60da      	str	r2, [r3, #12]
 800ad6e:	e733      	b.n	800abd8 <HAL_UART_IRQHandler+0x38>
 800ad70:	68da      	ldr	r2, [r3, #12]
 800ad72:	2120      	movs	r1, #32
 800ad74:	f022 0240 	bic.w	r2, r2, #64	; 0x40
 800ad78:	60da      	str	r2, [r3, #12]
 800ad7a:	4620      	mov	r0, r4
 800ad7c:	f884 103d 	strb.w	r1, [r4, #61]	; 0x3d
 800ad80:	f7ff fc8e 	bl	800a6a0 <HAL_UART_TxCpltCallback>
 800ad84:	e728      	b.n	800abd8 <HAL_UART_IRQHandler+0x38>
 800ad86:	f103 020c 	add.w	r2, r3, #12
 800ad8a:	e852 2f00 	ldrex	r2, [r2]
 800ad8e:	f422 7290 	bic.w	r2, r2, #288	; 0x120
 800ad92:	f103 000c 	add.w	r0, r3, #12
 800ad96:	e840 2100 	strex	r1, r2, [r0]
 800ad9a:	2900      	cmp	r1, #0
 800ad9c:	d1f3      	bne.n	800ad86 <HAL_UART_IRQHandler+0x1e6>
 800ad9e:	f103 0214 	add.w	r2, r3, #20
 800ada2:	e852 2f00 	ldrex	r2, [r2]
 800ada6:	f022 0201 	bic.w	r2, r2, #1
 800adaa:	f103 0014 	add.w	r0, r3, #20
 800adae:	e840 2100 	strex	r1, r2, [r0]
 800adb2:	2900      	cmp	r1, #0
 800adb4:	d1f3      	bne.n	800ad9e <HAL_UART_IRQHandler+0x1fe>
 800adb6:	6b22      	ldr	r2, [r4, #48]	; 0x30
 800adb8:	2a01      	cmp	r2, #1
 800adba:	d025      	beq.n	800ae08 <HAL_UART_IRQHandler+0x268>
 800adbc:	2200      	movs	r2, #0
 800adbe:	2120      	movs	r1, #32
 800adc0:	f884 103e 	strb.w	r1, [r4, #62]	; 0x3e
 800adc4:	6322      	str	r2, [r4, #48]	; 0x30
 800adc6:	695a      	ldr	r2, [r3, #20]
 800adc8:	0652      	lsls	r2, r2, #25
 800adca:	d52a      	bpl.n	800ae22 <HAL_UART_IRQHandler+0x282>
 800adcc:	f103 0214 	add.w	r2, r3, #20
 800add0:	e852 2f00 	ldrex	r2, [r2]
 800add4:	f022 0240 	bic.w	r2, r2, #64	; 0x40
 800add8:	f103 0014 	add.w	r0, r3, #20
 800addc:	e840 2100 	strex	r1, r2, [r0]
 800ade0:	2900      	cmp	r1, #0
 800ade2:	d1f3      	bne.n	800adcc <HAL_UART_IRQHandler+0x22c>
 800ade4:	6ba0      	ldr	r0, [r4, #56]	; 0x38
 800ade6:	b1e0      	cbz	r0, 800ae22 <HAL_UART_IRQHandler+0x282>
 800ade8:	f24a 73c9 	movw	r3, #42953	; 0xa7c9
 800adec:	f6c0 0300 	movt	r3, #2048	; 0x800
 800adf0:	6503      	str	r3, [r0, #80]	; 0x50
 800adf2:	f7f6 fdbd 	bl	8001970 <HAL_DMA_Abort_IT>
 800adf6:	2800      	cmp	r0, #0
 800adf8:	f43f aeee 	beq.w	800abd8 <HAL_UART_IRQHandler+0x38>
 800adfc:	6ba0      	ldr	r0, [r4, #56]	; 0x38
 800adfe:	6d03      	ldr	r3, [r0, #80]	; 0x50
 800ae00:	b003      	add	sp, #12
 800ae02:	e8bd 4030 	ldmia.w	sp!, {r4, r5, lr}
 800ae06:	4718      	bx	r3
 800ae08:	f103 020c 	add.w	r2, r3, #12
 800ae0c:	e852 2f00 	ldrex	r2, [r2]
 800ae10:	f022 0210 	bic.w	r2, r2, #16
 800ae14:	f103 000c 	add.w	r0, r3, #12
 800ae18:	e840 2100 	strex	r1, r2, [r0]
 800ae1c:	2900      	cmp	r1, #0
 800ae1e:	d1f3      	bne.n	800ae08 <HAL_UART_IRQHandler+0x268>
 800ae20:	e7cc      	b.n	800adbc <HAL_UART_IRQHandler+0x21c>
 800ae22:	4620      	mov	r0, r4
 800ae24:	f7ff fc70 	bl	800a708 <HAL_UART_ErrorCallback>
 800ae28:	e6d6      	b.n	800abd8 <HAL_UART_IRQHandler+0x38>
 800ae2a:	8de1      	ldrh	r1, [r4, #46]	; 0x2e
 800ae2c:	8de2      	ldrh	r2, [r4, #46]	; 0x2e
 800ae2e:	b292      	uxth	r2, r2
 800ae30:	b289      	uxth	r1, r1
 800ae32:	2a00      	cmp	r2, #0
 800ae34:	f43f aed0 	beq.w	800abd8 <HAL_UART_IRQHandler+0x38>
 800ae38:	8da2      	ldrh	r2, [r4, #44]	; 0x2c
 800ae3a:	1a51      	subs	r1, r2, r1
 800ae3c:	b289      	uxth	r1, r1
 800ae3e:	2900      	cmp	r1, #0
 800ae40:	f43f aeca 	beq.w	800abd8 <HAL_UART_IRQHandler+0x38>
 800ae44:	f103 020c 	add.w	r2, r3, #12
 800ae48:	e852 2f00 	ldrex	r2, [r2]
 800ae4c:	f422 7290 	bic.w	r2, r2, #288	; 0x120
 800ae50:	f103 050c 	add.w	r5, r3, #12
 800ae54:	e845 2000 	strex	r0, r2, [r5]
 800ae58:	2800      	cmp	r0, #0
 800ae5a:	d1f3      	bne.n	800ae44 <HAL_UART_IRQHandler+0x2a4>
 800ae5c:	f103 0214 	add.w	r2, r3, #20
 800ae60:	e852 2f00 	ldrex	r2, [r2]
 800ae64:	f022 0201 	bic.w	r2, r2, #1
 800ae68:	f103 0514 	add.w	r5, r3, #20
 800ae6c:	e845 2000 	strex	r0, r2, [r5]
 800ae70:	2800      	cmp	r0, #0
 800ae72:	d1f3      	bne.n	800ae5c <HAL_UART_IRQHandler+0x2bc>
 800ae74:	2220      	movs	r2, #32
 800ae76:	f884 203e 	strb.w	r2, [r4, #62]	; 0x3e
 800ae7a:	6320      	str	r0, [r4, #48]	; 0x30
 800ae7c:	f103 020c 	add.w	r2, r3, #12
 800ae80:	e852 2f00 	ldrex	r2, [r2]
 800ae84:	f022 0210 	bic.w	r2, r2, #16
 800ae88:	f103 050c 	add.w	r5, r3, #12
 800ae8c:	e845 2000 	strex	r0, r2, [r5]
 800ae90:	2800      	cmp	r0, #0
 800ae92:	d1f3      	bne.n	800ae7c <HAL_UART_IRQHandler+0x2dc>
 800ae94:	4620      	mov	r0, r4
 800ae96:	f7ff fe1b 	bl	800aad0 <HAL_UARTEx_RxEventCallback>
 800ae9a:	e69d      	b.n	800abd8 <HAL_UART_IRQHandler+0x38>
 800ae9c:	6922      	ldr	r2, [r4, #16]
 800ae9e:	2a00      	cmp	r2, #0
 800aea0:	f47f af51 	bne.w	800ad46 <HAL_UART_IRQHandler+0x1a6>
 800aea4:	6a22      	ldr	r2, [r4, #32]
 800aea6:	f832 1b02 	ldrh.w	r1, [r2], #2
 800aeaa:	f3c1 0108 	ubfx	r1, r1, #0, #9
 800aeae:	6059      	str	r1, [r3, #4]
 800aeb0:	6222      	str	r2, [r4, #32]
 800aeb2:	e74d      	b.n	800ad50 <HAL_UART_IRQHandler+0x1b0>

0800aeb4 <UART_DMARxHalfCplt>:
 800aeb4:	6b80      	ldr	r0, [r0, #56]	; 0x38
 800aeb6:	b508      	push	{r3, lr}
 800aeb8:	6b03      	ldr	r3, [r0, #48]	; 0x30
 800aeba:	2b01      	cmp	r3, #1
 800aebc:	d002      	beq.n	800aec4 <UART_DMARxHalfCplt+0x10>
 800aebe:	f7ff fc21 	bl	800a704 <HAL_UART_RxHalfCpltCallback>
 800aec2:	bd08      	pop	{r3, pc}
 800aec4:	8d81      	ldrh	r1, [r0, #44]	; 0x2c
 800aec6:	0849      	lsrs	r1, r1, #1
 800aec8:	f7ff fe02 	bl	800aad0 <HAL_UARTEx_RxEventCallback>
 800aecc:	bd08      	pop	{r3, pc}
 800aece:	bf00      	nop

0800aed0 <UART_DMAReceiveCplt>:
 800aed0:	b508      	push	{r3, lr}
 800aed2:	6803      	ldr	r3, [r0, #0]
 800aed4:	6b80      	ldr	r0, [r0, #56]	; 0x38
 800aed6:	681a      	ldr	r2, [r3, #0]
 800aed8:	f412 7280 	ands.w	r2, r2, #256	; 0x100
 800aedc:	d12b      	bne.n	800af36 <UART_DMAReceiveCplt+0x66>
 800aede:	6803      	ldr	r3, [r0, #0]
 800aee0:	85c2      	strh	r2, [r0, #46]	; 0x2e
 800aee2:	f103 020c 	add.w	r2, r3, #12
 800aee6:	e852 2f00 	ldrex	r2, [r2]
 800aeea:	f422 7280 	bic.w	r2, r2, #256	; 0x100
 800aeee:	f103 0c0c 	add.w	ip, r3, #12
 800aef2:	e84c 2100 	strex	r1, r2, [ip]
 800aef6:	2900      	cmp	r1, #0
 800aef8:	d1f3      	bne.n	800aee2 <UART_DMAReceiveCplt+0x12>
 800aefa:	f103 0214 	add.w	r2, r3, #20
 800aefe:	e852 2f00 	ldrex	r2, [r2]
 800af02:	f022 0201 	bic.w	r2, r2, #1
 800af06:	f103 0c14 	add.w	ip, r3, #20
 800af0a:	e84c 2100 	strex	r1, r2, [ip]
 800af0e:	2900      	cmp	r1, #0
 800af10:	d1f3      	bne.n	800aefa <UART_DMAReceiveCplt+0x2a>
 800af12:	f103 0214 	add.w	r2, r3, #20
 800af16:	e852 2f00 	ldrex	r2, [r2]
 800af1a:	f022 0240 	bic.w	r2, r2, #64	; 0x40
 800af1e:	f103 0c14 	add.w	ip, r3, #20
 800af22:	e84c 2100 	strex	r1, r2, [ip]
 800af26:	2900      	cmp	r1, #0
 800af28:	d1f3      	bne.n	800af12 <UART_DMAReceiveCplt+0x42>
 800af2a:	2220      	movs	r2, #32
 800af2c:	f880 203e 	strb.w	r2, [r0, #62]	; 0x3e
 800af30:	6b02      	ldr	r2, [r0, #48]	; 0x30
 800af32:	2a01      	cmp	r2, #1
 800af34:	d005      	beq.n	800af42 <UART_DMAReceiveCplt+0x72>
 800af36:	6b03      	ldr	r3, [r0, #48]	; 0x30
 800af38:	2b01      	cmp	r3, #1
 800af3a:	d00f      	beq.n	800af5c <UART_DMAReceiveCplt+0x8c>
 800af3c:	f7ff fbe0 	bl	800a700 <HAL_UART_RxCpltCallback>
 800af40:	bd08      	pop	{r3, pc}
 800af42:	f103 020c 	add.w	r2, r3, #12
 800af46:	e852 2f00 	ldrex	r2, [r2]
 800af4a:	f022 0210 	bic.w	r2, r2, #16
 800af4e:	f103 0c0c 	add.w	ip, r3, #12
 800af52:	e84c 2100 	strex	r1, r2, [ip]
 800af56:	2900      	cmp	r1, #0
 800af58:	d1f3      	bne.n	800af42 <UART_DMAReceiveCplt+0x72>
 800af5a:	e7ec      	b.n	800af36 <UART_DMAReceiveCplt+0x66>
 800af5c:	8d81      	ldrh	r1, [r0, #44]	; 0x2c
 800af5e:	f7ff fdb7 	bl	800aad0 <HAL_UARTEx_RxEventCallback>
 800af62:	bd08      	pop	{r3, pc}

0800af64 <HAL_LIN_SendBreak>:
 800af64:	f890 303c 	ldrb.w	r3, [r0, #60]	; 0x3c
 800af68:	2b01      	cmp	r3, #1
 800af6a:	d01c      	beq.n	800afa6 <HAL_LIN_SendBreak+0x42>
 800af6c:	2201      	movs	r2, #1
 800af6e:	2324      	movs	r3, #36	; 0x24
 800af70:	6801      	ldr	r1, [r0, #0]
 800af72:	b410      	push	{r4}
 800af74:	4604      	mov	r4, r0
 800af76:	f880 203c 	strb.w	r2, [r0, #60]	; 0x3c
 800af7a:	f880 303d 	strb.w	r3, [r0, #61]	; 0x3d
 800af7e:	f101 030c 	add.w	r3, r1, #12
 800af82:	e853 3f00 	ldrex	r3, [r3]
 800af86:	f043 0301 	orr.w	r3, r3, #1
 800af8a:	f101 020c 	add.w	r2, r1, #12
 800af8e:	e842 3000 	strex	r0, r3, [r2]
 800af92:	2800      	cmp	r0, #0
 800af94:	d1f3      	bne.n	800af7e <HAL_LIN_SendBreak+0x1a>
 800af96:	2320      	movs	r3, #32
 800af98:	f884 003c 	strb.w	r0, [r4, #60]	; 0x3c
 800af9c:	f884 303d 	strb.w	r3, [r4, #61]	; 0x3d
 800afa0:	f85d 4b04 	ldr.w	r4, [sp], #4
 800afa4:	4770      	bx	lr
 800afa6:	2002      	movs	r0, #2
 800afa8:	4770      	bx	lr
 800afaa:	bf00      	nop

0800afac <HAL_MultiProcessor_EnterMuteMode>:
 800afac:	f890 303c 	ldrb.w	r3, [r0, #60]	; 0x3c
 800afb0:	2b01      	cmp	r3, #1
 800afb2:	d01c      	beq.n	800afee <HAL_MultiProcessor_EnterMuteMode+0x42>
 800afb4:	2201      	movs	r2, #1
 800afb6:	2324      	movs	r3, #36	; 0x24
 800afb8:	6801      	ldr	r1, [r0, #0]
 800afba:	b410      	push	{r4}
 800afbc:	4604      	mov	r4, r0
 800afbe:	f880 203c 	strb.w	r2, [r0, #60]	; 0x3c
 800afc2:	f880 303d 	strb.w	r3, [r0, #61]	; 0x3d
 800afc6:	f101 030c 	add.w	r3, r1, #12
 800afca:	e853 3f00 	ldrex	r3, [r3]
 800afce:	f043 0302 	orr.w	r3, r3, #2
 800afd2:	f101 020c 	add.w	r2, r1, #12
 800afd6:	e842 3000 	strex	r0, r3, [r2]
 800afda:	2800      	cmp	r0, #0
 800afdc:	d1f3      	bne.n	800afc6 <HAL_MultiProcessor_EnterMuteMode+0x1a>
 800afde:	2320      	movs	r3, #32
 800afe0:	f884 003c 	strb.w	r0, [r4, #60]	; 0x3c
 800afe4:	f884 303d 	strb.w	r3, [r4, #61]	; 0x3d
 800afe8:	f85d 4b04 	ldr.w	r4, [sp], #4
 800afec:	4770      	bx	lr
 800afee:	2002      	movs	r0, #2
 800aff0:	4770      	bx	lr
 800aff2:	bf00      	nop

0800aff4 <HAL_MultiProcessor_ExitMuteMode>:
 800aff4:	f890 303c 	ldrb.w	r3, [r0, #60]	; 0x3c
 800aff8:	2b01      	cmp	r3, #1
 800affa:	d01c      	beq.n	800b036 <HAL_MultiProcessor_ExitMuteMode+0x42>
 800affc:	2201      	movs	r2, #1
 800affe:	2324      	movs	r3, #36	; 0x24
 800b000:	6801      	ldr	r1, [r0, #0]
 800b002:	b410      	push	{r4}
 800b004:	4604      	mov	r4, r0
 800b006:	f880 203c 	strb.w	r2, [r0, #60]	; 0x3c
 800b00a:	f880 303d 	strb.w	r3, [r0, #61]	; 0x3d
 800b00e:	f101 030c 	add.w	r3, r1, #12
 800b012:	e853 3f00 	ldrex	r3, [r3]
 800b016:	f023 0302 	bic.w	r3, r3, #2
 800b01a:	f101 020c 	add.w	r2, r1, #12
 800b01e:	e842 3000 	strex	r0, r3, [r2]
 800b022:	2800      	cmp	r0, #0
 800b024:	d1f3      	bne.n	800b00e <HAL_MultiProcessor_ExitMuteMode+0x1a>
 800b026:	2320      	movs	r3, #32
 800b028:	f884 003c 	strb.w	r0, [r4, #60]	; 0x3c
 800b02c:	f884 303d 	strb.w	r3, [r4, #61]	; 0x3d
 800b030:	f85d 4b04 	ldr.w	r4, [sp], #4
 800b034:	4770      	bx	lr
 800b036:	2002      	movs	r0, #2
 800b038:	4770      	bx	lr
 800b03a:	bf00      	nop

0800b03c <HAL_HalfDuplex_EnableTransmitter>:
 800b03c:	f890 203c 	ldrb.w	r2, [r0, #60]	; 0x3c
 800b040:	2a01      	cmp	r2, #1
 800b042:	d015      	beq.n	800b070 <HAL_HalfDuplex_EnableTransmitter+0x34>
 800b044:	4603      	mov	r3, r0
 800b046:	2224      	movs	r2, #36	; 0x24
 800b048:	6800      	ldr	r0, [r0, #0]
 800b04a:	b410      	push	{r4}
 800b04c:	f883 203d 	strb.w	r2, [r3, #61]	; 0x3d
 800b050:	68c2      	ldr	r2, [r0, #12]
 800b052:	f022 020c 	bic.w	r2, r2, #12
 800b056:	2420      	movs	r4, #32
 800b058:	2100      	movs	r1, #0
 800b05a:	f042 0208 	orr.w	r2, r2, #8
 800b05e:	60c2      	str	r2, [r0, #12]
 800b060:	f883 403d 	strb.w	r4, [r3, #61]	; 0x3d
 800b064:	f883 103c 	strb.w	r1, [r3, #60]	; 0x3c
 800b068:	4608      	mov	r0, r1
 800b06a:	f85d 4b04 	ldr.w	r4, [sp], #4
 800b06e:	4770      	bx	lr
 800b070:	2002      	movs	r0, #2
 800b072:	4770      	bx	lr

0800b074 <HAL_HalfDuplex_EnableReceiver>:
 800b074:	f890 203c 	ldrb.w	r2, [r0, #60]	; 0x3c
 800b078:	2a01      	cmp	r2, #1
 800b07a:	d015      	beq.n	800b0a8 <HAL_HalfDuplex_EnableReceiver+0x34>
 800b07c:	4603      	mov	r3, r0
 800b07e:	2224      	movs	r2, #36	; 0x24
 800b080:	6800      	ldr	r0, [r0, #0]
 800b082:	b410      	push	{r4}
 800b084:	f883 203d 	strb.w	r2, [r3, #61]	; 0x3d
 800b088:	68c2      	ldr	r2, [r0, #12]
 800b08a:	f022 020c 	bic.w	r2, r2, #12
 800b08e:	2420      	movs	r4, #32
 800b090:	2100      	movs	r1, #0
 800b092:	f042 0204 	orr.w	r2, r2, #4
 800b096:	60c2      	str	r2, [r0, #12]
 800b098:	f883 403d 	strb.w	r4, [r3, #61]	; 0x3d
 800b09c:	f883 103c 	strb.w	r1, [r3, #60]	; 0x3c
 800b0a0:	4608      	mov	r0, r1
 800b0a2:	f85d 4b04 	ldr.w	r4, [sp], #4
 800b0a6:	4770      	bx	lr
 800b0a8:	2002      	movs	r0, #2
 800b0aa:	4770      	bx	lr

0800b0ac <HAL_UART_GetState>:
 800b0ac:	f890 203d 	ldrb.w	r2, [r0, #61]	; 0x3d
 800b0b0:	f890 003e 	ldrb.w	r0, [r0, #62]	; 0x3e
 800b0b4:	4310      	orrs	r0, r2
 800b0b6:	4770      	bx	lr

0800b0b8 <HAL_UART_GetError>:
 800b0b8:	6c00      	ldr	r0, [r0, #64]	; 0x40
 800b0ba:	4770      	bx	lr

0800b0bc <UART_Start_Receive_IT>:
 800b0bc:	b430      	push	{r4, r5}
 800b0be:	6803      	ldr	r3, [r0, #0]
 800b0c0:	85c2      	strh	r2, [r0, #46]	; 0x2e
 800b0c2:	2400      	movs	r4, #0
 800b0c4:	2522      	movs	r5, #34	; 0x22
 800b0c6:	6404      	str	r4, [r0, #64]	; 0x40
 800b0c8:	f880 403c 	strb.w	r4, [r0, #60]	; 0x3c
 800b0cc:	f880 503e 	strb.w	r5, [r0, #62]	; 0x3e
 800b0d0:	68dd      	ldr	r5, [r3, #12]
 800b0d2:	8582      	strh	r2, [r0, #44]	; 0x2c
 800b0d4:	f445 7580 	orr.w	r5, r5, #256	; 0x100
 800b0d8:	6281      	str	r1, [r0, #40]	; 0x28
 800b0da:	60dd      	str	r5, [r3, #12]
 800b0dc:	695a      	ldr	r2, [r3, #20]
 800b0de:	f042 0201 	orr.w	r2, r2, #1
 800b0e2:	615a      	str	r2, [r3, #20]
 800b0e4:	68da      	ldr	r2, [r3, #12]
 800b0e6:	f042 0220 	orr.w	r2, r2, #32
 800b0ea:	4620      	mov	r0, r4
 800b0ec:	60da      	str	r2, [r3, #12]
 800b0ee:	bc30      	pop	{r4, r5}
 800b0f0:	4770      	bx	lr
 800b0f2:	bf00      	nop

0800b0f4 <UART_Start_Receive_DMA>:
 800b0f4:	b5f0      	push	{r4, r5, r6, r7, lr}
 800b0f6:	4604      	mov	r4, r0
 800b0f8:	4613      	mov	r3, r2
 800b0fa:	6826      	ldr	r6, [r4, #0]
 800b0fc:	6b80      	ldr	r0, [r0, #56]	; 0x38
 800b0fe:	62a1      	str	r1, [r4, #40]	; 0x28
 800b100:	85a2      	strh	r2, [r4, #44]	; 0x2c
 800b102:	460a      	mov	r2, r1
 800b104:	1d31      	adds	r1, r6, #4
 800b106:	f64a 66b5 	movw	r6, #44725	; 0xaeb5
 800b10a:	2500      	movs	r5, #0
 800b10c:	f04f 0c22 	mov.w	ip, #34	; 0x22
 800b110:	f6c0 0600 	movt	r6, #2048	; 0x800
 800b114:	6425      	str	r5, [r4, #64]	; 0x40
 800b116:	f64a 67d1 	movw	r7, #44753	; 0xaed1
 800b11a:	f884 c03e 	strb.w	ip, [r4, #62]	; 0x3e
 800b11e:	6406      	str	r6, [r0, #64]	; 0x40
 800b120:	f24a 760d 	movw	r6, #42765	; 0xa70d
 800b124:	f6c0 0700 	movt	r7, #2048	; 0x800
 800b128:	f6c0 0600 	movt	r6, #2048	; 0x800
 800b12c:	b083      	sub	sp, #12
 800b12e:	6505      	str	r5, [r0, #80]	; 0x50
 800b130:	63c7      	str	r7, [r0, #60]	; 0x3c
 800b132:	64c6      	str	r6, [r0, #76]	; 0x4c
 800b134:	f7f6 fb96 	bl	8001864 <HAL_DMA_Start_IT>
 800b138:	6823      	ldr	r3, [r4, #0]
 800b13a:	9501      	str	r5, [sp, #4]
 800b13c:	681a      	ldr	r2, [r3, #0]
 800b13e:	9201      	str	r2, [sp, #4]
 800b140:	685a      	ldr	r2, [r3, #4]
 800b142:	9201      	str	r2, [sp, #4]
 800b144:	9a01      	ldr	r2, [sp, #4]
 800b146:	f884 503c 	strb.w	r5, [r4, #60]	; 0x3c
 800b14a:	f103 020c 	add.w	r2, r3, #12
 800b14e:	e852 2f00 	ldrex	r2, [r2]
 800b152:	f442 7280 	orr.w	r2, r2, #256	; 0x100
 800b156:	f103 000c 	add.w	r0, r3, #12
 800b15a:	e840 2100 	strex	r1, r2, [r0]
 800b15e:	2900      	cmp	r1, #0
 800b160:	d1f3      	bne.n	800b14a <UART_Start_Receive_DMA+0x56>
 800b162:	f103 0214 	add.w	r2, r3, #20
 800b166:	e852 2f00 	ldrex	r2, [r2]
 800b16a:	f042 0201 	orr.w	r2, r2, #1
 800b16e:	f103 0014 	add.w	r0, r3, #20
 800b172:	e840 2100 	strex	r1, r2, [r0]
 800b176:	2900      	cmp	r1, #0
 800b178:	d1f3      	bne.n	800b162 <UART_Start_Receive_DMA+0x6e>
 800b17a:	f103 0214 	add.w	r2, r3, #20
 800b17e:	e852 2f00 	ldrex	r2, [r2]
 800b182:	f042 0240 	orr.w	r2, r2, #64	; 0x40
 800b186:	f103 0114 	add.w	r1, r3, #20
 800b18a:	e841 2000 	strex	r0, r2, [r1]
 800b18e:	2800      	cmp	r0, #0
 800b190:	d1f3      	bne.n	800b17a <UART_Start_Receive_DMA+0x86>
 800b192:	b003      	add	sp, #12
 800b194:	bdf0      	pop	{r4, r5, r6, r7, pc}
 800b196:	bf00      	nop

0800b198 <HAL_UART_Receive_DMA>:
 800b198:	b470      	push	{r4, r5, r6}
 800b19a:	f890 603e 	ldrb.w	r6, [r0, #62]	; 0x3e
 800b19e:	2e20      	cmp	r6, #32
 800b1a0:	d110      	bne.n	800b1c4 <HAL_UART_Receive_DMA+0x2c>
 800b1a2:	b161      	cbz	r1, 800b1be <HAL_UART_Receive_DMA+0x26>
 800b1a4:	b15a      	cbz	r2, 800b1be <HAL_UART_Receive_DMA+0x26>
 800b1a6:	f890 403c 	ldrb.w	r4, [r0, #60]	; 0x3c
 800b1aa:	2c01      	cmp	r4, #1
 800b1ac:	d00a      	beq.n	800b1c4 <HAL_UART_Receive_DMA+0x2c>
 800b1ae:	2501      	movs	r5, #1
 800b1b0:	2400      	movs	r4, #0
 800b1b2:	f880 503c 	strb.w	r5, [r0, #60]	; 0x3c
 800b1b6:	6304      	str	r4, [r0, #48]	; 0x30
 800b1b8:	bc70      	pop	{r4, r5, r6}
 800b1ba:	f7ff bf9b 	b.w	800b0f4 <UART_Start_Receive_DMA>
 800b1be:	2001      	movs	r0, #1
 800b1c0:	bc70      	pop	{r4, r5, r6}
 800b1c2:	4770      	bx	lr
 800b1c4:	2002      	movs	r0, #2
 800b1c6:	bc70      	pop	{r4, r5, r6}
 800b1c8:	4770      	bx	lr
 800b1ca:	bf00      	nop

0800b1cc <HAL_UARTEx_ReceiveToIdle_DMA>:
 800b1cc:	b570      	push	{r4, r5, r6, lr}
 800b1ce:	f890 603e 	ldrb.w	r6, [r0, #62]	; 0x3e
 800b1d2:	2e20      	cmp	r6, #32
 800b1d4:	b082      	sub	sp, #8
 800b1d6:	d113      	bne.n	800b200 <HAL_UARTEx_ReceiveToIdle_DMA+0x34>
 800b1d8:	b179      	cbz	r1, 800b1fa <HAL_UARTEx_ReceiveToIdle_DMA+0x2e>
 800b1da:	b172      	cbz	r2, 800b1fa <HAL_UARTEx_ReceiveToIdle_DMA+0x2e>
 800b1dc:	f890 303c 	ldrb.w	r3, [r0, #60]	; 0x3c
 800b1e0:	2b01      	cmp	r3, #1
 800b1e2:	4604      	mov	r4, r0
 800b1e4:	d00c      	beq.n	800b200 <HAL_UARTEx_ReceiveToIdle_DMA+0x34>
 800b1e6:	2301      	movs	r3, #1
 800b1e8:	f880 303c 	strb.w	r3, [r0, #60]	; 0x3c
 800b1ec:	6303      	str	r3, [r0, #48]	; 0x30
 800b1ee:	f7ff ff81 	bl	800b0f4 <UART_Start_Receive_DMA>
 800b1f2:	b918      	cbnz	r0, 800b1fc <HAL_UARTEx_ReceiveToIdle_DMA+0x30>
 800b1f4:	6b23      	ldr	r3, [r4, #48]	; 0x30
 800b1f6:	2b01      	cmp	r3, #1
 800b1f8:	d005      	beq.n	800b206 <HAL_UARTEx_ReceiveToIdle_DMA+0x3a>
 800b1fa:	2001      	movs	r0, #1
 800b1fc:	b002      	add	sp, #8
 800b1fe:	bd70      	pop	{r4, r5, r6, pc}
 800b200:	2002      	movs	r0, #2
 800b202:	b002      	add	sp, #8
 800b204:	bd70      	pop	{r4, r5, r6, pc}
 800b206:	6822      	ldr	r2, [r4, #0]
 800b208:	9001      	str	r0, [sp, #4]
 800b20a:	6813      	ldr	r3, [r2, #0]
 800b20c:	9301      	str	r3, [sp, #4]
 800b20e:	6853      	ldr	r3, [r2, #4]
 800b210:	9301      	str	r3, [sp, #4]
 800b212:	9b01      	ldr	r3, [sp, #4]
 800b214:	f102 030c 	add.w	r3, r2, #12
 800b218:	e853 3f00 	ldrex	r3, [r3]
 800b21c:	f043 0310 	orr.w	r3, r3, #16
 800b220:	f102 040c 	add.w	r4, r2, #12
 800b224:	e844 3100 	strex	r1, r3, [r4]
 800b228:	2900      	cmp	r1, #0
 800b22a:	d1f3      	bne.n	800b214 <HAL_UARTEx_ReceiveToIdle_DMA+0x48>
 800b22c:	e7e6      	b.n	800b1fc <HAL_UARTEx_ReceiveToIdle_DMA+0x30>
 800b22e:	bf00      	nop

0800b230 <memchr>:
 800b230:	f001 01ff 	and.w	r1, r1, #255	; 0xff
 800b234:	2a10      	cmp	r2, #16
 800b236:	db2b      	blt.n	800b290 <memchr+0x60>
 800b238:	f010 0f07 	tst.w	r0, #7
 800b23c:	d008      	beq.n	800b250 <memchr+0x20>
 800b23e:	f810 3b01 	ldrb.w	r3, [r0], #1
 800b242:	3a01      	subs	r2, #1
 800b244:	428b      	cmp	r3, r1
 800b246:	d02d      	beq.n	800b2a4 <memchr+0x74>
 800b248:	f010 0f07 	tst.w	r0, #7
 800b24c:	b342      	cbz	r2, 800b2a0 <memchr+0x70>
 800b24e:	d1f6      	bne.n	800b23e <memchr+0xe>
 800b250:	b4f0      	push	{r4, r5, r6, r7}
 800b252:	ea41 2101 	orr.w	r1, r1, r1, lsl #8
 800b256:	ea41 4101 	orr.w	r1, r1, r1, lsl #16
 800b25a:	f022 0407 	bic.w	r4, r2, #7
 800b25e:	f07f 0700 	mvns.w	r7, #0
 800b262:	2300      	movs	r3, #0
 800b264:	e8f0 5602 	ldrd	r5, r6, [r0], #8
 800b268:	3c08      	subs	r4, #8
 800b26a:	ea85 0501 	eor.w	r5, r5, r1
 800b26e:	ea86 0601 	eor.w	r6, r6, r1
 800b272:	fa85 f547 	uadd8	r5, r5, r7
 800b276:	faa3 f587 	sel	r5, r3, r7
 800b27a:	fa86 f647 	uadd8	r6, r6, r7
 800b27e:	faa5 f687 	sel	r6, r5, r7
 800b282:	b98e      	cbnz	r6, 800b2a8 <memchr+0x78>
 800b284:	d1ee      	bne.n	800b264 <memchr+0x34>
 800b286:	bcf0      	pop	{r4, r5, r6, r7}
 800b288:	f001 01ff 	and.w	r1, r1, #255	; 0xff
 800b28c:	f002 0207 	and.w	r2, r2, #7
 800b290:	b132      	cbz	r2, 800b2a0 <memchr+0x70>
 800b292:	f810 3b01 	ldrb.w	r3, [r0], #1
 800b296:	3a01      	subs	r2, #1
 800b298:	ea83 0301 	eor.w	r3, r3, r1
 800b29c:	b113      	cbz	r3, 800b2a4 <memchr+0x74>
 800b29e:	d1f8      	bne.n	800b292 <memchr+0x62>
 800b2a0:	2000      	movs	r0, #0
 800b2a2:	4770      	bx	lr
 800b2a4:	3801      	subs	r0, #1
 800b2a6:	4770      	bx	lr
 800b2a8:	2d00      	cmp	r5, #0
 800b2aa:	bf06      	itte	eq
 800b2ac:	4635      	moveq	r5, r6
 800b2ae:	3803      	subeq	r0, #3
 800b2b0:	3807      	subne	r0, #7
 800b2b2:	f015 0f01 	tst.w	r5, #1
 800b2b6:	d107      	bne.n	800b2c8 <memchr+0x98>
 800b2b8:	3001      	adds	r0, #1
 800b2ba:	f415 7f80 	tst.w	r5, #256	; 0x100
 800b2be:	bf02      	ittt	eq
 800b2c0:	3001      	addeq	r0, #1
 800b2c2:	f415 3fc0 	tsteq.w	r5, #98304	; 0x18000
 800b2c6:	3001      	addeq	r0, #1
 800b2c8:	bcf0      	pop	{r4, r5, r6, r7}
 800b2ca:	3801      	subs	r0, #1
 800b2cc:	4770      	bx	lr
 800b2ce:	bf00      	nop

0800b2d0 <__aeabi_uldivmod>:
 800b2d0:	b953      	cbnz	r3, 800b2e8 <__aeabi_uldivmod+0x18>
 800b2d2:	b94a      	cbnz	r2, 800b2e8 <__aeabi_uldivmod+0x18>
 800b2d4:	2900      	cmp	r1, #0
 800b2d6:	bf08      	it	eq
 800b2d8:	2800      	cmpeq	r0, #0
 800b2da:	bf1c      	itt	ne
 800b2dc:	f04f 31ff 	movne.w	r1, #4294967295	; 0xffffffff
 800b2e0:	f04f 30ff 	movne.w	r0, #4294967295	; 0xffffffff
 800b2e4:	f000 b96e 	b.w	800b5c4 <__aeabi_idiv0>
 800b2e8:	f1ad 0c08 	sub.w	ip, sp, #8
 800b2ec:	e96d ce04 	strd	ip, lr, [sp, #-16]!
 800b2f0:	f000 f806 	bl	800b300 <__udivmoddi4>
 800b2f4:	f8dd e004 	ldr.w	lr, [sp, #4]
 800b2f8:	e9dd 2302 	ldrd	r2, r3, [sp, #8]
 800b2fc:	b004      	add	sp, #16
 800b2fe:	4770      	bx	lr

0800b300 <__udivmoddi4>:
 800b300:	e92d 47f0 	stmdb	sp!, {r4, r5, r6, r7, r8, r9, sl, lr}
 800b304:	9d08      	ldr	r5, [sp, #32]
 800b306:	4604      	mov	r4, r0
 800b308:	468c      	mov	ip, r1
 800b30a:	2b00      	cmp	r3, #0
 800b30c:	f040 8083 	bne.w	800b416 <__udivmoddi4+0x116>
 800b310:	428a      	cmp	r2, r1
 800b312:	4617      	mov	r7, r2
 800b314:	d947      	bls.n	800b3a6 <__udivmoddi4+0xa6>
 800b316:	fab2 f282 	clz	r2, r2
 800b31a:	b142      	cbz	r2, 800b32e <__udivmoddi4+0x2e>
 800b31c:	f1c2 0020 	rsb	r0, r2, #32
 800b320:	fa24 f000 	lsr.w	r0, r4, r0
 800b324:	4091      	lsls	r1, r2
 800b326:	4097      	lsls	r7, r2
 800b328:	ea40 0c01 	orr.w	ip, r0, r1
 800b32c:	4094      	lsls	r4, r2
 800b32e:	ea4f 4817 	mov.w	r8, r7, lsr #16
 800b332:	0c23      	lsrs	r3, r4, #16
 800b334:	fbbc f6f8 	udiv	r6, ip, r8
 800b338:	fa1f fe87 	uxth.w	lr, r7
 800b33c:	fb08 c116 	mls	r1, r8, r6, ip
 800b340:	ea43 4301 	orr.w	r3, r3, r1, lsl #16
 800b344:	fb06 f10e 	mul.w	r1, r6, lr
 800b348:	4299      	cmp	r1, r3
 800b34a:	d909      	bls.n	800b360 <__udivmoddi4+0x60>
 800b34c:	18fb      	adds	r3, r7, r3
 800b34e:	f106 30ff 	add.w	r0, r6, #4294967295	; 0xffffffff
 800b352:	f080 8119 	bcs.w	800b588 <__udivmoddi4+0x288>
 800b356:	4299      	cmp	r1, r3
 800b358:	f240 8116 	bls.w	800b588 <__udivmoddi4+0x288>
 800b35c:	3e02      	subs	r6, #2
 800b35e:	443b      	add	r3, r7
 800b360:	1a5b      	subs	r3, r3, r1
 800b362:	b2a4      	uxth	r4, r4
 800b364:	fbb3 f0f8 	udiv	r0, r3, r8
 800b368:	fb08 3310 	mls	r3, r8, r0, r3
 800b36c:	ea44 4403 	orr.w	r4, r4, r3, lsl #16
 800b370:	fb00 fe0e 	mul.w	lr, r0, lr
 800b374:	45a6      	cmp	lr, r4
 800b376:	d909      	bls.n	800b38c <__udivmoddi4+0x8c>
 800b378:	193c      	adds	r4, r7, r4
 800b37a:	f100 33ff 	add.w	r3, r0, #4294967295	; 0xffffffff
 800b37e:	f080 8105 	bcs.w	800b58c <__udivmoddi4+0x28c>
 800b382:	45a6      	cmp	lr, r4
 800b384:	f240 8102 	bls.w	800b58c <__udivmoddi4+0x28c>
 800b388:	3802      	subs	r0, #2
 800b38a:	443c      	add	r4, r7
 800b38c:	ea40 4006 	orr.w	r0, r0, r6, lsl #16
 800b390:	eba4 040e 	sub.w	r4, r4, lr
 800b394:	2600      	movs	r6, #0
 800b396:	b11d      	cbz	r5, 800b3a0 <__udivmoddi4+0xa0>
 800b398:	40d4      	lsrs	r4, r2
 800b39a:	2300      	movs	r3, #0
 800b39c:	e9c5 4300 	strd	r4, r3, [r5]
 800b3a0:	4631      	mov	r1, r6
 800b3a2:	e8bd 87f0 	ldmia.w	sp!, {r4, r5, r6, r7, r8, r9, sl, pc}
 800b3a6:	b902      	cbnz	r2, 800b3aa <__udivmoddi4+0xaa>
 800b3a8:	deff      	udf	#255	; 0xff
 800b3aa:	fab2 f282 	clz	r2, r2
 800b3ae:	2a00      	cmp	r2, #0
 800b3b0:	d150      	bne.n	800b454 <__udivmoddi4+0x154>
 800b3b2:	1bcb      	subs	r3, r1, r7
 800b3b4:	ea4f 4e17 	mov.w	lr, r7, lsr #16
 800b3b8:	fa1f f887 	uxth.w	r8, r7
 800b3bc:	2601      	movs	r6, #1
 800b3be:	fbb3 fcfe 	udiv	ip, r3, lr
 800b3c2:	0c21      	lsrs	r1, r4, #16
 800b3c4:	fb0e 331c 	mls	r3, lr, ip, r3
 800b3c8:	ea41 4103 	orr.w	r1, r1, r3, lsl #16
 800b3cc:	fb08 f30c 	mul.w	r3, r8, ip
 800b3d0:	428b      	cmp	r3, r1
 800b3d2:	d907      	bls.n	800b3e4 <__udivmoddi4+0xe4>
 800b3d4:	1879      	adds	r1, r7, r1
 800b3d6:	f10c 30ff 	add.w	r0, ip, #4294967295	; 0xffffffff
 800b3da:	d202      	bcs.n	800b3e2 <__udivmoddi4+0xe2>
 800b3dc:	428b      	cmp	r3, r1
 800b3de:	f200 80e9 	bhi.w	800b5b4 <__udivmoddi4+0x2b4>
 800b3e2:	4684      	mov	ip, r0
 800b3e4:	1ac9      	subs	r1, r1, r3
 800b3e6:	b2a3      	uxth	r3, r4
 800b3e8:	fbb1 f0fe 	udiv	r0, r1, lr
 800b3ec:	fb0e 1110 	mls	r1, lr, r0, r1
 800b3f0:	ea43 4401 	orr.w	r4, r3, r1, lsl #16
 800b3f4:	fb08 f800 	mul.w	r8, r8, r0
 800b3f8:	45a0      	cmp	r8, r4
 800b3fa:	d907      	bls.n	800b40c <__udivmoddi4+0x10c>
 800b3fc:	193c      	adds	r4, r7, r4
 800b3fe:	f100 33ff 	add.w	r3, r0, #4294967295	; 0xffffffff
 800b402:	d202      	bcs.n	800b40a <__udivmoddi4+0x10a>
 800b404:	45a0      	cmp	r8, r4
 800b406:	f200 80d9 	bhi.w	800b5bc <__udivmoddi4+0x2bc>
 800b40a:	4618      	mov	r0, r3
 800b40c:	eba4 0408 	sub.w	r4, r4, r8
 800b410:	ea40 400c 	orr.w	r0, r0, ip, lsl #16
 800b414:	e7bf      	b.n	800b396 <__udivmoddi4+0x96>
 800b416:	428b      	cmp	r3, r1
 800b418:	d909      	bls.n	800b42e <__udivmoddi4+0x12e>
 800b41a:	2d00      	cmp	r5, #0
 800b41c:	f000 80b1 	beq.w	800b582 <__udivmoddi4+0x282>
 800b420:	2600      	movs	r6, #0
 800b422:	e9c5 0100 	strd	r0, r1, [r5]
 800b426:	4630      	mov	r0, r6
 800b428:	4631      	mov	r1, r6
 800b42a:	e8bd 87f0 	ldmia.w	sp!, {r4, r5, r6, r7, r8, r9, sl, pc}
 800b42e:	fab3 f683 	clz	r6, r3
 800b432:	2e00      	cmp	r6, #0
 800b434:	d14a      	bne.n	800b4cc <__udivmoddi4+0x1cc>
 800b436:	428b      	cmp	r3, r1
 800b438:	d302      	bcc.n	800b440 <__udivmoddi4+0x140>
 800b43a:	4282      	cmp	r2, r0
 800b43c:	f200 80b8 	bhi.w	800b5b0 <__udivmoddi4+0x2b0>
 800b440:	1a84      	subs	r4, r0, r2
 800b442:	eb61 0103 	sbc.w	r1, r1, r3
 800b446:	2001      	movs	r0, #1
 800b448:	468c      	mov	ip, r1
 800b44a:	2d00      	cmp	r5, #0
 800b44c:	d0a8      	beq.n	800b3a0 <__udivmoddi4+0xa0>
 800b44e:	e9c5 4c00 	strd	r4, ip, [r5]
 800b452:	e7a5      	b.n	800b3a0 <__udivmoddi4+0xa0>
 800b454:	f1c2 0320 	rsb	r3, r2, #32
 800b458:	fa20 f603 	lsr.w	r6, r0, r3
 800b45c:	4097      	lsls	r7, r2
 800b45e:	fa01 f002 	lsl.w	r0, r1, r2
 800b462:	ea4f 4e17 	mov.w	lr, r7, lsr #16
 800b466:	40d9      	lsrs	r1, r3
 800b468:	4330      	orrs	r0, r6
 800b46a:	0c03      	lsrs	r3, r0, #16
 800b46c:	fbb1 f6fe 	udiv	r6, r1, lr
 800b470:	fa1f f887 	uxth.w	r8, r7
 800b474:	fb0e 1116 	mls	r1, lr, r6, r1
 800b478:	ea43 4301 	orr.w	r3, r3, r1, lsl #16
 800b47c:	fb06 f108 	mul.w	r1, r6, r8
 800b480:	4299      	cmp	r1, r3
 800b482:	fa04 f402 	lsl.w	r4, r4, r2
 800b486:	d909      	bls.n	800b49c <__udivmoddi4+0x19c>
 800b488:	18fb      	adds	r3, r7, r3
 800b48a:	f106 3cff 	add.w	ip, r6, #4294967295	; 0xffffffff
 800b48e:	f080 808d 	bcs.w	800b5ac <__udivmoddi4+0x2ac>
 800b492:	4299      	cmp	r1, r3
 800b494:	f240 808a 	bls.w	800b5ac <__udivmoddi4+0x2ac>
 800b498:	3e02      	subs	r6, #2
 800b49a:	443b      	add	r3, r7
 800b49c:	1a5b      	subs	r3, r3, r1
 800b49e:	b281      	uxth	r1, r0
 800b4a0:	fbb3 f0fe 	udiv	r0, r3, lr
 800b4a4:	fb0e 3310 	mls	r3, lr, r0, r3
 800b4a8:	ea41 4103 	orr.w	r1, r1, r3, lsl #16
 800b4ac:	fb00 f308 	mul.w	r3, r0, r8
 800b4b0:	428b      	cmp	r3, r1
 800b4b2:	d907      	bls.n	800b4c4 <__udivmoddi4+0x1c4>
 800b4b4:	1879      	adds	r1, r7, r1
 800b4b6:	f100 3cff 	add.w	ip, r0, #4294967295	; 0xffffffff
 800b4ba:	d273      	bcs.n	800b5a4 <__udivmoddi4+0x2a4>
 800b4bc:	428b      	cmp	r3, r1
 800b4be:	d971      	bls.n	800b5a4 <__udivmoddi4+0x2a4>
 800b4c0:	3802      	subs	r0, #2
 800b4c2:	4439      	add	r1, r7
 800b4c4:	1acb      	subs	r3, r1, r3
 800b4c6:	ea40 4606 	orr.w	r6, r0, r6, lsl #16
 800b4ca:	e778      	b.n	800b3be <__udivmoddi4+0xbe>
 800b4cc:	f1c6 0c20 	rsb	ip, r6, #32
 800b4d0:	fa03 f406 	lsl.w	r4, r3, r6
 800b4d4:	fa22 f30c 	lsr.w	r3, r2, ip
 800b4d8:	431c      	orrs	r4, r3
 800b4da:	fa20 f70c 	lsr.w	r7, r0, ip
 800b4de:	fa01 f306 	lsl.w	r3, r1, r6
 800b4e2:	ea4f 4e14 	mov.w	lr, r4, lsr #16
 800b4e6:	fa21 f10c 	lsr.w	r1, r1, ip
 800b4ea:	431f      	orrs	r7, r3
 800b4ec:	0c3b      	lsrs	r3, r7, #16
 800b4ee:	fbb1 f9fe 	udiv	r9, r1, lr
 800b4f2:	fa1f f884 	uxth.w	r8, r4
 800b4f6:	fb0e 1119 	mls	r1, lr, r9, r1
 800b4fa:	ea43 4101 	orr.w	r1, r3, r1, lsl #16
 800b4fe:	fb09 fa08 	mul.w	sl, r9, r8
 800b502:	458a      	cmp	sl, r1
 800b504:	fa02 f206 	lsl.w	r2, r2, r6
 800b508:	fa00 f306 	lsl.w	r3, r0, r6
 800b50c:	d908      	bls.n	800b520 <__udivmoddi4+0x220>
 800b50e:	1861      	adds	r1, r4, r1
 800b510:	f109 30ff 	add.w	r0, r9, #4294967295	; 0xffffffff
 800b514:	d248      	bcs.n	800b5a8 <__udivmoddi4+0x2a8>
 800b516:	458a      	cmp	sl, r1
 800b518:	d946      	bls.n	800b5a8 <__udivmoddi4+0x2a8>
 800b51a:	f1a9 0902 	sub.w	r9, r9, #2
 800b51e:	4421      	add	r1, r4
 800b520:	eba1 010a 	sub.w	r1, r1, sl
 800b524:	b2bf      	uxth	r7, r7
 800b526:	fbb1 f0fe 	udiv	r0, r1, lr
 800b52a:	fb0e 1110 	mls	r1, lr, r0, r1
 800b52e:	ea47 4701 	orr.w	r7, r7, r1, lsl #16
 800b532:	fb00 f808 	mul.w	r8, r0, r8
 800b536:	45b8      	cmp	r8, r7
 800b538:	d907      	bls.n	800b54a <__udivmoddi4+0x24a>
 800b53a:	19e7      	adds	r7, r4, r7
 800b53c:	f100 31ff 	add.w	r1, r0, #4294967295	; 0xffffffff
 800b540:	d22e      	bcs.n	800b5a0 <__udivmoddi4+0x2a0>
 800b542:	45b8      	cmp	r8, r7
 800b544:	d92c      	bls.n	800b5a0 <__udivmoddi4+0x2a0>
 800b546:	3802      	subs	r0, #2
 800b548:	4427      	add	r7, r4
 800b54a:	ea40 4009 	orr.w	r0, r0, r9, lsl #16
 800b54e:	eba7 0708 	sub.w	r7, r7, r8
 800b552:	fba0 8902 	umull	r8, r9, r0, r2
 800b556:	454f      	cmp	r7, r9
 800b558:	46c6      	mov	lr, r8
 800b55a:	4649      	mov	r1, r9
 800b55c:	d31a      	bcc.n	800b594 <__udivmoddi4+0x294>
 800b55e:	d017      	beq.n	800b590 <__udivmoddi4+0x290>
 800b560:	b15d      	cbz	r5, 800b57a <__udivmoddi4+0x27a>
 800b562:	ebb3 020e 	subs.w	r2, r3, lr
 800b566:	eb67 0701 	sbc.w	r7, r7, r1
 800b56a:	fa07 fc0c 	lsl.w	ip, r7, ip
 800b56e:	40f2      	lsrs	r2, r6
 800b570:	ea4c 0202 	orr.w	r2, ip, r2
 800b574:	40f7      	lsrs	r7, r6
 800b576:	e9c5 2700 	strd	r2, r7, [r5]
 800b57a:	2600      	movs	r6, #0
 800b57c:	4631      	mov	r1, r6
 800b57e:	e8bd 87f0 	ldmia.w	sp!, {r4, r5, r6, r7, r8, r9, sl, pc}
 800b582:	462e      	mov	r6, r5
 800b584:	4628      	mov	r0, r5
 800b586:	e70b      	b.n	800b3a0 <__udivmoddi4+0xa0>
 800b588:	4606      	mov	r6, r0
 800b58a:	e6e9      	b.n	800b360 <__udivmoddi4+0x60>
 800b58c:	4618      	mov	r0, r3
 800b58e:	e6fd      	b.n	800b38c <__udivmoddi4+0x8c>
 800b590:	4543      	cmp	r3, r8
 800b592:	d2e5      	bcs.n	800b560 <__udivmoddi4+0x260>
 800b594:	ebb8 0e02 	subs.w	lr, r8, r2
 800b598:	eb69 0104 	sbc.w	r1, r9, r4
 800b59c:	3801      	subs	r0, #1
 800b59e:	e7df      	b.n	800b560 <__udivmoddi4+0x260>
 800b5a0:	4608      	mov	r0, r1
 800b5a2:	e7d2      	b.n	800b54a <__udivmoddi4+0x24a>
 800b5a4:	4660      	mov	r0, ip
 800b5a6:	e78d      	b.n	800b4c4 <__udivmoddi4+0x1c4>
 800b5a8:	4681      	mov	r9, r0
 800b5aa:	e7b9      	b.n	800b520 <__udivmoddi4+0x220>
 800b5ac:	4666      	mov	r6, ip
 800b5ae:	e775      	b.n	800b49c <__udivmoddi4+0x19c>
 800b5b0:	4630      	mov	r0, r6
 800b5b2:	e74a      	b.n	800b44a <__udivmoddi4+0x14a>
 800b5b4:	f1ac 0c02 	sub.w	ip, ip, #2
 800b5b8:	4439      	add	r1, r7
 800b5ba:	e713      	b.n	800b3e4 <__udivmoddi4+0xe4>
 800b5bc:	3802      	subs	r0, #2
 800b5be:	443c      	add	r4, r7
 800b5c0:	e724      	b.n	800b40c <__udivmoddi4+0x10c>
 800b5c2:	bf00      	nop

0800b5c4 <__aeabi_idiv0>:
 800b5c4:	4770      	bx	lr
 800b5c6:	bf00      	nop

0800b5c8 <main>:
 800b5c8:	e92d 4880 	stmdb	sp!, {r7, fp, lr}
 800b5cc:	f640 2aa4 	movw	sl, #2724	; 0xaa4
 800b5d0:	f240 42a0 	movw	r2, #1184	; 0x4a0
 800b5d4:	f644 23a8 	movw	r3, #19112	; 0x4aa8
 800b5d8:	f2c2 0200 	movt	r2, #8192	; 0x2000
 800b5dc:	f2c2 0300 	movt	r3, #8192	; 0x2000
 800b5e0:	f2c2 0a00 	movt	sl, #8192	; 0x2000
 800b5e4:	b0a3      	sub	sp, #140	; 0x8c
 800b5e6:	2400      	movs	r4, #0
 800b5e8:	6014      	str	r4, [r2, #0]
 800b5ea:	601c      	str	r4, [r3, #0]
 800b5ec:	f8ca 4000 	str.w	r4, [sl]
 800b5f0:	f7f5 fd54 	bl	800109c <HAL_Init>
 800b5f4:	f7f4 fe0c 	bl	8000210 <SystemClock_Config>
 800b5f8:	e9cd 441b 	strd	r4, r4, [sp, #108]	; 0x6c
 800b5fc:	e9cd 441d 	strd	r4, r4, [sp, #116]	; 0x74
 800b600:	f44f 5360 	mov.w	r3, #14336	; 0x3800
 800b604:	f2c4 0302 	movt	r3, #16386	; 0x4002
 800b608:	9402      	str	r4, [sp, #8]
 800b60a:	941a      	str	r4, [sp, #104]	; 0x68
 800b60c:	6b1a      	ldr	r2, [r3, #48]	; 0x30
 800b60e:	f042 0204 	orr.w	r2, r2, #4
 800b612:	631a      	str	r2, [r3, #48]	; 0x30
 800b614:	6b1a      	ldr	r2, [r3, #48]	; 0x30
 800b616:	f002 0204 	and.w	r2, r2, #4
 800b61a:	9202      	str	r2, [sp, #8]
 800b61c:	9a02      	ldr	r2, [sp, #8]
 800b61e:	9403      	str	r4, [sp, #12]
 800b620:	6b1a      	ldr	r2, [r3, #48]	; 0x30
 800b622:	f042 0280 	orr.w	r2, r2, #128	; 0x80
 800b626:	631a      	str	r2, [r3, #48]	; 0x30
 800b628:	6b1a      	ldr	r2, [r3, #48]	; 0x30
 800b62a:	f002 0280 	and.w	r2, r2, #128	; 0x80
 800b62e:	9203      	str	r2, [sp, #12]
 800b630:	9a03      	ldr	r2, [sp, #12]
 800b632:	9404      	str	r4, [sp, #16]
 800b634:	6b1a      	ldr	r2, [r3, #48]	; 0x30
 800b636:	f042 0201 	orr.w	r2, r2, #1
 800b63a:	631a      	str	r2, [r3, #48]	; 0x30
 800b63c:	6b1a      	ldr	r2, [r3, #48]	; 0x30
 800b63e:	f002 0201 	and.w	r2, r2, #1
 800b642:	9204      	str	r2, [sp, #16]
 800b644:	9a04      	ldr	r2, [sp, #16]
 800b646:	9405      	str	r4, [sp, #20]
 800b648:	6b1a      	ldr	r2, [r3, #48]	; 0x30
 800b64a:	f042 0202 	orr.w	r2, r2, #2
 800b64e:	631a      	str	r2, [r3, #48]	; 0x30
 800b650:	6b1b      	ldr	r3, [r3, #48]	; 0x30
 800b652:	4620      	mov	r0, r4
 800b654:	f003 0302 	and.w	r3, r3, #2
 800b658:	9305      	str	r3, [sp, #20]
 800b65a:	4622      	mov	r2, r4
 800b65c:	f2c4 0002 	movt	r0, #16386	; 0x4002
 800b660:	f44f 7198 	mov.w	r1, #304	; 0x130
 800b664:	9b05      	ldr	r3, [sp, #20]
 800b666:	f7f6 fdb5 	bl	80021d4 <HAL_GPIO_WritePin>
 800b66a:	f44f 6000 	mov.w	r0, #2048	; 0x800
 800b66e:	f44f 5200 	mov.w	r2, #8192	; 0x2000
 800b672:	f44f 1304 	mov.w	r3, #2162688	; 0x210000
 800b676:	a91a      	add	r1, sp, #104	; 0x68
 800b678:	f2c4 0002 	movt	r0, #16386	; 0x4002
 800b67c:	e9cd 231a 	strd	r2, r3, [sp, #104]	; 0x68
 800b680:	941c      	str	r4, [sp, #112]	; 0x70
 800b682:	f7f6 fbb9 	bl	8001df8 <HAL_GPIO_Init>
 800b686:	4620      	mov	r0, r4
 800b688:	f44f 7298 	mov.w	r2, #304	; 0x130
 800b68c:	2301      	movs	r3, #1
 800b68e:	a91a      	add	r1, sp, #104	; 0x68
 800b690:	f2c4 0002 	movt	r0, #16386	; 0x4002
 800b694:	2600      	movs	r6, #0
 800b696:	2700      	movs	r7, #0
 800b698:	e9cd 231a 	strd	r2, r3, [sp, #104]	; 0x68
 800b69c:	e9cd 671c 	strd	r6, r7, [sp, #112]	; 0x70
 800b6a0:	f7f6 fbaa 	bl	8001df8 <HAL_GPIO_Init>
 800b6a4:	f644 3084 	movw	r0, #19332	; 0x4b84
 800b6a8:	f2c2 0000 	movt	r0, #8192	; 0x2000
 800b6ac:	f44f 4388 	mov.w	r3, #17408	; 0x4400
 800b6b0:	f2c4 0300 	movt	r3, #16384	; 0x4000
 800b6b4:	f44f 31e1 	mov.w	r1, #115200	; 0x1c200
 800b6b8:	220c      	movs	r2, #12
 800b6ba:	6003      	str	r3, [r0, #0]
 800b6bc:	f44f 7380 	mov.w	r3, #256	; 0x100
 800b6c0:	e9c0 4402 	strd	r4, r4, [r0, #8]
 800b6c4:	e9c0 2305 	strd	r2, r3, [r0, #20]
 800b6c8:	6104      	str	r4, [r0, #16]
 800b6ca:	61c4      	str	r4, [r0, #28]
 800b6cc:	6041      	str	r1, [r0, #4]
 800b6ce:	f7fe f859 	bl	8009784 <HAL_UART_Init>
 800b6d2:	b108      	cbz	r0, 800b6d8 <main+0x110>
 800b6d4:	b672      	cpsid	i
 800b6d6:	e7fe      	b.n	800b6d6 <main+0x10e>
 800b6d8:	4604      	mov	r4, r0
 800b6da:	2220      	movs	r2, #32
 800b6dc:	4601      	mov	r1, r0
 800b6de:	f644 25f4 	movw	r5, #19188	; 0x4af4
 800b6e2:	a81a      	add	r0, sp, #104	; 0x68
 800b6e4:	f2c2 0500 	movt	r5, #8192	; 0x2000
 800b6e8:	e9cd 4409 	strd	r4, r4, [sp, #36]	; 0x24
 800b6ec:	e9cd 440d 	strd	r4, r4, [sp, #52]	; 0x34
 800b6f0:	e9cd 440f 	strd	r4, r4, [sp, #60]	; 0x3c
 800b6f4:	e9cd 4413 	strd	r4, r4, [sp, #76]	; 0x4c
 800b6f8:	e9cd 4415 	strd	r4, r4, [sp, #84]	; 0x54
 800b6fc:	e9cd 4417 	strd	r4, r4, [sp, #92]	; 0x5c
 800b700:	9408      	str	r4, [sp, #32]
 800b702:	940c      	str	r4, [sp, #48]	; 0x30
 800b704:	9406      	str	r4, [sp, #24]
 800b706:	9412      	str	r4, [sp, #72]	; 0x48
 800b708:	940b      	str	r4, [sp, #44]	; 0x2c
 800b70a:	9407      	str	r4, [sp, #28]
 800b70c:	f000 fc16 	bl	800bf3c <memset>
 800b710:	2300      	movs	r3, #0
 800b712:	f2c4 0301 	movt	r3, #16385	; 0x4001
 800b716:	f64f 72ff 	movw	r2, #65535	; 0xffff
 800b71a:	4628      	mov	r0, r5
 800b71c:	e9c5 4401 	strd	r4, r4, [r5, #4]
 800b720:	e9c5 4404 	strd	r4, r4, [r5, #16]
 800b724:	61ac      	str	r4, [r5, #24]
 800b726:	602b      	str	r3, [r5, #0]
 800b728:	60ea      	str	r2, [r5, #12]
 800b72a:	f7f8 faa1 	bl	8003c70 <HAL_TIM_Base_Init>
 800b72e:	b108      	cbz	r0, 800b734 <main+0x16c>
 800b730:	b672      	cpsid	i
 800b732:	e7fe      	b.n	800b732 <main+0x16a>
 800b734:	f44f 5880 	mov.w	r8, #4096	; 0x1000
 800b738:	a908      	add	r1, sp, #32
 800b73a:	4628      	mov	r0, r5
 800b73c:	f8cd 8020 	str.w	r8, [sp, #32]
 800b740:	f7fb ffc8 	bl	80076d4 <HAL_TIM_ConfigClockSource>
 800b744:	b108      	cbz	r0, 800b74a <main+0x182>
 800b746:	b672      	cpsid	i
 800b748:	e7fe      	b.n	800b748 <main+0x180>
 800b74a:	4628      	mov	r0, r5
 800b74c:	f7f8 fcaa 	bl	80040a4 <HAL_TIM_OC_Init>
 800b750:	b108      	cbz	r0, 800b756 <main+0x18e>
 800b752:	b672      	cpsid	i
 800b754:	e7fe      	b.n	800b754 <main+0x18c>
 800b756:	2206      	movs	r2, #6
 800b758:	2300      	movs	r3, #0
 800b75a:	a90c      	add	r1, sp, #48	; 0x30
 800b75c:	4628      	mov	r0, r5
 800b75e:	e9cd 230c 	strd	r2, r3, [sp, #48]	; 0x30
 800b762:	f7fc f86f 	bl	8007844 <HAL_TIM_SlaveConfigSynchro>
 800b766:	b108      	cbz	r0, 800b76c <main+0x1a4>
 800b768:	b672      	cpsid	i
 800b76a:	e7fe      	b.n	800b76a <main+0x1a2>
 800b76c:	a906      	add	r1, sp, #24
 800b76e:	4628      	mov	r0, r5
 800b770:	e9cd 6706 	strd	r6, r7, [sp, #24]
 800b774:	f7fd ff52 	bl	800961c <HAL_TIMEx_MasterConfigSynchronization>
 800b778:	b108      	cbz	r0, 800b77e <main+0x1b6>
 800b77a:	b672      	cpsid	i
 800b77c:	e7fe      	b.n	800b77c <main+0x1b4>
 800b77e:	2330      	movs	r3, #48	; 0x30
 800b780:	2400      	movs	r4, #0
 800b782:	9018      	str	r0, [sp, #96]	; 0x60
 800b784:	2208      	movs	r2, #8
 800b786:	a912      	add	r1, sp, #72	; 0x48
 800b788:	4628      	mov	r0, r5
 800b78a:	e9cd 6714 	strd	r6, r7, [sp, #80]	; 0x50
 800b78e:	e9cd 6716 	strd	r6, r7, [sp, #88]	; 0x58
 800b792:	e9cd 3412 	strd	r3, r4, [sp, #72]	; 0x48
 800b796:	f7fb f831 	bl	80067fc <HAL_TIM_OC_ConfigChannel>
 800b79a:	b108      	cbz	r0, 800b7a0 <main+0x1d8>
 800b79c:	b672      	cpsid	i
 800b79e:	e7fe      	b.n	800b79e <main+0x1d6>
 800b7a0:	2200      	movs	r2, #0
 800b7a2:	f44f 5300 	mov.w	r3, #8192	; 0x2000
 800b7a6:	9021      	str	r0, [sp, #132]	; 0x84
 800b7a8:	a91a      	add	r1, sp, #104	; 0x68
 800b7aa:	4628      	mov	r0, r5
 800b7ac:	e9cd 671a 	strd	r6, r7, [sp, #104]	; 0x68
 800b7b0:	e9cd 671c 	strd	r6, r7, [sp, #112]	; 0x70
 800b7b4:	e9cd 231e 	strd	r2, r3, [sp, #120]	; 0x78
 800b7b8:	f7fd ff7c 	bl	80096b4 <HAL_TIMEx_ConfigBreakDeadTime>
 800b7bc:	4604      	mov	r4, r0
 800b7be:	b108      	cbz	r0, 800b7c4 <main+0x1fc>
 800b7c0:	b672      	cpsid	i
 800b7c2:	e7fe      	b.n	800b7c2 <main+0x1fa>
 800b7c4:	f644 363c 	movw	r6, #19260	; 0x4b3c
 800b7c8:	f2c2 0600 	movt	r6, #8192	; 0x2000
 800b7cc:	4628      	mov	r0, r5
 800b7ce:	f7f4 fecb 	bl	8000568 <HAL_TIM_MspPostInit>
 800b7d2:	f04f 4280 	mov.w	r2, #1073741824	; 0x40000000
 800b7d6:	f04f 33ff 	mov.w	r3, #4294967295	; 0xffffffff
 800b7da:	4630      	mov	r0, r6
 800b7dc:	e9cd 440c 	strd	r4, r4, [sp, #48]	; 0x30
 800b7e0:	e9cd 440e 	strd	r4, r4, [sp, #56]	; 0x38
 800b7e4:	e9cd 4412 	strd	r4, r4, [sp, #72]	; 0x48
 800b7e8:	e9cd 4414 	strd	r4, r4, [sp, #80]	; 0x50
 800b7ec:	e9cd 4408 	strd	r4, r4, [sp, #32]
 800b7f0:	e9cd 441a 	strd	r4, r4, [sp, #104]	; 0x68
 800b7f4:	e9cd 441c 	strd	r4, r4, [sp, #112]	; 0x70
 800b7f8:	e9cd 441e 	strd	r4, r4, [sp, #120]	; 0x78
 800b7fc:	e9c6 4401 	strd	r4, r4, [r6, #4]
 800b800:	9416      	str	r4, [sp, #88]	; 0x58
 800b802:	9420      	str	r4, [sp, #128]	; 0x80
 800b804:	6134      	str	r4, [r6, #16]
 800b806:	61b4      	str	r4, [r6, #24]
 800b808:	6032      	str	r2, [r6, #0]
 800b80a:	60f3      	str	r3, [r6, #12]
 800b80c:	f7f8 fa30 	bl	8003c70 <HAL_TIM_Base_Init>
 800b810:	b108      	cbz	r0, 800b816 <main+0x24e>
 800b812:	b672      	cpsid	i
 800b814:	e7fe      	b.n	800b814 <main+0x24c>
 800b816:	4630      	mov	r0, r6
 800b818:	a90c      	add	r1, sp, #48	; 0x30
 800b81a:	f8cd 8030 	str.w	r8, [sp, #48]	; 0x30
 800b81e:	f7fb ff59 	bl	80076d4 <HAL_TIM_ConfigClockSource>
 800b822:	b108      	cbz	r0, 800b828 <main+0x260>
 800b824:	b672      	cpsid	i
 800b826:	e7fe      	b.n	800b826 <main+0x25e>
 800b828:	f644 303c 	movw	r0, #19260	; 0x4b3c
 800b82c:	f2c2 0000 	movt	r0, #8192	; 0x2000
 800b830:	f7f8 fc38 	bl	80040a4 <HAL_TIM_OC_Init>
 800b834:	b108      	cbz	r0, 800b83a <main+0x272>
 800b836:	b672      	cpsid	i
 800b838:	e7fe      	b.n	800b838 <main+0x270>
 800b83a:	f644 303c 	movw	r0, #19260	; 0x4b3c
 800b83e:	f04f 0806 	mov.w	r8, #6
 800b842:	f04f 0900 	mov.w	r9, #0
 800b846:	f2c2 0000 	movt	r0, #8192	; 0x2000
 800b84a:	a912      	add	r1, sp, #72	; 0x48
 800b84c:	e9cd 8912 	strd	r8, r9, [sp, #72]	; 0x48
 800b850:	f7fb fff8 	bl	8007844 <HAL_TIM_SlaveConfigSynchro>
 800b854:	b108      	cbz	r0, 800b85a <main+0x292>
 800b856:	b672      	cpsid	i
 800b858:	e7fe      	b.n	800b858 <main+0x290>
 800b85a:	f644 303c 	movw	r0, #19260	; 0x4b3c
 800b85e:	f2c2 0000 	movt	r0, #8192	; 0x2000
 800b862:	2600      	movs	r6, #0
 800b864:	2700      	movs	r7, #0
 800b866:	a908      	add	r1, sp, #32
 800b868:	e9cd 6708 	strd	r6, r7, [sp, #32]
 800b86c:	f7fd fed6 	bl	800961c <HAL_TIMEx_MasterConfigSynchronization>
 800b870:	4603      	mov	r3, r0
 800b872:	b108      	cbz	r0, 800b878 <main+0x2b0>
 800b874:	b672      	cpsid	i
 800b876:	e7fe      	b.n	800b876 <main+0x2ae>
 800b878:	f644 303c 	movw	r0, #19260	; 0x4b3c
 800b87c:	2430      	movs	r4, #48	; 0x30
 800b87e:	2500      	movs	r5, #0
 800b880:	f2c2 0000 	movt	r0, #8192	; 0x2000
 800b884:	2208      	movs	r2, #8
 800b886:	a91a      	add	r1, sp, #104	; 0x68
 800b888:	e9cd 451a 	strd	r4, r5, [sp, #104]	; 0x68
 800b88c:	931c      	str	r3, [sp, #112]	; 0x70
 800b88e:	931e      	str	r3, [sp, #120]	; 0x78
 800b890:	f7fa ffb4 	bl	80067fc <HAL_TIM_OC_ConfigChannel>
 800b894:	b108      	cbz	r0, 800b89a <main+0x2d2>
 800b896:	b672      	cpsid	i
 800b898:	e7fe      	b.n	800b898 <main+0x2d0>
 800b89a:	9001      	str	r0, [sp, #4]
 800b89c:	f644 303c 	movw	r0, #19260	; 0x4b3c
 800b8a0:	f2c2 0000 	movt	r0, #8192	; 0x2000
 800b8a4:	f640 1bcc 	movw	fp, #2508	; 0x9cc
 800b8a8:	f7f4 fe5e 	bl	8000568 <HAL_TIM_MspPostInit>
 800b8ac:	f2c2 0b00 	movt	fp, #8192	; 0x2000
 800b8b0:	9b01      	ldr	r3, [sp, #4]
 800b8b2:	9316      	str	r3, [sp, #88]	; 0x58
 800b8b4:	f44f 6280 	mov.w	r2, #1024	; 0x400
 800b8b8:	e9cd 330c 	strd	r3, r3, [sp, #48]	; 0x30
 800b8bc:	e9cd 330e 	strd	r3, r3, [sp, #56]	; 0x38
 800b8c0:	e9cd 3312 	strd	r3, r3, [sp, #72]	; 0x48
 800b8c4:	e9cd 3314 	strd	r3, r3, [sp, #80]	; 0x50
 800b8c8:	e9cd 3308 	strd	r3, r3, [sp, #32]
 800b8cc:	e9cd 331a 	strd	r3, r3, [sp, #104]	; 0x68
 800b8d0:	e9cd 331c 	strd	r3, r3, [sp, #112]	; 0x70
 800b8d4:	e9cd 331e 	strd	r3, r3, [sp, #120]	; 0x78
 800b8d8:	e9cb 3301 	strd	r3, r3, [fp, #4]
 800b8dc:	f2c4 0200 	movt	r2, #16384	; 0x4000
 800b8e0:	9320      	str	r3, [sp, #128]	; 0x80
 800b8e2:	f8cb 3010 	str.w	r3, [fp, #16]
 800b8e6:	f8cb 3018 	str.w	r3, [fp, #24]
 800b8ea:	4658      	mov	r0, fp
 800b8ec:	f641 1399 	movw	r3, #6553	; 0x1999
 800b8f0:	f8cb 2000 	str.w	r2, [fp]
 800b8f4:	f8cb 300c 	str.w	r3, [fp, #12]
 800b8f8:	f7f8 f9ba 	bl	8003c70 <HAL_TIM_Base_Init>
 800b8fc:	b108      	cbz	r0, 800b902 <main+0x33a>
 800b8fe:	b672      	cpsid	i
 800b900:	e7fe      	b.n	800b900 <main+0x338>
 800b902:	f44f 5380 	mov.w	r3, #4096	; 0x1000
 800b906:	a90c      	add	r1, sp, #48	; 0x30
 800b908:	4658      	mov	r0, fp
 800b90a:	930c      	str	r3, [sp, #48]	; 0x30
 800b90c:	f7fb fee2 	bl	80076d4 <HAL_TIM_ConfigClockSource>
 800b910:	b108      	cbz	r0, 800b916 <main+0x34e>
 800b912:	b672      	cpsid	i
 800b914:	e7fe      	b.n	800b914 <main+0x34c>
 800b916:	4658      	mov	r0, fp
 800b918:	f7f8 fbc4 	bl	80040a4 <HAL_TIM_OC_Init>
 800b91c:	b108      	cbz	r0, 800b922 <main+0x35a>
 800b91e:	b672      	cpsid	i
 800b920:	e7fe      	b.n	800b920 <main+0x358>
 800b922:	a912      	add	r1, sp, #72	; 0x48
 800b924:	4658      	mov	r0, fp
 800b926:	e9cd 8912 	strd	r8, r9, [sp, #72]	; 0x48
 800b92a:	f7fb ff8b 	bl	8007844 <HAL_TIM_SlaveConfigSynchro>
 800b92e:	b108      	cbz	r0, 800b934 <main+0x36c>
 800b930:	b672      	cpsid	i
 800b932:	e7fe      	b.n	800b932 <main+0x36a>
 800b934:	a908      	add	r1, sp, #32
 800b936:	4658      	mov	r0, fp
 800b938:	e9cd 6708 	strd	r6, r7, [sp, #32]
 800b93c:	f7fd fe6e 	bl	800961c <HAL_TIMEx_MasterConfigSynchronization>
 800b940:	4603      	mov	r3, r0
 800b942:	b108      	cbz	r0, 800b948 <main+0x380>
 800b944:	b672      	cpsid	i
 800b946:	e7fe      	b.n	800b946 <main+0x37e>
 800b948:	4658      	mov	r0, fp
 800b94a:	2204      	movs	r2, #4
 800b94c:	a91a      	add	r1, sp, #104	; 0x68
 800b94e:	e9cd 451a 	strd	r4, r5, [sp, #104]	; 0x68
 800b952:	931c      	str	r3, [sp, #112]	; 0x70
 800b954:	931e      	str	r3, [sp, #120]	; 0x78
 800b956:	f7fa ff51 	bl	80067fc <HAL_TIM_OC_ConfigChannel>
 800b95a:	b108      	cbz	r0, 800b960 <main+0x398>
 800b95c:	b672      	cpsid	i
 800b95e:	e7fe      	b.n	800b95e <main+0x396>
 800b960:	f640 10cc 	movw	r0, #2508	; 0x9cc
 800b964:	f2c2 0000 	movt	r0, #8192	; 0x2000
 800b968:	f240 45ec 	movw	r5, #1260	; 0x4ec
 800b96c:	f7f4 fdfc 	bl	8000568 <HAL_TIM_MspPostInit>
 800b970:	f2c2 0500 	movt	r5, #8192	; 0x2000
 800b974:	f44f 6300 	mov.w	r3, #2048	; 0x800
 800b978:	f2c4 0300 	movt	r3, #16384	; 0x4000
 800b97c:	f64f 72ff 	movw	r2, #65535	; 0xffff
 800b980:	602b      	str	r3, [r5, #0]
 800b982:	4628      	mov	r0, r5
 800b984:	2300      	movs	r3, #0
 800b986:	e9c5 3301 	strd	r3, r3, [r5, #4]
 800b98a:	e9cd 330c 	strd	r3, r3, [sp, #48]	; 0x30
 800b98e:	e9cd 330e 	strd	r3, r3, [sp, #56]	; 0x38
 800b992:	e9cd 3312 	strd	r3, r3, [sp, #72]	; 0x48
 800b996:	e9cd 3314 	strd	r3, r3, [sp, #80]	; 0x50
 800b99a:	e9cd 3308 	strd	r3, r3, [sp, #32]
 800b99e:	e9cd 331a 	strd	r3, r3, [sp, #104]	; 0x68
 800b9a2:	e9cd 331c 	strd	r3, r3, [sp, #112]	; 0x70
 800b9a6:	e9cd 331e 	strd	r3, r3, [sp, #120]	; 0x78
 800b9aa:	60ea      	str	r2, [r5, #12]
 800b9ac:	612b      	str	r3, [r5, #16]
 800b9ae:	61ab      	str	r3, [r5, #24]
 800b9b0:	9316      	str	r3, [sp, #88]	; 0x58
 800b9b2:	9320      	str	r3, [sp, #128]	; 0x80
 800b9b4:	f7f8 f95c 	bl	8003c70 <HAL_TIM_Base_Init>
 800b9b8:	b108      	cbz	r0, 800b9be <main+0x3f6>
 800b9ba:	b672      	cpsid	i
 800b9bc:	e7fe      	b.n	800b9bc <main+0x3f4>
 800b9be:	f44f 5880 	mov.w	r8, #4096	; 0x1000
 800b9c2:	a90c      	add	r1, sp, #48	; 0x30
 800b9c4:	4628      	mov	r0, r5
 800b9c6:	f8cd 8030 	str.w	r8, [sp, #48]	; 0x30
 800b9ca:	f7fb fe83 	bl	80076d4 <HAL_TIM_ConfigClockSource>
 800b9ce:	b108      	cbz	r0, 800b9d4 <main+0x40c>
 800b9d0:	b672      	cpsid	i
 800b9d2:	e7fe      	b.n	800b9d2 <main+0x40a>
 800b9d4:	4628      	mov	r0, r5
 800b9d6:	f7f8 fb65 	bl	80040a4 <HAL_TIM_OC_Init>
 800b9da:	b108      	cbz	r0, 800b9e0 <main+0x418>
 800b9dc:	b672      	cpsid	i
 800b9de:	e7fe      	b.n	800b9de <main+0x416>
 800b9e0:	2606      	movs	r6, #6
 800b9e2:	2700      	movs	r7, #0
 800b9e4:	a912      	add	r1, sp, #72	; 0x48
 800b9e6:	4628      	mov	r0, r5
 800b9e8:	e9cd 6712 	strd	r6, r7, [sp, #72]	; 0x48
 800b9ec:	f7fb ff2a 	bl	8007844 <HAL_TIM_SlaveConfigSynchro>
 800b9f0:	b108      	cbz	r0, 800b9f6 <main+0x42e>
 800b9f2:	b672      	cpsid	i
 800b9f4:	e7fe      	b.n	800b9f4 <main+0x42c>
 800b9f6:	2200      	movs	r2, #0
 800b9f8:	2300      	movs	r3, #0
 800b9fa:	a908      	add	r1, sp, #32
 800b9fc:	4628      	mov	r0, r5
 800b9fe:	e9cd 2308 	strd	r2, r3, [sp, #32]
 800ba02:	f7fd fe0b 	bl	800961c <HAL_TIMEx_MasterConfigSynchronization>
 800ba06:	b108      	cbz	r0, 800ba0c <main+0x444>
 800ba08:	b672      	cpsid	i
 800ba0a:	e7fe      	b.n	800ba0a <main+0x442>
 800ba0c:	4602      	mov	r2, r0
 800ba0e:	2330      	movs	r3, #48	; 0x30
 800ba10:	2400      	movs	r4, #0
 800ba12:	901c      	str	r0, [sp, #112]	; 0x70
 800ba14:	901e      	str	r0, [sp, #120]	; 0x78
 800ba16:	a91a      	add	r1, sp, #104	; 0x68
 800ba18:	4628      	mov	r0, r5
 800ba1a:	e9cd 341a 	strd	r3, r4, [sp, #104]	; 0x68
 800ba1e:	f7fa feed 	bl	80067fc <HAL_TIM_OC_ConfigChannel>
 800ba22:	4604      	mov	r4, r0
 800ba24:	b108      	cbz	r0, 800ba2a <main+0x462>
 800ba26:	b672      	cpsid	i
 800ba28:	e7fe      	b.n	800ba28 <main+0x460>
 800ba2a:	4628      	mov	r0, r5
 800ba2c:	f640 1584 	movw	r5, #2436	; 0x984
 800ba30:	f7f4 fd9a 	bl	8000568 <HAL_TIM_MspPostInit>
 800ba34:	f2c2 0500 	movt	r5, #8192	; 0x2000
 800ba38:	f44f 6340 	mov.w	r3, #3072	; 0xc00
 800ba3c:	f2c4 0300 	movt	r3, #16384	; 0x4000
 800ba40:	f04f 32ff 	mov.w	r2, #4294967295	; 0xffffffff
 800ba44:	4628      	mov	r0, r5
 800ba46:	e9cd 440c 	strd	r4, r4, [sp, #48]	; 0x30
 800ba4a:	e9cd 440e 	strd	r4, r4, [sp, #56]	; 0x38
 800ba4e:	e9cd 4412 	strd	r4, r4, [sp, #72]	; 0x48
 800ba52:	e9cd 4414 	strd	r4, r4, [sp, #80]	; 0x50
 800ba56:	e9cd 4408 	strd	r4, r4, [sp, #32]
 800ba5a:	e9cd 441a 	strd	r4, r4, [sp, #104]	; 0x68
 800ba5e:	e9cd 441c 	strd	r4, r4, [sp, #112]	; 0x70
 800ba62:	e9cd 441e 	strd	r4, r4, [sp, #120]	; 0x78
 800ba66:	e9c5 4401 	strd	r4, r4, [r5, #4]
 800ba6a:	9416      	str	r4, [sp, #88]	; 0x58
 800ba6c:	9420      	str	r4, [sp, #128]	; 0x80
 800ba6e:	612c      	str	r4, [r5, #16]
 800ba70:	61ac      	str	r4, [r5, #24]
 800ba72:	602b      	str	r3, [r5, #0]
 800ba74:	60ea      	str	r2, [r5, #12]
 800ba76:	f7f8 f8fb 	bl	8003c70 <HAL_TIM_Base_Init>
 800ba7a:	b108      	cbz	r0, 800ba80 <main+0x4b8>
 800ba7c:	b672      	cpsid	i
 800ba7e:	e7fe      	b.n	800ba7e <main+0x4b6>
 800ba80:	a90c      	add	r1, sp, #48	; 0x30
 800ba82:	4628      	mov	r0, r5
 800ba84:	f8cd 8030 	str.w	r8, [sp, #48]	; 0x30
 800ba88:	f7fb fe24 	bl	80076d4 <HAL_TIM_ConfigClockSource>
 800ba8c:	b108      	cbz	r0, 800ba92 <main+0x4ca>
 800ba8e:	b672      	cpsid	i
 800ba90:	e7fe      	b.n	800ba90 <main+0x4c8>
 800ba92:	4628      	mov	r0, r5
 800ba94:	f7f8 fb06 	bl	80040a4 <HAL_TIM_OC_Init>
 800ba98:	b108      	cbz	r0, 800ba9e <main+0x4d6>
 800ba9a:	b672      	cpsid	i
 800ba9c:	e7fe      	b.n	800ba9c <main+0x4d4>
 800ba9e:	4628      	mov	r0, r5
 800baa0:	a912      	add	r1, sp, #72	; 0x48
 800baa2:	e9cd 6712 	strd	r6, r7, [sp, #72]	; 0x48
 800baa6:	f7fb fecd 	bl	8007844 <HAL_TIM_SlaveConfigSynchro>
 800baaa:	b108      	cbz	r0, 800bab0 <main+0x4e8>
 800baac:	b672      	cpsid	i
 800baae:	e7fe      	b.n	800baae <main+0x4e6>
 800bab0:	f640 1084 	movw	r0, #2436	; 0x984
 800bab4:	f2c2 0000 	movt	r0, #8192	; 0x2000
 800bab8:	2400      	movs	r4, #0
 800baba:	2500      	movs	r5, #0
 800babc:	a908      	add	r1, sp, #32
 800babe:	e9cd 4508 	strd	r4, r5, [sp, #32]
 800bac2:	f7fd fdab 	bl	800961c <HAL_TIMEx_MasterConfigSynchronization>
 800bac6:	4602      	mov	r2, r0
 800bac8:	b108      	cbz	r0, 800bace <main+0x506>
 800baca:	b672      	cpsid	i
 800bacc:	e7fe      	b.n	800bacc <main+0x504>
 800bace:	f640 1084 	movw	r0, #2436	; 0x984
 800bad2:	2630      	movs	r6, #48	; 0x30
 800bad4:	f2c2 0000 	movt	r0, #8192	; 0x2000
 800bad8:	a91a      	add	r1, sp, #104	; 0x68
 800bada:	2700      	movs	r7, #0
 800badc:	e9cd 671a 	strd	r6, r7, [sp, #104]	; 0x68
 800bae0:	921c      	str	r2, [sp, #112]	; 0x70
 800bae2:	921e      	str	r2, [sp, #120]	; 0x78
 800bae4:	f7fa fe8a 	bl	80067fc <HAL_TIM_OC_ConfigChannel>
 800bae8:	4606      	mov	r6, r0
 800baea:	b108      	cbz	r0, 800baf0 <main+0x528>
 800baec:	b672      	cpsid	i
 800baee:	e7fe      	b.n	800baee <main+0x526>
 800baf0:	f640 1084 	movw	r0, #2436	; 0x984
 800baf4:	f2c2 0000 	movt	r0, #8192	; 0x2000
 800baf8:	f7f4 fd36 	bl	8000568 <HAL_TIM_MspPostInit>
 800bafc:	f240 48a4 	movw	r8, #1188	; 0x4a4
 800bb00:	2220      	movs	r2, #32
 800bb02:	4631      	mov	r1, r6
 800bb04:	a81a      	add	r0, sp, #104	; 0x68
 800bb06:	f2c2 0800 	movt	r8, #8192	; 0x2000
 800bb0a:	e9cd 6608 	strd	r6, r6, [sp, #32]
 800bb0e:	e9cd 660a 	strd	r6, r6, [sp, #40]	; 0x28
 800bb12:	e9cd 660c 	strd	r6, r6, [sp, #48]	; 0x30
 800bb16:	e9cd 660e 	strd	r6, r6, [sp, #56]	; 0x38
 800bb1a:	e9cd 6606 	strd	r6, r6, [sp, #24]
 800bb1e:	e9cd 6612 	strd	r6, r6, [sp, #72]	; 0x48
 800bb22:	e9cd 6614 	strd	r6, r6, [sp, #80]	; 0x50
 800bb26:	e9cd 6616 	strd	r6, r6, [sp, #88]	; 0x58
 800bb2a:	9610      	str	r6, [sp, #64]	; 0x40
 800bb2c:	9618      	str	r6, [sp, #96]	; 0x60
 800bb2e:	f000 fa05 	bl	800bf3c <memset>
 800bb32:	f44f 6380 	mov.w	r3, #1024	; 0x400
 800bb36:	f2c4 0301 	movt	r3, #16385	; 0x4001
 800bb3a:	f64f 79ff 	movw	r9, #65535	; 0xffff
 800bb3e:	4640      	mov	r0, r8
 800bb40:	e9c8 6601 	strd	r6, r6, [r8, #4]
 800bb44:	e9c8 6604 	strd	r6, r6, [r8, #16]
 800bb48:	f8c8 6018 	str.w	r6, [r8, #24]
 800bb4c:	f8c8 3000 	str.w	r3, [r8]
 800bb50:	f8c8 900c 	str.w	r9, [r8, #12]
 800bb54:	f7f8 f88c 	bl	8003c70 <HAL_TIM_Base_Init>
 800bb58:	b108      	cbz	r0, 800bb5e <main+0x596>
 800bb5a:	b672      	cpsid	i
 800bb5c:	e7fe      	b.n	800bb5c <main+0x594>
 800bb5e:	f44f 5380 	mov.w	r3, #4096	; 0x1000
 800bb62:	a908      	add	r1, sp, #32
 800bb64:	4640      	mov	r0, r8
 800bb66:	9308      	str	r3, [sp, #32]
 800bb68:	f7fb fdb4 	bl	80076d4 <HAL_TIM_ConfigClockSource>
 800bb6c:	b108      	cbz	r0, 800bb72 <main+0x5aa>
 800bb6e:	b672      	cpsid	i
 800bb70:	e7fe      	b.n	800bb70 <main+0x5a8>
 800bb72:	4640      	mov	r0, r8
 800bb74:	f7f8 fa96 	bl	80040a4 <HAL_TIM_OC_Init>
 800bb78:	b108      	cbz	r0, 800bb7e <main+0x5b6>
 800bb7a:	b672      	cpsid	i
 800bb7c:	e7fe      	b.n	800bb7c <main+0x5b4>
 800bb7e:	2206      	movs	r2, #6
 800bb80:	2300      	movs	r3, #0
 800bb82:	a90c      	add	r1, sp, #48	; 0x30
 800bb84:	4640      	mov	r0, r8
 800bb86:	e9cd 230c 	strd	r2, r3, [sp, #48]	; 0x30
 800bb8a:	f7fb fe5b 	bl	8007844 <HAL_TIM_SlaveConfigSynchro>
 800bb8e:	b108      	cbz	r0, 800bb94 <main+0x5cc>
 800bb90:	b672      	cpsid	i
 800bb92:	e7fe      	b.n	800bb92 <main+0x5ca>
 800bb94:	a906      	add	r1, sp, #24
 800bb96:	4640      	mov	r0, r8
 800bb98:	e9cd 4506 	strd	r4, r5, [sp, #24]
 800bb9c:	f7fd fd3e 	bl	800961c <HAL_TIMEx_MasterConfigSynchronization>
 800bba0:	4603      	mov	r3, r0
 800bba2:	b108      	cbz	r0, 800bba8 <main+0x5e0>
 800bba4:	b672      	cpsid	i
 800bba6:	e7fe      	b.n	800bba6 <main+0x5de>
 800bba8:	2630      	movs	r6, #48	; 0x30
 800bbaa:	2700      	movs	r7, #0
 800bbac:	a912      	add	r1, sp, #72	; 0x48
 800bbae:	2204      	movs	r2, #4
 800bbb0:	4640      	mov	r0, r8
 800bbb2:	e9cd 6712 	strd	r6, r7, [sp, #72]	; 0x48
 800bbb6:	e9cd 4514 	strd	r4, r5, [sp, #80]	; 0x50
 800bbba:	e9cd 4516 	strd	r4, r5, [sp, #88]	; 0x58
 800bbbe:	9318      	str	r3, [sp, #96]	; 0x60
 800bbc0:	f7fa fe1c 	bl	80067fc <HAL_TIM_OC_ConfigChannel>
 800bbc4:	b108      	cbz	r0, 800bbca <main+0x602>
 800bbc6:	b672      	cpsid	i
 800bbc8:	e7fe      	b.n	800bbc8 <main+0x600>
 800bbca:	2200      	movs	r2, #0
 800bbcc:	f44f 5300 	mov.w	r3, #8192	; 0x2000
 800bbd0:	9021      	str	r0, [sp, #132]	; 0x84
 800bbd2:	a91a      	add	r1, sp, #104	; 0x68
 800bbd4:	4640      	mov	r0, r8
 800bbd6:	e9cd 451a 	strd	r4, r5, [sp, #104]	; 0x68
 800bbda:	e9cd 451c 	strd	r4, r5, [sp, #112]	; 0x70
 800bbde:	e9cd 231e 	strd	r2, r3, [sp, #120]	; 0x78
 800bbe2:	f7fd fd67 	bl	80096b4 <HAL_TIMEx_ConfigBreakDeadTime>
 800bbe6:	4604      	mov	r4, r0
 800bbe8:	b108      	cbz	r0, 800bbee <main+0x626>
 800bbea:	b672      	cpsid	i
 800bbec:	e7fe      	b.n	800bbec <main+0x624>
 800bbee:	4640      	mov	r0, r8
 800bbf0:	f7f4 fcba 	bl	8000568 <HAL_TIM_MspPostInit>
 800bbf4:	f640 1034 	movw	r0, #2356	; 0x934
 800bbf8:	f2c2 0000 	movt	r0, #8192	; 0x2000
 800bbfc:	f44f 4388 	mov.w	r3, #17408	; 0x4400
 800bc00:	f2c4 0301 	movt	r3, #16385	; 0x4001
 800bc04:	e9cd 441a 	strd	r4, r4, [sp, #104]	; 0x68
 800bc08:	e9cd 441c 	strd	r4, r4, [sp, #112]	; 0x70
 800bc0c:	e9cd 441e 	strd	r4, r4, [sp, #120]	; 0x78
 800bc10:	e9c0 4401 	strd	r4, r4, [r0, #4]
 800bc14:	e9c0 9403 	strd	r9, r4, [r0, #12]
 800bc18:	9420      	str	r4, [sp, #128]	; 0x80
 800bc1a:	6184      	str	r4, [r0, #24]
 800bc1c:	6003      	str	r3, [r0, #0]
 800bc1e:	f7f8 f827 	bl	8003c70 <HAL_TIM_Base_Init>
 800bc22:	b108      	cbz	r0, 800bc28 <main+0x660>
 800bc24:	b672      	cpsid	i
 800bc26:	e7fe      	b.n	800bc26 <main+0x65e>
 800bc28:	f640 1034 	movw	r0, #2356	; 0x934
 800bc2c:	f2c2 0000 	movt	r0, #8192	; 0x2000
 800bc30:	f7f8 fa38 	bl	80040a4 <HAL_TIM_OC_Init>
 800bc34:	4602      	mov	r2, r0
 800bc36:	b108      	cbz	r0, 800bc3c <main+0x674>
 800bc38:	b672      	cpsid	i
 800bc3a:	e7fe      	b.n	800bc3a <main+0x672>
 800bc3c:	f640 1034 	movw	r0, #2356	; 0x934
 800bc40:	f2c2 0000 	movt	r0, #8192	; 0x2000
 800bc44:	2630      	movs	r6, #48	; 0x30
 800bc46:	2700      	movs	r7, #0
 800bc48:	a91a      	add	r1, sp, #104	; 0x68
 800bc4a:	e9cd 671a 	strd	r6, r7, [sp, #104]	; 0x68
 800bc4e:	921c      	str	r2, [sp, #112]	; 0x70
 800bc50:	921e      	str	r2, [sp, #120]	; 0x78
 800bc52:	f7fa fdd3 	bl	80067fc <HAL_TIM_OC_ConfigChannel>
 800bc56:	4604      	mov	r4, r0
 800bc58:	b108      	cbz	r0, 800bc5e <main+0x696>
 800bc5a:	b672      	cpsid	i
 800bc5c:	e7fe      	b.n	800bc5c <main+0x694>
 800bc5e:	f640 1034 	movw	r0, #2356	; 0x934
 800bc62:	f2c2 0000 	movt	r0, #8192	; 0x2000
 800bc66:	f640 285c 	movw	r8, #2652	; 0xa5c
 800bc6a:	f7f4 fc7d 	bl	8000568 <HAL_TIM_MspPostInit>
 800bc6e:	f2c2 0800 	movt	r8, #8192	; 0x2000
 800bc72:	f44f 4390 	mov.w	r3, #18432	; 0x4800
 800bc76:	f2c4 0301 	movt	r3, #16385	; 0x4001
 800bc7a:	f64f 75ff 	movw	r5, #65535	; 0xffff
 800bc7e:	4640      	mov	r0, r8
 800bc80:	e9cd 441a 	strd	r4, r4, [sp, #104]	; 0x68
 800bc84:	e9cd 441c 	strd	r4, r4, [sp, #112]	; 0x70
 800bc88:	e9cd 441e 	strd	r4, r4, [sp, #120]	; 0x78
 800bc8c:	e9c8 4401 	strd	r4, r4, [r8, #4]
 800bc90:	9420      	str	r4, [sp, #128]	; 0x80
 800bc92:	f8c8 4010 	str.w	r4, [r8, #16]
 800bc96:	f8c8 4018 	str.w	r4, [r8, #24]
 800bc9a:	f8c8 3000 	str.w	r3, [r8]
 800bc9e:	f8c8 500c 	str.w	r5, [r8, #12]
 800bca2:	f7f7 ffe5 	bl	8003c70 <HAL_TIM_Base_Init>
 800bca6:	b108      	cbz	r0, 800bcac <main+0x6e4>
 800bca8:	b672      	cpsid	i
 800bcaa:	e7fe      	b.n	800bcaa <main+0x6e2>
 800bcac:	4640      	mov	r0, r8
 800bcae:	f7f8 f9f9 	bl	80040a4 <HAL_TIM_OC_Init>
 800bcb2:	4602      	mov	r2, r0
 800bcb4:	b108      	cbz	r0, 800bcba <main+0x6f2>
 800bcb6:	b672      	cpsid	i
 800bcb8:	e7fe      	b.n	800bcb8 <main+0x6f0>
 800bcba:	a91a      	add	r1, sp, #104	; 0x68
 800bcbc:	4640      	mov	r0, r8
 800bcbe:	e9cd 671a 	strd	r6, r7, [sp, #104]	; 0x68
 800bcc2:	921c      	str	r2, [sp, #112]	; 0x70
 800bcc4:	921e      	str	r2, [sp, #120]	; 0x78
 800bcc6:	f7fa fd99 	bl	80067fc <HAL_TIM_OC_ConfigChannel>
 800bcca:	4604      	mov	r4, r0
 800bccc:	b108      	cbz	r0, 800bcd2 <main+0x70a>
 800bcce:	b672      	cpsid	i
 800bcd0:	e7fe      	b.n	800bcd0 <main+0x708>
 800bcd2:	4640      	mov	r0, r8
 800bcd4:	f640 2814 	movw	r8, #2580	; 0xa14
 800bcd8:	f7f4 fc46 	bl	8000568 <HAL_TIM_MspPostInit>
 800bcdc:	f2c2 0800 	movt	r8, #8192	; 0x2000
 800bce0:	f44f 53e0 	mov.w	r3, #7168	; 0x1c00
 800bce4:	f2c4 0300 	movt	r3, #16384	; 0x4000
 800bce8:	4640      	mov	r0, r8
 800bcea:	e9cd 441a 	strd	r4, r4, [sp, #104]	; 0x68
 800bcee:	e9cd 441c 	strd	r4, r4, [sp, #112]	; 0x70
 800bcf2:	e9cd 441e 	strd	r4, r4, [sp, #120]	; 0x78
 800bcf6:	e9c8 4401 	strd	r4, r4, [r8, #4]
 800bcfa:	e9c8 5403 	strd	r5, r4, [r8, #12]
 800bcfe:	9420      	str	r4, [sp, #128]	; 0x80
 800bd00:	f8c8 4018 	str.w	r4, [r8, #24]
 800bd04:	f8c8 3000 	str.w	r3, [r8]
 800bd08:	f7f7 ffb2 	bl	8003c70 <HAL_TIM_Base_Init>
 800bd0c:	b108      	cbz	r0, 800bd12 <main+0x74a>
 800bd0e:	b672      	cpsid	i
 800bd10:	e7fe      	b.n	800bd10 <main+0x748>
 800bd12:	4640      	mov	r0, r8
 800bd14:	f7f8 f9c6 	bl	80040a4 <HAL_TIM_OC_Init>
 800bd18:	4602      	mov	r2, r0
 800bd1a:	b108      	cbz	r0, 800bd20 <main+0x758>
 800bd1c:	b672      	cpsid	i
 800bd1e:	e7fe      	b.n	800bd1e <main+0x756>
 800bd20:	a91a      	add	r1, sp, #104	; 0x68
 800bd22:	4640      	mov	r0, r8
 800bd24:	e9cd 671a 	strd	r6, r7, [sp, #104]	; 0x68
 800bd28:	921c      	str	r2, [sp, #112]	; 0x70
 800bd2a:	921e      	str	r2, [sp, #120]	; 0x78
 800bd2c:	f7fa fd66 	bl	80067fc <HAL_TIM_OC_ConfigChannel>
 800bd30:	4604      	mov	r4, r0
 800bd32:	b108      	cbz	r0, 800bd38 <main+0x770>
 800bd34:	b672      	cpsid	i
 800bd36:	e7fe      	b.n	800bd36 <main+0x76e>
 800bd38:	4640      	mov	r0, r8
 800bd3a:	f644 36c8 	movw	r6, #19400	; 0x4bc8
 800bd3e:	f7f4 fc13 	bl	8000568 <HAL_TIM_MspPostInit>
 800bd42:	f2c2 0600 	movt	r6, #8192	; 0x2000
 800bd46:	f44f 5300 	mov.w	r3, #8192	; 0x2000
 800bd4a:	f2c4 0300 	movt	r3, #16384	; 0x4000
 800bd4e:	4630      	mov	r0, r6
 800bd50:	e9cd 441a 	strd	r4, r4, [sp, #104]	; 0x68
 800bd54:	e9cd 441c 	strd	r4, r4, [sp, #112]	; 0x70
 800bd58:	e9cd 441e 	strd	r4, r4, [sp, #120]	; 0x78
 800bd5c:	e9c6 4401 	strd	r4, r4, [r6, #4]
 800bd60:	9420      	str	r4, [sp, #128]	; 0x80
 800bd62:	60f5      	str	r5, [r6, #12]
 800bd64:	6134      	str	r4, [r6, #16]
 800bd66:	61b4      	str	r4, [r6, #24]
 800bd68:	6033      	str	r3, [r6, #0]
 800bd6a:	f7f7 ff81 	bl	8003c70 <HAL_TIM_Base_Init>
 800bd6e:	b108      	cbz	r0, 800bd74 <main+0x7ac>
 800bd70:	b672      	cpsid	i
 800bd72:	e7fe      	b.n	800bd72 <main+0x7aa>
 800bd74:	4630      	mov	r0, r6
 800bd76:	f7f8 f995 	bl	80040a4 <HAL_TIM_OC_Init>
 800bd7a:	b108      	cbz	r0, 800bd80 <main+0x7b8>
 800bd7c:	b672      	cpsid	i
 800bd7e:	e7fe      	b.n	800bd7e <main+0x7b6>
 800bd80:	f644 30c8 	movw	r0, #19400	; 0x4bc8
 800bd84:	2200      	movs	r2, #0
 800bd86:	2500      	movs	r5, #0
 800bd88:	f2c2 0000 	movt	r0, #8192	; 0x2000
 800bd8c:	2430      	movs	r4, #48	; 0x30
 800bd8e:	a91a      	add	r1, sp, #104	; 0x68
 800bd90:	e9cd 451a 	strd	r4, r5, [sp, #104]	; 0x68
 800bd94:	921c      	str	r2, [sp, #112]	; 0x70
 800bd96:	921e      	str	r2, [sp, #120]	; 0x78
 800bd98:	f7fa fd30 	bl	80067fc <HAL_TIM_OC_ConfigChannel>
 800bd9c:	4605      	mov	r5, r0
 800bd9e:	b108      	cbz	r0, 800bda4 <main+0x7dc>
 800bda0:	b672      	cpsid	i
 800bda2:	e7fe      	b.n	800bda2 <main+0x7da>
 800bda4:	f644 30c8 	movw	r0, #19400	; 0x4bc8
 800bda8:	f2c2 0000 	movt	r0, #8192	; 0x2000
 800bdac:	f644 24ac 	movw	r4, #19116	; 0x4aac
 800bdb0:	f7f4 fbda 	bl	8000568 <HAL_TIM_MspPostInit>
 800bdb4:	f2c2 0400 	movt	r4, #8192	; 0x2000
 800bdb8:	f44f 5380 	mov.w	r3, #4096	; 0x1000
 800bdbc:	f2c4 0300 	movt	r3, #16384	; 0x4000
 800bdc0:	224f      	movs	r2, #79	; 0x4f
 800bdc2:	4620      	mov	r0, r4
 800bdc4:	e9cd 551a 	strd	r5, r5, [sp, #104]	; 0x68
 800bdc8:	e9c4 5501 	strd	r5, r5, [r4, #4]
 800bdcc:	61a5      	str	r5, [r4, #24]
 800bdce:	6023      	str	r3, [r4, #0]
 800bdd0:	60e2      	str	r2, [r4, #12]
 800bdd2:	f7f7 ff4d 	bl	8003c70 <HAL_TIM_Base_Init>
 800bdd6:	b108      	cbz	r0, 800bddc <main+0x814>
 800bdd8:	b672      	cpsid	i
 800bdda:	e7fe      	b.n	800bdda <main+0x812>
 800bddc:	2200      	movs	r2, #0
 800bdde:	2300      	movs	r3, #0
 800bde0:	a91a      	add	r1, sp, #104	; 0x68
 800bde2:	4620      	mov	r0, r4
 800bde4:	e9cd 231a 	strd	r2, r3, [sp, #104]	; 0x68
 800bde8:	f7fd fc18 	bl	800961c <HAL_TIMEx_MasterConfigSynchronization>
 800bdec:	b108      	cbz	r0, 800bdf2 <main+0x82a>
 800bdee:	b672      	cpsid	i
 800bdf0:	e7fe      	b.n	800bdf0 <main+0x828>
 800bdf2:	f640 107c 	movw	r0, #2428	; 0x97c
 800bdf6:	f2c2 0000 	movt	r0, #8192	; 0x2000
 800bdfa:	f44f 5340 	mov.w	r3, #12288	; 0x3000
 800bdfe:	f2c4 0302 	movt	r3, #16386	; 0x4002
 800be02:	6003      	str	r3, [r0, #0]
 800be04:	f7f5 fbbc 	bl	8001580 <HAL_CRC_Init>
 800be08:	4605      	mov	r5, r0
 800be0a:	b108      	cbz	r0, 800be10 <main+0x848>
 800be0c:	b672      	cpsid	i
 800be0e:	e7fe      	b.n	800be0e <main+0x846>
 800be10:	4602      	mov	r2, r0
 800be12:	4601      	mov	r1, r0
 800be14:	2026      	movs	r0, #38	; 0x26
 800be16:	f7f5 fa43 	bl	80012a0 <HAL_NVIC_SetPriority>
 800be1a:	2026      	movs	r0, #38	; 0x26
 800be1c:	f7f5 fa7a 	bl	8001314 <HAL_NVIC_EnableIRQ>
 800be20:	2001      	movs	r0, #1
 800be22:	f7f4 febd 	bl	8000ba0 <uart_interrupt_toggle>
 800be26:	6823      	ldr	r3, [r4, #0]
 800be28:	681a      	ldr	r2, [r3, #0]
 800be2a:	f042 0201 	orr.w	r2, r2, #1
 800be2e:	601a      	str	r2, [r3, #0]
 800be30:	68da      	ldr	r2, [r3, #12]
 800be32:	f240 048c 	movw	r4, #140	; 0x8c
 800be36:	f042 0201 	orr.w	r2, r2, #1
 800be3a:	f644 4710 	movw	r7, #19472	; 0x4c10
 800be3e:	f64c 0614 	movw	r6, #51220	; 0xc814
 800be42:	60da      	str	r2, [r3, #12]
 800be44:	f2c2 0400 	movt	r4, #8192	; 0x2000
 800be48:	f2c2 0700 	movt	r7, #8192	; 0x2000
 800be4c:	f6c0 0600 	movt	r6, #2048	; 0x800
 800be50:	6823      	ldr	r3, [r4, #0]
 800be52:	b12b      	cbz	r3, 800be60 <main+0x898>
 800be54:	4630      	mov	r0, r6
 800be56:	f7f4 feb3 	bl	8000bc0 <uart_printf>
 800be5a:	6025      	str	r5, [r4, #0]
 800be5c:	f8ca 5000 	str.w	r5, [sl]
 800be60:	7923      	ldrb	r3, [r4, #4]
 800be62:	2b01      	cmp	r3, #1
 800be64:	d1f4      	bne.n	800be50 <main+0x888>
 800be66:	f7f5 f853 	bl	8000f10 <receive_program>
 800be6a:	4603      	mov	r3, r0
 800be6c:	2b00      	cmp	r3, #0
 800be6e:	f64c 0054 	movw	r0, #51284	; 0xc854
 800be72:	f6c0 0000 	movt	r0, #2048	; 0x800
 800be76:	603b      	str	r3, [r7, #0]
 800be78:	da07      	bge.n	800be8a <main+0x8c2>
 800be7a:	f64c 0038 	movw	r0, #51256	; 0xc838
 800be7e:	f6c0 0000 	movt	r0, #2048	; 0x800
 800be82:	f7f4 fe9d 	bl	8000bc0 <uart_printf>
 800be86:	7125      	strb	r5, [r4, #4]
 800be88:	e7e2      	b.n	800be50 <main+0x888>
 800be8a:	f7f4 fe99 	bl	8000bc0 <uart_printf>
 800be8e:	2303      	movs	r3, #3
 800be90:	7123      	strb	r3, [r4, #4]
 800be92:	e7dd      	b.n	800be50 <main+0x888>

0800be94 <Reset_Handler>:
 800be94:	f8df d034 	ldr.w	sp, [pc, #52]	; 800becc <LoopFillZerobss+0x12>
 800be98:	480d      	ldr	r0, [pc, #52]	; (800bed0 <LoopFillZerobss+0x16>)
 800be9a:	490e      	ldr	r1, [pc, #56]	; (800bed4 <LoopFillZerobss+0x1a>)
 800be9c:	4a0e      	ldr	r2, [pc, #56]	; (800bed8 <LoopFillZerobss+0x1e>)
 800be9e:	2300      	movs	r3, #0
 800bea0:	e002      	b.n	800bea8 <LoopCopyDataInit>

0800bea2 <CopyDataInit>:
 800bea2:	58d4      	ldr	r4, [r2, r3]
 800bea4:	50c4      	str	r4, [r0, r3]
 800bea6:	3304      	adds	r3, #4

0800bea8 <LoopCopyDataInit>:
 800bea8:	18c4      	adds	r4, r0, r3
 800beaa:	428c      	cmp	r4, r1
 800beac:	d3f9      	bcc.n	800bea2 <CopyDataInit>
 800beae:	4a0b      	ldr	r2, [pc, #44]	; (800bedc <LoopFillZerobss+0x22>)
 800beb0:	4c0b      	ldr	r4, [pc, #44]	; (800bee0 <LoopFillZerobss+0x26>)
 800beb2:	2300      	movs	r3, #0
 800beb4:	e001      	b.n	800beba <LoopFillZerobss>

0800beb6 <FillZerobss>:
 800beb6:	6013      	str	r3, [r2, #0]
 800beb8:	3204      	adds	r2, #4

0800beba <LoopFillZerobss>:
 800beba:	42a2      	cmp	r2, r4
 800bebc:	d3fb      	bcc.n	800beb6 <FillZerobss>
 800bebe:	f7f4 fe13 	bl	8000ae8 <SystemInit>
 800bec2:	f000 f817 	bl	800bef4 <__libc_init_array>
 800bec6:	f7ff fb7f 	bl	800b5c8 <main>
 800beca:	4770      	bx	lr
 800becc:	20020000 	.word	0x20020000
 800bed0:	20000000 	.word	0x20000000
 800bed4:	20000070 	.word	0x20000070
 800bed8:	0800c934 	.word	0x0800c934
 800bedc:	20000070 	.word	0x20000070
 800bee0:	20004c2c 	.word	0x20004c2c

0800bee4 <ADC_IRQHandler>:
 800bee4:	e7fe      	b.n	800bee4 <ADC_IRQHandler>
	...

0800bee8 <__errno>:
 800bee8:	4b01      	ldr	r3, [pc, #4]	; (800bef0 <__errno+0x8>)
 800beea:	6818      	ldr	r0, [r3, #0]
 800beec:	4770      	bx	lr
 800beee:	bf00      	nop
 800bef0:	2000000c 	.word	0x2000000c

0800bef4 <__libc_init_array>:
 800bef4:	b570      	push	{r4, r5, r6, lr}
 800bef6:	4d0d      	ldr	r5, [pc, #52]	; (800bf2c <__libc_init_array+0x38>)
 800bef8:	4c0d      	ldr	r4, [pc, #52]	; (800bf30 <__libc_init_array+0x3c>)
 800befa:	1b64      	subs	r4, r4, r5
 800befc:	10a4      	asrs	r4, r4, #2
 800befe:	2600      	movs	r6, #0
 800bf00:	42a6      	cmp	r6, r4
 800bf02:	d109      	bne.n	800bf18 <__libc_init_array+0x24>
 800bf04:	4d0b      	ldr	r5, [pc, #44]	; (800bf34 <__libc_init_array+0x40>)
 800bf06:	4c0c      	ldr	r4, [pc, #48]	; (800bf38 <__libc_init_array+0x44>)
 800bf08:	f000 fc68 	bl	800c7dc <_init>
 800bf0c:	1b64      	subs	r4, r4, r5
 800bf0e:	10a4      	asrs	r4, r4, #2
 800bf10:	2600      	movs	r6, #0
 800bf12:	42a6      	cmp	r6, r4
 800bf14:	d105      	bne.n	800bf22 <__libc_init_array+0x2e>
 800bf16:	bd70      	pop	{r4, r5, r6, pc}
 800bf18:	f855 3b04 	ldr.w	r3, [r5], #4
 800bf1c:	4798      	blx	r3
 800bf1e:	3601      	adds	r6, #1
 800bf20:	e7ee      	b.n	800bf00 <__libc_init_array+0xc>
 800bf22:	f855 3b04 	ldr.w	r3, [r5], #4
 800bf26:	4798      	blx	r3
 800bf28:	3601      	adds	r6, #1
 800bf2a:	e7f2      	b.n	800bf12 <__libc_init_array+0x1e>
 800bf2c:	0800c92c 	.word	0x0800c92c
 800bf30:	0800c92c 	.word	0x0800c92c
 800bf34:	0800c92c 	.word	0x0800c92c
 800bf38:	0800c930 	.word	0x0800c930

0800bf3c <memset>:
 800bf3c:	4402      	add	r2, r0
 800bf3e:	4603      	mov	r3, r0
 800bf40:	4293      	cmp	r3, r2
 800bf42:	d100      	bne.n	800bf46 <memset+0xa>
 800bf44:	4770      	bx	lr
 800bf46:	f803 1b01 	strb.w	r1, [r3], #1
 800bf4a:	e7f9      	b.n	800bf40 <memset+0x4>

0800bf4c <_vsniprintf_r>:
 800bf4c:	b530      	push	{r4, r5, lr}
 800bf4e:	1e14      	subs	r4, r2, #0
 800bf50:	4605      	mov	r5, r0
 800bf52:	b09b      	sub	sp, #108	; 0x6c
 800bf54:	4618      	mov	r0, r3
 800bf56:	da05      	bge.n	800bf64 <_vsniprintf_r+0x18>
 800bf58:	238b      	movs	r3, #139	; 0x8b
 800bf5a:	602b      	str	r3, [r5, #0]
 800bf5c:	f04f 30ff 	mov.w	r0, #4294967295	; 0xffffffff
 800bf60:	b01b      	add	sp, #108	; 0x6c
 800bf62:	bd30      	pop	{r4, r5, pc}
 800bf64:	f44f 7302 	mov.w	r3, #520	; 0x208
 800bf68:	f8ad 300c 	strh.w	r3, [sp, #12]
 800bf6c:	bf14      	ite	ne
 800bf6e:	f104 33ff 	addne.w	r3, r4, #4294967295	; 0xffffffff
 800bf72:	4623      	moveq	r3, r4
 800bf74:	9302      	str	r3, [sp, #8]
 800bf76:	9305      	str	r3, [sp, #20]
 800bf78:	f64f 73ff 	movw	r3, #65535	; 0xffff
 800bf7c:	9100      	str	r1, [sp, #0]
 800bf7e:	9104      	str	r1, [sp, #16]
 800bf80:	f8ad 300e 	strh.w	r3, [sp, #14]
 800bf84:	4602      	mov	r2, r0
 800bf86:	9b1e      	ldr	r3, [sp, #120]	; 0x78
 800bf88:	4669      	mov	r1, sp
 800bf8a:	4628      	mov	r0, r5
 800bf8c:	f000 f874 	bl	800c078 <_svfiprintf_r>
 800bf90:	1c43      	adds	r3, r0, #1
 800bf92:	bfbc      	itt	lt
 800bf94:	238b      	movlt	r3, #139	; 0x8b
 800bf96:	602b      	strlt	r3, [r5, #0]
 800bf98:	2c00      	cmp	r4, #0
 800bf9a:	d0e1      	beq.n	800bf60 <_vsniprintf_r+0x14>
 800bf9c:	9b00      	ldr	r3, [sp, #0]
 800bf9e:	2200      	movs	r2, #0
 800bfa0:	701a      	strb	r2, [r3, #0]
 800bfa2:	e7dd      	b.n	800bf60 <_vsniprintf_r+0x14>

0800bfa4 <vsniprintf>:
 800bfa4:	b507      	push	{r0, r1, r2, lr}
 800bfa6:	9300      	str	r3, [sp, #0]
 800bfa8:	4613      	mov	r3, r2
 800bfaa:	460a      	mov	r2, r1
 800bfac:	4601      	mov	r1, r0
 800bfae:	4803      	ldr	r0, [pc, #12]	; (800bfbc <vsniprintf+0x18>)
 800bfb0:	6800      	ldr	r0, [r0, #0]
 800bfb2:	f7ff ffcb 	bl	800bf4c <_vsniprintf_r>
 800bfb6:	b003      	add	sp, #12
 800bfb8:	f85d fb04 	ldr.w	pc, [sp], #4
 800bfbc:	2000000c 	.word	0x2000000c

0800bfc0 <__ssputs_r>:
 800bfc0:	e92d 47f0 	stmdb	sp!, {r4, r5, r6, r7, r8, r9, sl, lr}
 800bfc4:	688e      	ldr	r6, [r1, #8]
 800bfc6:	429e      	cmp	r6, r3
 800bfc8:	4682      	mov	sl, r0
 800bfca:	460c      	mov	r4, r1
 800bfcc:	4690      	mov	r8, r2
 800bfce:	461f      	mov	r7, r3
 800bfd0:	d838      	bhi.n	800c044 <__ssputs_r+0x84>
 800bfd2:	898a      	ldrh	r2, [r1, #12]
 800bfd4:	f412 6f90 	tst.w	r2, #1152	; 0x480
 800bfd8:	d032      	beq.n	800c040 <__ssputs_r+0x80>
 800bfda:	6825      	ldr	r5, [r4, #0]
 800bfdc:	6909      	ldr	r1, [r1, #16]
 800bfde:	eba5 0901 	sub.w	r9, r5, r1
 800bfe2:	6965      	ldr	r5, [r4, #20]
 800bfe4:	eb05 0545 	add.w	r5, r5, r5, lsl #1
 800bfe8:	eb05 75d5 	add.w	r5, r5, r5, lsr #31
 800bfec:	3301      	adds	r3, #1
 800bfee:	444b      	add	r3, r9
 800bff0:	106d      	asrs	r5, r5, #1
 800bff2:	429d      	cmp	r5, r3
 800bff4:	bf38      	it	cc
 800bff6:	461d      	movcc	r5, r3
 800bff8:	0553      	lsls	r3, r2, #21
 800bffa:	d531      	bpl.n	800c060 <__ssputs_r+0xa0>
 800bffc:	4629      	mov	r1, r5
 800bffe:	f000 fb47 	bl	800c690 <_malloc_r>
 800c002:	4606      	mov	r6, r0
 800c004:	b950      	cbnz	r0, 800c01c <__ssputs_r+0x5c>
 800c006:	230c      	movs	r3, #12
 800c008:	f8ca 3000 	str.w	r3, [sl]
 800c00c:	89a3      	ldrh	r3, [r4, #12]
 800c00e:	f043 0340 	orr.w	r3, r3, #64	; 0x40
 800c012:	81a3      	strh	r3, [r4, #12]
 800c014:	f04f 30ff 	mov.w	r0, #4294967295	; 0xffffffff
 800c018:	e8bd 87f0 	ldmia.w	sp!, {r4, r5, r6, r7, r8, r9, sl, pc}
 800c01c:	6921      	ldr	r1, [r4, #16]
 800c01e:	464a      	mov	r2, r9
 800c020:	f000 fabe 	bl	800c5a0 <memcpy>
 800c024:	89a3      	ldrh	r3, [r4, #12]
 800c026:	f423 6390 	bic.w	r3, r3, #1152	; 0x480
 800c02a:	f043 0380 	orr.w	r3, r3, #128	; 0x80
 800c02e:	81a3      	strh	r3, [r4, #12]
 800c030:	6126      	str	r6, [r4, #16]
 800c032:	6165      	str	r5, [r4, #20]
 800c034:	444e      	add	r6, r9
 800c036:	eba5 0509 	sub.w	r5, r5, r9
 800c03a:	6026      	str	r6, [r4, #0]
 800c03c:	60a5      	str	r5, [r4, #8]
 800c03e:	463e      	mov	r6, r7
 800c040:	42be      	cmp	r6, r7
 800c042:	d900      	bls.n	800c046 <__ssputs_r+0x86>
 800c044:	463e      	mov	r6, r7
 800c046:	4632      	mov	r2, r6
 800c048:	6820      	ldr	r0, [r4, #0]
 800c04a:	4641      	mov	r1, r8
 800c04c:	f000 fab6 	bl	800c5bc <memmove>
 800c050:	68a3      	ldr	r3, [r4, #8]
 800c052:	6822      	ldr	r2, [r4, #0]
 800c054:	1b9b      	subs	r3, r3, r6
 800c056:	4432      	add	r2, r6
 800c058:	60a3      	str	r3, [r4, #8]
 800c05a:	6022      	str	r2, [r4, #0]
 800c05c:	2000      	movs	r0, #0
 800c05e:	e7db      	b.n	800c018 <__ssputs_r+0x58>
 800c060:	462a      	mov	r2, r5
 800c062:	f000 fb6f 	bl	800c744 <_realloc_r>
 800c066:	4606      	mov	r6, r0
 800c068:	2800      	cmp	r0, #0
 800c06a:	d1e1      	bne.n	800c030 <__ssputs_r+0x70>
 800c06c:	6921      	ldr	r1, [r4, #16]
 800c06e:	4650      	mov	r0, sl
 800c070:	f000 fabe 	bl	800c5f0 <_free_r>
 800c074:	e7c7      	b.n	800c006 <__ssputs_r+0x46>
	...

0800c078 <_svfiprintf_r>:
 800c078:	e92d 4ff0 	stmdb	sp!, {r4, r5, r6, r7, r8, r9, sl, fp, lr}
 800c07c:	4698      	mov	r8, r3
 800c07e:	898b      	ldrh	r3, [r1, #12]
 800c080:	061b      	lsls	r3, r3, #24
 800c082:	b09d      	sub	sp, #116	; 0x74
 800c084:	4607      	mov	r7, r0
 800c086:	460d      	mov	r5, r1
 800c088:	4614      	mov	r4, r2
 800c08a:	d50e      	bpl.n	800c0aa <_svfiprintf_r+0x32>
 800c08c:	690b      	ldr	r3, [r1, #16]
 800c08e:	b963      	cbnz	r3, 800c0aa <_svfiprintf_r+0x32>
 800c090:	2140      	movs	r1, #64	; 0x40
 800c092:	f000 fafd 	bl	800c690 <_malloc_r>
 800c096:	6028      	str	r0, [r5, #0]
 800c098:	6128      	str	r0, [r5, #16]
 800c09a:	b920      	cbnz	r0, 800c0a6 <_svfiprintf_r+0x2e>
 800c09c:	230c      	movs	r3, #12
 800c09e:	603b      	str	r3, [r7, #0]
 800c0a0:	f04f 30ff 	mov.w	r0, #4294967295	; 0xffffffff
 800c0a4:	e0d1      	b.n	800c24a <_svfiprintf_r+0x1d2>
 800c0a6:	2340      	movs	r3, #64	; 0x40
 800c0a8:	616b      	str	r3, [r5, #20]
 800c0aa:	2300      	movs	r3, #0
 800c0ac:	9309      	str	r3, [sp, #36]	; 0x24
 800c0ae:	2320      	movs	r3, #32
 800c0b0:	f88d 3029 	strb.w	r3, [sp, #41]	; 0x29
 800c0b4:	f8cd 800c 	str.w	r8, [sp, #12]
 800c0b8:	2330      	movs	r3, #48	; 0x30
 800c0ba:	f8df 81a8 	ldr.w	r8, [pc, #424]	; 800c264 <_svfiprintf_r+0x1ec>
 800c0be:	f88d 302a 	strb.w	r3, [sp, #42]	; 0x2a
 800c0c2:	f04f 0901 	mov.w	r9, #1
 800c0c6:	4623      	mov	r3, r4
 800c0c8:	469a      	mov	sl, r3
 800c0ca:	f813 2b01 	ldrb.w	r2, [r3], #1
 800c0ce:	b10a      	cbz	r2, 800c0d4 <_svfiprintf_r+0x5c>
 800c0d0:	2a25      	cmp	r2, #37	; 0x25
 800c0d2:	d1f9      	bne.n	800c0c8 <_svfiprintf_r+0x50>
 800c0d4:	ebba 0b04 	subs.w	fp, sl, r4
 800c0d8:	d00b      	beq.n	800c0f2 <_svfiprintf_r+0x7a>
 800c0da:	465b      	mov	r3, fp
 800c0dc:	4622      	mov	r2, r4
 800c0de:	4629      	mov	r1, r5
 800c0e0:	4638      	mov	r0, r7
 800c0e2:	f7ff ff6d 	bl	800bfc0 <__ssputs_r>
 800c0e6:	3001      	adds	r0, #1
 800c0e8:	f000 80aa 	beq.w	800c240 <_svfiprintf_r+0x1c8>
 800c0ec:	9a09      	ldr	r2, [sp, #36]	; 0x24
 800c0ee:	445a      	add	r2, fp
 800c0f0:	9209      	str	r2, [sp, #36]	; 0x24
 800c0f2:	f89a 3000 	ldrb.w	r3, [sl]
 800c0f6:	2b00      	cmp	r3, #0
 800c0f8:	f000 80a2 	beq.w	800c240 <_svfiprintf_r+0x1c8>
 800c0fc:	2300      	movs	r3, #0
 800c0fe:	f04f 32ff 	mov.w	r2, #4294967295	; 0xffffffff
 800c102:	e9cd 2305 	strd	r2, r3, [sp, #20]
 800c106:	f10a 0a01 	add.w	sl, sl, #1
 800c10a:	9304      	str	r3, [sp, #16]
 800c10c:	9307      	str	r3, [sp, #28]
 800c10e:	f88d 3053 	strb.w	r3, [sp, #83]	; 0x53
 800c112:	931a      	str	r3, [sp, #104]	; 0x68
 800c114:	4654      	mov	r4, sl
 800c116:	2205      	movs	r2, #5
 800c118:	f814 1b01 	ldrb.w	r1, [r4], #1
 800c11c:	4851      	ldr	r0, [pc, #324]	; (800c264 <_svfiprintf_r+0x1ec>)
 800c11e:	f7ff f887 	bl	800b230 <memchr>
 800c122:	9a04      	ldr	r2, [sp, #16]
 800c124:	b9d8      	cbnz	r0, 800c15e <_svfiprintf_r+0xe6>
 800c126:	06d0      	lsls	r0, r2, #27
 800c128:	bf44      	itt	mi
 800c12a:	2320      	movmi	r3, #32
 800c12c:	f88d 3053 	strbmi.w	r3, [sp, #83]	; 0x53
 800c130:	0711      	lsls	r1, r2, #28
 800c132:	bf44      	itt	mi
 800c134:	232b      	movmi	r3, #43	; 0x2b
 800c136:	f88d 3053 	strbmi.w	r3, [sp, #83]	; 0x53
 800c13a:	f89a 3000 	ldrb.w	r3, [sl]
 800c13e:	2b2a      	cmp	r3, #42	; 0x2a
 800c140:	d015      	beq.n	800c16e <_svfiprintf_r+0xf6>
 800c142:	9a07      	ldr	r2, [sp, #28]
 800c144:	4654      	mov	r4, sl
 800c146:	2000      	movs	r0, #0
 800c148:	f04f 0c0a 	mov.w	ip, #10
 800c14c:	4621      	mov	r1, r4
 800c14e:	f811 3b01 	ldrb.w	r3, [r1], #1
 800c152:	3b30      	subs	r3, #48	; 0x30
 800c154:	2b09      	cmp	r3, #9
 800c156:	d94e      	bls.n	800c1f6 <_svfiprintf_r+0x17e>
 800c158:	b1b0      	cbz	r0, 800c188 <_svfiprintf_r+0x110>
 800c15a:	9207      	str	r2, [sp, #28]
 800c15c:	e014      	b.n	800c188 <_svfiprintf_r+0x110>
 800c15e:	eba0 0308 	sub.w	r3, r0, r8
 800c162:	fa09 f303 	lsl.w	r3, r9, r3
 800c166:	4313      	orrs	r3, r2
 800c168:	9304      	str	r3, [sp, #16]
 800c16a:	46a2      	mov	sl, r4
 800c16c:	e7d2      	b.n	800c114 <_svfiprintf_r+0x9c>
 800c16e:	9b03      	ldr	r3, [sp, #12]
 800c170:	1d19      	adds	r1, r3, #4
 800c172:	681b      	ldr	r3, [r3, #0]
 800c174:	9103      	str	r1, [sp, #12]
 800c176:	2b00      	cmp	r3, #0
 800c178:	bfbb      	ittet	lt
 800c17a:	425b      	neglt	r3, r3
 800c17c:	f042 0202 	orrlt.w	r2, r2, #2
 800c180:	9307      	strge	r3, [sp, #28]
 800c182:	9307      	strlt	r3, [sp, #28]
 800c184:	bfb8      	it	lt
 800c186:	9204      	strlt	r2, [sp, #16]
 800c188:	7823      	ldrb	r3, [r4, #0]
 800c18a:	2b2e      	cmp	r3, #46	; 0x2e
 800c18c:	d10c      	bne.n	800c1a8 <_svfiprintf_r+0x130>
 800c18e:	7863      	ldrb	r3, [r4, #1]
 800c190:	2b2a      	cmp	r3, #42	; 0x2a
 800c192:	d135      	bne.n	800c200 <_svfiprintf_r+0x188>
 800c194:	9b03      	ldr	r3, [sp, #12]
 800c196:	1d1a      	adds	r2, r3, #4
 800c198:	681b      	ldr	r3, [r3, #0]
 800c19a:	9203      	str	r2, [sp, #12]
 800c19c:	2b00      	cmp	r3, #0
 800c19e:	bfb8      	it	lt
 800c1a0:	f04f 33ff 	movlt.w	r3, #4294967295	; 0xffffffff
 800c1a4:	3402      	adds	r4, #2
 800c1a6:	9305      	str	r3, [sp, #20]
 800c1a8:	f8df a0c8 	ldr.w	sl, [pc, #200]	; 800c274 <_svfiprintf_r+0x1fc>
 800c1ac:	7821      	ldrb	r1, [r4, #0]
 800c1ae:	2203      	movs	r2, #3
 800c1b0:	4650      	mov	r0, sl
 800c1b2:	f7ff f83d 	bl	800b230 <memchr>
 800c1b6:	b140      	cbz	r0, 800c1ca <_svfiprintf_r+0x152>
 800c1b8:	2340      	movs	r3, #64	; 0x40
 800c1ba:	eba0 000a 	sub.w	r0, r0, sl
 800c1be:	fa03 f000 	lsl.w	r0, r3, r0
 800c1c2:	9b04      	ldr	r3, [sp, #16]
 800c1c4:	4303      	orrs	r3, r0
 800c1c6:	3401      	adds	r4, #1
 800c1c8:	9304      	str	r3, [sp, #16]
 800c1ca:	f814 1b01 	ldrb.w	r1, [r4], #1
 800c1ce:	4826      	ldr	r0, [pc, #152]	; (800c268 <_svfiprintf_r+0x1f0>)
 800c1d0:	f88d 1028 	strb.w	r1, [sp, #40]	; 0x28
 800c1d4:	2206      	movs	r2, #6
 800c1d6:	f7ff f82b 	bl	800b230 <memchr>
 800c1da:	2800      	cmp	r0, #0
 800c1dc:	d038      	beq.n	800c250 <_svfiprintf_r+0x1d8>
 800c1de:	4b23      	ldr	r3, [pc, #140]	; (800c26c <_svfiprintf_r+0x1f4>)
 800c1e0:	bb1b      	cbnz	r3, 800c22a <_svfiprintf_r+0x1b2>
 800c1e2:	9b03      	ldr	r3, [sp, #12]
 800c1e4:	3307      	adds	r3, #7
 800c1e6:	f023 0307 	bic.w	r3, r3, #7
 800c1ea:	3308      	adds	r3, #8
 800c1ec:	9303      	str	r3, [sp, #12]
 800c1ee:	9b09      	ldr	r3, [sp, #36]	; 0x24
 800c1f0:	4433      	add	r3, r6
 800c1f2:	9309      	str	r3, [sp, #36]	; 0x24
 800c1f4:	e767      	b.n	800c0c6 <_svfiprintf_r+0x4e>
 800c1f6:	fb0c 3202 	mla	r2, ip, r2, r3
 800c1fa:	460c      	mov	r4, r1
 800c1fc:	2001      	movs	r0, #1
 800c1fe:	e7a5      	b.n	800c14c <_svfiprintf_r+0xd4>
 800c200:	2300      	movs	r3, #0
 800c202:	3401      	adds	r4, #1
 800c204:	9305      	str	r3, [sp, #20]
 800c206:	4619      	mov	r1, r3
 800c208:	f04f 0c0a 	mov.w	ip, #10
 800c20c:	4620      	mov	r0, r4
 800c20e:	f810 2b01 	ldrb.w	r2, [r0], #1
 800c212:	3a30      	subs	r2, #48	; 0x30
 800c214:	2a09      	cmp	r2, #9
 800c216:	d903      	bls.n	800c220 <_svfiprintf_r+0x1a8>
 800c218:	2b00      	cmp	r3, #0
 800c21a:	d0c5      	beq.n	800c1a8 <_svfiprintf_r+0x130>
 800c21c:	9105      	str	r1, [sp, #20]
 800c21e:	e7c3      	b.n	800c1a8 <_svfiprintf_r+0x130>
 800c220:	fb0c 2101 	mla	r1, ip, r1, r2
 800c224:	4604      	mov	r4, r0
 800c226:	2301      	movs	r3, #1
 800c228:	e7f0      	b.n	800c20c <_svfiprintf_r+0x194>
 800c22a:	ab03      	add	r3, sp, #12
 800c22c:	9300      	str	r3, [sp, #0]
 800c22e:	462a      	mov	r2, r5
 800c230:	4b0f      	ldr	r3, [pc, #60]	; (800c270 <_svfiprintf_r+0x1f8>)
 800c232:	a904      	add	r1, sp, #16
 800c234:	4638      	mov	r0, r7
 800c236:	f3af 8000 	nop.w
 800c23a:	1c42      	adds	r2, r0, #1
 800c23c:	4606      	mov	r6, r0
 800c23e:	d1d6      	bne.n	800c1ee <_svfiprintf_r+0x176>
 800c240:	89ab      	ldrh	r3, [r5, #12]
 800c242:	065b      	lsls	r3, r3, #25
 800c244:	f53f af2c 	bmi.w	800c0a0 <_svfiprintf_r+0x28>
 800c248:	9809      	ldr	r0, [sp, #36]	; 0x24
 800c24a:	b01d      	add	sp, #116	; 0x74
 800c24c:	e8bd 8ff0 	ldmia.w	sp!, {r4, r5, r6, r7, r8, r9, sl, fp, pc}
 800c250:	ab03      	add	r3, sp, #12
 800c252:	9300      	str	r3, [sp, #0]
 800c254:	462a      	mov	r2, r5
 800c256:	4b06      	ldr	r3, [pc, #24]	; (800c270 <_svfiprintf_r+0x1f8>)
 800c258:	a904      	add	r1, sp, #16
 800c25a:	4638      	mov	r0, r7
 800c25c:	f000 f87a 	bl	800c354 <_printf_i>
 800c260:	e7eb      	b.n	800c23a <_svfiprintf_r+0x1c2>
 800c262:	bf00      	nop
 800c264:	0800c8f0 	.word	0x0800c8f0
 800c268:	0800c8fa 	.word	0x0800c8fa
 800c26c:	00000000 	.word	0x00000000
 800c270:	0800bfc1 	.word	0x0800bfc1
 800c274:	0800c8f6 	.word	0x0800c8f6

0800c278 <_printf_common>:
 800c278:	e92d 47f0 	stmdb	sp!, {r4, r5, r6, r7, r8, r9, sl, lr}
 800c27c:	4616      	mov	r6, r2
 800c27e:	4699      	mov	r9, r3
 800c280:	688a      	ldr	r2, [r1, #8]
 800c282:	690b      	ldr	r3, [r1, #16]
 800c284:	f8dd 8020 	ldr.w	r8, [sp, #32]
 800c288:	4293      	cmp	r3, r2
 800c28a:	bfb8      	it	lt
 800c28c:	4613      	movlt	r3, r2
 800c28e:	6033      	str	r3, [r6, #0]
 800c290:	f891 2043 	ldrb.w	r2, [r1, #67]	; 0x43
 800c294:	4607      	mov	r7, r0
 800c296:	460c      	mov	r4, r1
 800c298:	b10a      	cbz	r2, 800c29e <_printf_common+0x26>
 800c29a:	3301      	adds	r3, #1
 800c29c:	6033      	str	r3, [r6, #0]
 800c29e:	6823      	ldr	r3, [r4, #0]
 800c2a0:	0699      	lsls	r1, r3, #26
 800c2a2:	bf42      	ittt	mi
 800c2a4:	6833      	ldrmi	r3, [r6, #0]
 800c2a6:	3302      	addmi	r3, #2
 800c2a8:	6033      	strmi	r3, [r6, #0]
 800c2aa:	6825      	ldr	r5, [r4, #0]
 800c2ac:	f015 0506 	ands.w	r5, r5, #6
 800c2b0:	d106      	bne.n	800c2c0 <_printf_common+0x48>
 800c2b2:	f104 0a19 	add.w	sl, r4, #25
 800c2b6:	68e3      	ldr	r3, [r4, #12]
 800c2b8:	6832      	ldr	r2, [r6, #0]
 800c2ba:	1a9b      	subs	r3, r3, r2
 800c2bc:	42ab      	cmp	r3, r5
 800c2be:	dc26      	bgt.n	800c30e <_printf_common+0x96>
 800c2c0:	f894 2043 	ldrb.w	r2, [r4, #67]	; 0x43
 800c2c4:	1e13      	subs	r3, r2, #0
 800c2c6:	6822      	ldr	r2, [r4, #0]
 800c2c8:	bf18      	it	ne
 800c2ca:	2301      	movne	r3, #1
 800c2cc:	0692      	lsls	r2, r2, #26
 800c2ce:	d42b      	bmi.n	800c328 <_printf_common+0xb0>
 800c2d0:	f104 0243 	add.w	r2, r4, #67	; 0x43
 800c2d4:	4649      	mov	r1, r9
 800c2d6:	4638      	mov	r0, r7
 800c2d8:	47c0      	blx	r8
 800c2da:	3001      	adds	r0, #1
 800c2dc:	d01e      	beq.n	800c31c <_printf_common+0xa4>
 800c2de:	6823      	ldr	r3, [r4, #0]
 800c2e0:	68e5      	ldr	r5, [r4, #12]
 800c2e2:	6832      	ldr	r2, [r6, #0]
 800c2e4:	f003 0306 	and.w	r3, r3, #6
 800c2e8:	2b04      	cmp	r3, #4
 800c2ea:	bf08      	it	eq
 800c2ec:	1aad      	subeq	r5, r5, r2
 800c2ee:	68a3      	ldr	r3, [r4, #8]
 800c2f0:	6922      	ldr	r2, [r4, #16]
 800c2f2:	bf0c      	ite	eq
 800c2f4:	ea25 75e5 	biceq.w	r5, r5, r5, asr #31
 800c2f8:	2500      	movne	r5, #0
 800c2fa:	4293      	cmp	r3, r2
 800c2fc:	bfc4      	itt	gt
 800c2fe:	1a9b      	subgt	r3, r3, r2
 800c300:	18ed      	addgt	r5, r5, r3
 800c302:	2600      	movs	r6, #0
 800c304:	341a      	adds	r4, #26
 800c306:	42b5      	cmp	r5, r6
 800c308:	d11a      	bne.n	800c340 <_printf_common+0xc8>
 800c30a:	2000      	movs	r0, #0
 800c30c:	e008      	b.n	800c320 <_printf_common+0xa8>
 800c30e:	2301      	movs	r3, #1
 800c310:	4652      	mov	r2, sl
 800c312:	4649      	mov	r1, r9
 800c314:	4638      	mov	r0, r7
 800c316:	47c0      	blx	r8
 800c318:	3001      	adds	r0, #1
 800c31a:	d103      	bne.n	800c324 <_printf_common+0xac>
 800c31c:	f04f 30ff 	mov.w	r0, #4294967295	; 0xffffffff
 800c320:	e8bd 87f0 	ldmia.w	sp!, {r4, r5, r6, r7, r8, r9, sl, pc}
 800c324:	3501      	adds	r5, #1
 800c326:	e7c6      	b.n	800c2b6 <_printf_common+0x3e>
 800c328:	18e1      	adds	r1, r4, r3
 800c32a:	1c5a      	adds	r2, r3, #1
 800c32c:	2030      	movs	r0, #48	; 0x30
 800c32e:	f881 0043 	strb.w	r0, [r1, #67]	; 0x43
 800c332:	4422      	add	r2, r4
 800c334:	f894 1045 	ldrb.w	r1, [r4, #69]	; 0x45
 800c338:	f882 1043 	strb.w	r1, [r2, #67]	; 0x43
 800c33c:	3302      	adds	r3, #2
 800c33e:	e7c7      	b.n	800c2d0 <_printf_common+0x58>
 800c340:	2301      	movs	r3, #1
 800c342:	4622      	mov	r2, r4
 800c344:	4649      	mov	r1, r9
 800c346:	4638      	mov	r0, r7
 800c348:	47c0      	blx	r8
 800c34a:	3001      	adds	r0, #1
 800c34c:	d0e6      	beq.n	800c31c <_printf_common+0xa4>
 800c34e:	3601      	adds	r6, #1
 800c350:	e7d9      	b.n	800c306 <_printf_common+0x8e>
	...

0800c354 <_printf_i>:
 800c354:	e92d 47ff 	stmdb	sp!, {r0, r1, r2, r3, r4, r5, r6, r7, r8, r9, sl, lr}
 800c358:	460c      	mov	r4, r1
 800c35a:	4691      	mov	r9, r2
 800c35c:	7e27      	ldrb	r7, [r4, #24]
 800c35e:	990c      	ldr	r1, [sp, #48]	; 0x30
 800c360:	2f78      	cmp	r7, #120	; 0x78
 800c362:	4680      	mov	r8, r0
 800c364:	469a      	mov	sl, r3
 800c366:	f104 0243 	add.w	r2, r4, #67	; 0x43
 800c36a:	d807      	bhi.n	800c37c <_printf_i+0x28>
 800c36c:	2f62      	cmp	r7, #98	; 0x62
 800c36e:	d80a      	bhi.n	800c386 <_printf_i+0x32>
 800c370:	2f00      	cmp	r7, #0
 800c372:	f000 80d8 	beq.w	800c526 <_printf_i+0x1d2>
 800c376:	2f58      	cmp	r7, #88	; 0x58
 800c378:	f000 80a3 	beq.w	800c4c2 <_printf_i+0x16e>
 800c37c:	f104 0642 	add.w	r6, r4, #66	; 0x42
 800c380:	f884 7042 	strb.w	r7, [r4, #66]	; 0x42
 800c384:	e03a      	b.n	800c3fc <_printf_i+0xa8>
 800c386:	f1a7 0363 	sub.w	r3, r7, #99	; 0x63
 800c38a:	2b15      	cmp	r3, #21
 800c38c:	d8f6      	bhi.n	800c37c <_printf_i+0x28>
 800c38e:	a001      	add	r0, pc, #4	; (adr r0, 800c394 <_printf_i+0x40>)
 800c390:	f850 f023 	ldr.w	pc, [r0, r3, lsl #2]
 800c394:	0800c3ed 	.word	0x0800c3ed
 800c398:	0800c401 	.word	0x0800c401
 800c39c:	0800c37d 	.word	0x0800c37d
 800c3a0:	0800c37d 	.word	0x0800c37d
 800c3a4:	0800c37d 	.word	0x0800c37d
 800c3a8:	0800c37d 	.word	0x0800c37d
 800c3ac:	0800c401 	.word	0x0800c401
 800c3b0:	0800c37d 	.word	0x0800c37d
 800c3b4:	0800c37d 	.word	0x0800c37d
 800c3b8:	0800c37d 	.word	0x0800c37d
 800c3bc:	0800c37d 	.word	0x0800c37d
 800c3c0:	0800c50d 	.word	0x0800c50d
 800c3c4:	0800c431 	.word	0x0800c431
 800c3c8:	0800c4ef 	.word	0x0800c4ef
 800c3cc:	0800c37d 	.word	0x0800c37d
 800c3d0:	0800c37d 	.word	0x0800c37d
 800c3d4:	0800c52f 	.word	0x0800c52f
 800c3d8:	0800c37d 	.word	0x0800c37d
 800c3dc:	0800c431 	.word	0x0800c431
 800c3e0:	0800c37d 	.word	0x0800c37d
 800c3e4:	0800c37d 	.word	0x0800c37d
 800c3e8:	0800c4f7 	.word	0x0800c4f7
 800c3ec:	680b      	ldr	r3, [r1, #0]
 800c3ee:	1d1a      	adds	r2, r3, #4
 800c3f0:	681b      	ldr	r3, [r3, #0]
 800c3f2:	600a      	str	r2, [r1, #0]
 800c3f4:	f104 0642 	add.w	r6, r4, #66	; 0x42
 800c3f8:	f884 3042 	strb.w	r3, [r4, #66]	; 0x42
 800c3fc:	2301      	movs	r3, #1
 800c3fe:	e0a3      	b.n	800c548 <_printf_i+0x1f4>
 800c400:	6825      	ldr	r5, [r4, #0]
 800c402:	6808      	ldr	r0, [r1, #0]
 800c404:	062e      	lsls	r6, r5, #24
 800c406:	f100 0304 	add.w	r3, r0, #4
 800c40a:	d50a      	bpl.n	800c422 <_printf_i+0xce>
 800c40c:	6805      	ldr	r5, [r0, #0]
 800c40e:	600b      	str	r3, [r1, #0]
 800c410:	2d00      	cmp	r5, #0
 800c412:	da03      	bge.n	800c41c <_printf_i+0xc8>
 800c414:	232d      	movs	r3, #45	; 0x2d
 800c416:	426d      	negs	r5, r5
 800c418:	f884 3043 	strb.w	r3, [r4, #67]	; 0x43
 800c41c:	485e      	ldr	r0, [pc, #376]	; (800c598 <_printf_i+0x244>)
 800c41e:	230a      	movs	r3, #10
 800c420:	e019      	b.n	800c456 <_printf_i+0x102>
 800c422:	f015 0f40 	tst.w	r5, #64	; 0x40
 800c426:	6805      	ldr	r5, [r0, #0]
 800c428:	600b      	str	r3, [r1, #0]
 800c42a:	bf18      	it	ne
 800c42c:	b22d      	sxthne	r5, r5
 800c42e:	e7ef      	b.n	800c410 <_printf_i+0xbc>
 800c430:	680b      	ldr	r3, [r1, #0]
 800c432:	6825      	ldr	r5, [r4, #0]
 800c434:	1d18      	adds	r0, r3, #4
 800c436:	6008      	str	r0, [r1, #0]
 800c438:	0628      	lsls	r0, r5, #24
 800c43a:	d501      	bpl.n	800c440 <_printf_i+0xec>
 800c43c:	681d      	ldr	r5, [r3, #0]
 800c43e:	e002      	b.n	800c446 <_printf_i+0xf2>
 800c440:	0669      	lsls	r1, r5, #25
 800c442:	d5fb      	bpl.n	800c43c <_printf_i+0xe8>
 800c444:	881d      	ldrh	r5, [r3, #0]
 800c446:	4854      	ldr	r0, [pc, #336]	; (800c598 <_printf_i+0x244>)
 800c448:	2f6f      	cmp	r7, #111	; 0x6f
 800c44a:	bf0c      	ite	eq
 800c44c:	2308      	moveq	r3, #8
 800c44e:	230a      	movne	r3, #10
 800c450:	2100      	movs	r1, #0
 800c452:	f884 1043 	strb.w	r1, [r4, #67]	; 0x43
 800c456:	6866      	ldr	r6, [r4, #4]
 800c458:	60a6      	str	r6, [r4, #8]
 800c45a:	2e00      	cmp	r6, #0
 800c45c:	bfa2      	ittt	ge
 800c45e:	6821      	ldrge	r1, [r4, #0]
 800c460:	f021 0104 	bicge.w	r1, r1, #4
 800c464:	6021      	strge	r1, [r4, #0]
 800c466:	b90d      	cbnz	r5, 800c46c <_printf_i+0x118>
 800c468:	2e00      	cmp	r6, #0
 800c46a:	d04d      	beq.n	800c508 <_printf_i+0x1b4>
 800c46c:	4616      	mov	r6, r2
 800c46e:	fbb5 f1f3 	udiv	r1, r5, r3
 800c472:	fb03 5711 	mls	r7, r3, r1, r5
 800c476:	5dc7      	ldrb	r7, [r0, r7]
 800c478:	f806 7d01 	strb.w	r7, [r6, #-1]!
 800c47c:	462f      	mov	r7, r5
 800c47e:	42bb      	cmp	r3, r7
 800c480:	460d      	mov	r5, r1
 800c482:	d9f4      	bls.n	800c46e <_printf_i+0x11a>
 800c484:	2b08      	cmp	r3, #8
 800c486:	d10b      	bne.n	800c4a0 <_printf_i+0x14c>
 800c488:	6823      	ldr	r3, [r4, #0]
 800c48a:	07df      	lsls	r7, r3, #31
 800c48c:	d508      	bpl.n	800c4a0 <_printf_i+0x14c>
 800c48e:	6923      	ldr	r3, [r4, #16]
 800c490:	6861      	ldr	r1, [r4, #4]
 800c492:	4299      	cmp	r1, r3
 800c494:	bfde      	ittt	le
 800c496:	2330      	movle	r3, #48	; 0x30
 800c498:	f806 3c01 	strble.w	r3, [r6, #-1]
 800c49c:	f106 36ff 	addle.w	r6, r6, #4294967295	; 0xffffffff
 800c4a0:	1b92      	subs	r2, r2, r6
 800c4a2:	6122      	str	r2, [r4, #16]
 800c4a4:	f8cd a000 	str.w	sl, [sp]
 800c4a8:	464b      	mov	r3, r9
 800c4aa:	aa03      	add	r2, sp, #12
 800c4ac:	4621      	mov	r1, r4
 800c4ae:	4640      	mov	r0, r8
 800c4b0:	f7ff fee2 	bl	800c278 <_printf_common>
 800c4b4:	3001      	adds	r0, #1
 800c4b6:	d14c      	bne.n	800c552 <_printf_i+0x1fe>
 800c4b8:	f04f 30ff 	mov.w	r0, #4294967295	; 0xffffffff
 800c4bc:	b004      	add	sp, #16
 800c4be:	e8bd 87f0 	ldmia.w	sp!, {r4, r5, r6, r7, r8, r9, sl, pc}
 800c4c2:	4835      	ldr	r0, [pc, #212]	; (800c598 <_printf_i+0x244>)
 800c4c4:	f884 7045 	strb.w	r7, [r4, #69]	; 0x45
 800c4c8:	6823      	ldr	r3, [r4, #0]
 800c4ca:	680e      	ldr	r6, [r1, #0]
 800c4cc:	061f      	lsls	r7, r3, #24
 800c4ce:	f856 5b04 	ldr.w	r5, [r6], #4
 800c4d2:	600e      	str	r6, [r1, #0]
 800c4d4:	d514      	bpl.n	800c500 <_printf_i+0x1ac>
 800c4d6:	07d9      	lsls	r1, r3, #31
 800c4d8:	bf44      	itt	mi
 800c4da:	f043 0320 	orrmi.w	r3, r3, #32
 800c4de:	6023      	strmi	r3, [r4, #0]
 800c4e0:	b91d      	cbnz	r5, 800c4ea <_printf_i+0x196>
 800c4e2:	6823      	ldr	r3, [r4, #0]
 800c4e4:	f023 0320 	bic.w	r3, r3, #32
 800c4e8:	6023      	str	r3, [r4, #0]
 800c4ea:	2310      	movs	r3, #16
 800c4ec:	e7b0      	b.n	800c450 <_printf_i+0xfc>
 800c4ee:	6823      	ldr	r3, [r4, #0]
 800c4f0:	f043 0320 	orr.w	r3, r3, #32
 800c4f4:	6023      	str	r3, [r4, #0]
 800c4f6:	2378      	movs	r3, #120	; 0x78
 800c4f8:	4828      	ldr	r0, [pc, #160]	; (800c59c <_printf_i+0x248>)
 800c4fa:	f884 3045 	strb.w	r3, [r4, #69]	; 0x45
 800c4fe:	e7e3      	b.n	800c4c8 <_printf_i+0x174>
 800c500:	065e      	lsls	r6, r3, #25
 800c502:	bf48      	it	mi
 800c504:	b2ad      	uxthmi	r5, r5
 800c506:	e7e6      	b.n	800c4d6 <_printf_i+0x182>
 800c508:	4616      	mov	r6, r2
 800c50a:	e7bb      	b.n	800c484 <_printf_i+0x130>
 800c50c:	680b      	ldr	r3, [r1, #0]
 800c50e:	6826      	ldr	r6, [r4, #0]
 800c510:	6960      	ldr	r0, [r4, #20]
 800c512:	1d1d      	adds	r5, r3, #4
 800c514:	600d      	str	r5, [r1, #0]
 800c516:	0635      	lsls	r5, r6, #24
 800c518:	681b      	ldr	r3, [r3, #0]
 800c51a:	d501      	bpl.n	800c520 <_printf_i+0x1cc>
 800c51c:	6018      	str	r0, [r3, #0]
 800c51e:	e002      	b.n	800c526 <_printf_i+0x1d2>
 800c520:	0671      	lsls	r1, r6, #25
 800c522:	d5fb      	bpl.n	800c51c <_printf_i+0x1c8>
 800c524:	8018      	strh	r0, [r3, #0]
 800c526:	2300      	movs	r3, #0
 800c528:	6123      	str	r3, [r4, #16]
 800c52a:	4616      	mov	r6, r2
 800c52c:	e7ba      	b.n	800c4a4 <_printf_i+0x150>
 800c52e:	680b      	ldr	r3, [r1, #0]
 800c530:	1d1a      	adds	r2, r3, #4
 800c532:	600a      	str	r2, [r1, #0]
 800c534:	681e      	ldr	r6, [r3, #0]
 800c536:	6862      	ldr	r2, [r4, #4]
 800c538:	2100      	movs	r1, #0
 800c53a:	4630      	mov	r0, r6
 800c53c:	f7fe fe78 	bl	800b230 <memchr>
 800c540:	b108      	cbz	r0, 800c546 <_printf_i+0x1f2>
 800c542:	1b80      	subs	r0, r0, r6
 800c544:	6060      	str	r0, [r4, #4]
 800c546:	6863      	ldr	r3, [r4, #4]
 800c548:	6123      	str	r3, [r4, #16]
 800c54a:	2300      	movs	r3, #0
 800c54c:	f884 3043 	strb.w	r3, [r4, #67]	; 0x43
 800c550:	e7a8      	b.n	800c4a4 <_printf_i+0x150>
 800c552:	6923      	ldr	r3, [r4, #16]
 800c554:	4632      	mov	r2, r6
 800c556:	4649      	mov	r1, r9
 800c558:	4640      	mov	r0, r8
 800c55a:	47d0      	blx	sl
 800c55c:	3001      	adds	r0, #1
 800c55e:	d0ab      	beq.n	800c4b8 <_printf_i+0x164>
 800c560:	6823      	ldr	r3, [r4, #0]
 800c562:	079b      	lsls	r3, r3, #30
 800c564:	d413      	bmi.n	800c58e <_printf_i+0x23a>
 800c566:	68e0      	ldr	r0, [r4, #12]
 800c568:	9b03      	ldr	r3, [sp, #12]
 800c56a:	4298      	cmp	r0, r3
 800c56c:	bfb8      	it	lt
 800c56e:	4618      	movlt	r0, r3
 800c570:	e7a4      	b.n	800c4bc <_printf_i+0x168>
 800c572:	2301      	movs	r3, #1
 800c574:	4632      	mov	r2, r6
 800c576:	4649      	mov	r1, r9
 800c578:	4640      	mov	r0, r8
 800c57a:	47d0      	blx	sl
 800c57c:	3001      	adds	r0, #1
 800c57e:	d09b      	beq.n	800c4b8 <_printf_i+0x164>
 800c580:	3501      	adds	r5, #1
 800c582:	68e3      	ldr	r3, [r4, #12]
 800c584:	9903      	ldr	r1, [sp, #12]
 800c586:	1a5b      	subs	r3, r3, r1
 800c588:	42ab      	cmp	r3, r5
 800c58a:	dcf2      	bgt.n	800c572 <_printf_i+0x21e>
 800c58c:	e7eb      	b.n	800c566 <_printf_i+0x212>
 800c58e:	2500      	movs	r5, #0
 800c590:	f104 0619 	add.w	r6, r4, #25
 800c594:	e7f5      	b.n	800c582 <_printf_i+0x22e>
 800c596:	bf00      	nop
 800c598:	0800c901 	.word	0x0800c901
 800c59c:	0800c912 	.word	0x0800c912

0800c5a0 <memcpy>:
 800c5a0:	440a      	add	r2, r1
 800c5a2:	4291      	cmp	r1, r2
 800c5a4:	f100 33ff 	add.w	r3, r0, #4294967295	; 0xffffffff
 800c5a8:	d100      	bne.n	800c5ac <memcpy+0xc>
 800c5aa:	4770      	bx	lr
 800c5ac:	b510      	push	{r4, lr}
 800c5ae:	f811 4b01 	ldrb.w	r4, [r1], #1
 800c5b2:	f803 4f01 	strb.w	r4, [r3, #1]!
 800c5b6:	4291      	cmp	r1, r2
 800c5b8:	d1f9      	bne.n	800c5ae <memcpy+0xe>
 800c5ba:	bd10      	pop	{r4, pc}

0800c5bc <memmove>:
 800c5bc:	4288      	cmp	r0, r1
 800c5be:	b510      	push	{r4, lr}
 800c5c0:	eb01 0402 	add.w	r4, r1, r2
 800c5c4:	d902      	bls.n	800c5cc <memmove+0x10>
 800c5c6:	4284      	cmp	r4, r0
 800c5c8:	4623      	mov	r3, r4
 800c5ca:	d807      	bhi.n	800c5dc <memmove+0x20>
 800c5cc:	1e43      	subs	r3, r0, #1
 800c5ce:	42a1      	cmp	r1, r4
 800c5d0:	d008      	beq.n	800c5e4 <memmove+0x28>
 800c5d2:	f811 2b01 	ldrb.w	r2, [r1], #1
 800c5d6:	f803 2f01 	strb.w	r2, [r3, #1]!
 800c5da:	e7f8      	b.n	800c5ce <memmove+0x12>
 800c5dc:	4402      	add	r2, r0
 800c5de:	4601      	mov	r1, r0
 800c5e0:	428a      	cmp	r2, r1
 800c5e2:	d100      	bne.n	800c5e6 <memmove+0x2a>
 800c5e4:	bd10      	pop	{r4, pc}
 800c5e6:	f813 4d01 	ldrb.w	r4, [r3, #-1]!
 800c5ea:	f802 4d01 	strb.w	r4, [r2, #-1]!
 800c5ee:	e7f7      	b.n	800c5e0 <memmove+0x24>

0800c5f0 <_free_r>:
 800c5f0:	b537      	push	{r0, r1, r2, r4, r5, lr}
 800c5f2:	2900      	cmp	r1, #0
 800c5f4:	d048      	beq.n	800c688 <_free_r+0x98>
 800c5f6:	f851 3c04 	ldr.w	r3, [r1, #-4]
 800c5fa:	9001      	str	r0, [sp, #4]
 800c5fc:	2b00      	cmp	r3, #0
 800c5fe:	f1a1 0404 	sub.w	r4, r1, #4
 800c602:	bfb8      	it	lt
 800c604:	18e4      	addlt	r4, r4, r3
 800c606:	f000 f8d3 	bl	800c7b0 <__malloc_lock>
 800c60a:	4a20      	ldr	r2, [pc, #128]	; (800c68c <_free_r+0x9c>)
 800c60c:	9801      	ldr	r0, [sp, #4]
 800c60e:	6813      	ldr	r3, [r2, #0]
 800c610:	4615      	mov	r5, r2
 800c612:	b933      	cbnz	r3, 800c622 <_free_r+0x32>
 800c614:	6063      	str	r3, [r4, #4]
 800c616:	6014      	str	r4, [r2, #0]
 800c618:	b003      	add	sp, #12
 800c61a:	e8bd 4030 	ldmia.w	sp!, {r4, r5, lr}
 800c61e:	f000 b8cd 	b.w	800c7bc <__malloc_unlock>
 800c622:	42a3      	cmp	r3, r4
 800c624:	d90b      	bls.n	800c63e <_free_r+0x4e>
 800c626:	6821      	ldr	r1, [r4, #0]
 800c628:	1862      	adds	r2, r4, r1
 800c62a:	4293      	cmp	r3, r2
 800c62c:	bf04      	itt	eq
 800c62e:	681a      	ldreq	r2, [r3, #0]
 800c630:	685b      	ldreq	r3, [r3, #4]
 800c632:	6063      	str	r3, [r4, #4]
 800c634:	bf04      	itt	eq
 800c636:	1852      	addeq	r2, r2, r1
 800c638:	6022      	streq	r2, [r4, #0]
 800c63a:	602c      	str	r4, [r5, #0]
 800c63c:	e7ec      	b.n	800c618 <_free_r+0x28>
 800c63e:	461a      	mov	r2, r3
 800c640:	685b      	ldr	r3, [r3, #4]
 800c642:	b10b      	cbz	r3, 800c648 <_free_r+0x58>
 800c644:	42a3      	cmp	r3, r4
 800c646:	d9fa      	bls.n	800c63e <_free_r+0x4e>
 800c648:	6811      	ldr	r1, [r2, #0]
 800c64a:	1855      	adds	r5, r2, r1
 800c64c:	42a5      	cmp	r5, r4
 800c64e:	d10b      	bne.n	800c668 <_free_r+0x78>
 800c650:	6824      	ldr	r4, [r4, #0]
 800c652:	4421      	add	r1, r4
 800c654:	1854      	adds	r4, r2, r1
 800c656:	42a3      	cmp	r3, r4
 800c658:	6011      	str	r1, [r2, #0]
 800c65a:	d1dd      	bne.n	800c618 <_free_r+0x28>
 800c65c:	681c      	ldr	r4, [r3, #0]
 800c65e:	685b      	ldr	r3, [r3, #4]
 800c660:	6053      	str	r3, [r2, #4]
 800c662:	4421      	add	r1, r4
 800c664:	6011      	str	r1, [r2, #0]
 800c666:	e7d7      	b.n	800c618 <_free_r+0x28>
 800c668:	d902      	bls.n	800c670 <_free_r+0x80>
 800c66a:	230c      	movs	r3, #12
 800c66c:	6003      	str	r3, [r0, #0]
 800c66e:	e7d3      	b.n	800c618 <_free_r+0x28>
 800c670:	6825      	ldr	r5, [r4, #0]
 800c672:	1961      	adds	r1, r4, r5
 800c674:	428b      	cmp	r3, r1
 800c676:	bf04      	itt	eq
 800c678:	6819      	ldreq	r1, [r3, #0]
 800c67a:	685b      	ldreq	r3, [r3, #4]
 800c67c:	6063      	str	r3, [r4, #4]
 800c67e:	bf04      	itt	eq
 800c680:	1949      	addeq	r1, r1, r5
 800c682:	6021      	streq	r1, [r4, #0]
 800c684:	6054      	str	r4, [r2, #4]
 800c686:	e7c7      	b.n	800c618 <_free_r+0x28>
 800c688:	b003      	add	sp, #12
 800c68a:	bd30      	pop	{r4, r5, pc}
 800c68c:	20000098 	.word	0x20000098

0800c690 <_malloc_r>:
 800c690:	b5f8      	push	{r3, r4, r5, r6, r7, lr}
 800c692:	1ccd      	adds	r5, r1, #3
 800c694:	f025 0503 	bic.w	r5, r5, #3
 800c698:	3508      	adds	r5, #8
 800c69a:	2d0c      	cmp	r5, #12
 800c69c:	bf38      	it	cc
 800c69e:	250c      	movcc	r5, #12
 800c6a0:	2d00      	cmp	r5, #0
 800c6a2:	4606      	mov	r6, r0
 800c6a4:	db01      	blt.n	800c6aa <_malloc_r+0x1a>
 800c6a6:	42a9      	cmp	r1, r5
 800c6a8:	d903      	bls.n	800c6b2 <_malloc_r+0x22>
 800c6aa:	230c      	movs	r3, #12
 800c6ac:	6033      	str	r3, [r6, #0]
 800c6ae:	2000      	movs	r0, #0
 800c6b0:	bdf8      	pop	{r3, r4, r5, r6, r7, pc}
 800c6b2:	f000 f87d 	bl	800c7b0 <__malloc_lock>
 800c6b6:	4921      	ldr	r1, [pc, #132]	; (800c73c <_malloc_r+0xac>)
 800c6b8:	680a      	ldr	r2, [r1, #0]
 800c6ba:	4614      	mov	r4, r2
 800c6bc:	b99c      	cbnz	r4, 800c6e6 <_malloc_r+0x56>
 800c6be:	4f20      	ldr	r7, [pc, #128]	; (800c740 <_malloc_r+0xb0>)
 800c6c0:	683b      	ldr	r3, [r7, #0]
 800c6c2:	b923      	cbnz	r3, 800c6ce <_malloc_r+0x3e>
 800c6c4:	4621      	mov	r1, r4
 800c6c6:	4630      	mov	r0, r6
 800c6c8:	f000 f862 	bl	800c790 <_sbrk_r>
 800c6cc:	6038      	str	r0, [r7, #0]
 800c6ce:	4629      	mov	r1, r5
 800c6d0:	4630      	mov	r0, r6
 800c6d2:	f000 f85d 	bl	800c790 <_sbrk_r>
 800c6d6:	1c43      	adds	r3, r0, #1
 800c6d8:	d123      	bne.n	800c722 <_malloc_r+0x92>
 800c6da:	230c      	movs	r3, #12
 800c6dc:	6033      	str	r3, [r6, #0]
 800c6de:	4630      	mov	r0, r6
 800c6e0:	f000 f86c 	bl	800c7bc <__malloc_unlock>
 800c6e4:	e7e3      	b.n	800c6ae <_malloc_r+0x1e>
 800c6e6:	6823      	ldr	r3, [r4, #0]
 800c6e8:	1b5b      	subs	r3, r3, r5
 800c6ea:	d417      	bmi.n	800c71c <_malloc_r+0x8c>
 800c6ec:	2b0b      	cmp	r3, #11
 800c6ee:	d903      	bls.n	800c6f8 <_malloc_r+0x68>
 800c6f0:	6023      	str	r3, [r4, #0]
 800c6f2:	441c      	add	r4, r3
 800c6f4:	6025      	str	r5, [r4, #0]
 800c6f6:	e004      	b.n	800c702 <_malloc_r+0x72>
 800c6f8:	6863      	ldr	r3, [r4, #4]
 800c6fa:	42a2      	cmp	r2, r4
 800c6fc:	bf0c      	ite	eq
 800c6fe:	600b      	streq	r3, [r1, #0]
 800c700:	6053      	strne	r3, [r2, #4]
 800c702:	4630      	mov	r0, r6
 800c704:	f000 f85a 	bl	800c7bc <__malloc_unlock>
 800c708:	f104 000b 	add.w	r0, r4, #11
 800c70c:	1d23      	adds	r3, r4, #4
 800c70e:	f020 0007 	bic.w	r0, r0, #7
 800c712:	1ac2      	subs	r2, r0, r3
 800c714:	d0cc      	beq.n	800c6b0 <_malloc_r+0x20>
 800c716:	1a1b      	subs	r3, r3, r0
 800c718:	50a3      	str	r3, [r4, r2]
 800c71a:	e7c9      	b.n	800c6b0 <_malloc_r+0x20>
 800c71c:	4622      	mov	r2, r4
 800c71e:	6864      	ldr	r4, [r4, #4]
 800c720:	e7cc      	b.n	800c6bc <_malloc_r+0x2c>
 800c722:	1cc4      	adds	r4, r0, #3
 800c724:	f024 0403 	bic.w	r4, r4, #3
 800c728:	42a0      	cmp	r0, r4
 800c72a:	d0e3      	beq.n	800c6f4 <_malloc_r+0x64>
 800c72c:	1a21      	subs	r1, r4, r0
 800c72e:	4630      	mov	r0, r6
 800c730:	f000 f82e 	bl	800c790 <_sbrk_r>
 800c734:	3001      	adds	r0, #1
 800c736:	d1dd      	bne.n	800c6f4 <_malloc_r+0x64>
 800c738:	e7cf      	b.n	800c6da <_malloc_r+0x4a>
 800c73a:	bf00      	nop
 800c73c:	20000098 	.word	0x20000098
 800c740:	2000009c 	.word	0x2000009c

0800c744 <_realloc_r>:
 800c744:	b5f8      	push	{r3, r4, r5, r6, r7, lr}
 800c746:	4607      	mov	r7, r0
 800c748:	4614      	mov	r4, r2
 800c74a:	460e      	mov	r6, r1
 800c74c:	b921      	cbnz	r1, 800c758 <_realloc_r+0x14>
 800c74e:	e8bd 40f8 	ldmia.w	sp!, {r3, r4, r5, r6, r7, lr}
 800c752:	4611      	mov	r1, r2
 800c754:	f7ff bf9c 	b.w	800c690 <_malloc_r>
 800c758:	b922      	cbnz	r2, 800c764 <_realloc_r+0x20>
 800c75a:	f7ff ff49 	bl	800c5f0 <_free_r>
 800c75e:	4625      	mov	r5, r4
 800c760:	4628      	mov	r0, r5
 800c762:	bdf8      	pop	{r3, r4, r5, r6, r7, pc}
 800c764:	f000 f830 	bl	800c7c8 <_malloc_usable_size_r>
 800c768:	42a0      	cmp	r0, r4
 800c76a:	d20f      	bcs.n	800c78c <_realloc_r+0x48>
 800c76c:	4621      	mov	r1, r4
 800c76e:	4638      	mov	r0, r7
 800c770:	f7ff ff8e 	bl	800c690 <_malloc_r>
 800c774:	4605      	mov	r5, r0
 800c776:	2800      	cmp	r0, #0
 800c778:	d0f2      	beq.n	800c760 <_realloc_r+0x1c>
 800c77a:	4631      	mov	r1, r6
 800c77c:	4622      	mov	r2, r4
 800c77e:	f7ff ff0f 	bl	800c5a0 <memcpy>
 800c782:	4631      	mov	r1, r6
 800c784:	4638      	mov	r0, r7
 800c786:	f7ff ff33 	bl	800c5f0 <_free_r>
 800c78a:	e7e9      	b.n	800c760 <_realloc_r+0x1c>
 800c78c:	4635      	mov	r5, r6
 800c78e:	e7e7      	b.n	800c760 <_realloc_r+0x1c>

0800c790 <_sbrk_r>:
 800c790:	b538      	push	{r3, r4, r5, lr}
 800c792:	4d06      	ldr	r5, [pc, #24]	; (800c7ac <_sbrk_r+0x1c>)
 800c794:	2300      	movs	r3, #0
 800c796:	4604      	mov	r4, r0
 800c798:	4608      	mov	r0, r1
 800c79a:	602b      	str	r3, [r5, #0]
 800c79c:	f7f4 f97e 	bl	8000a9c <_sbrk>
 800c7a0:	1c43      	adds	r3, r0, #1
 800c7a2:	d102      	bne.n	800c7aa <_sbrk_r+0x1a>
 800c7a4:	682b      	ldr	r3, [r5, #0]
 800c7a6:	b103      	cbz	r3, 800c7aa <_sbrk_r+0x1a>
 800c7a8:	6023      	str	r3, [r4, #0]
 800c7aa:	bd38      	pop	{r3, r4, r5, pc}
 800c7ac:	20004c1c 	.word	0x20004c1c

0800c7b0 <__malloc_lock>:
 800c7b0:	4801      	ldr	r0, [pc, #4]	; (800c7b8 <__malloc_lock+0x8>)
 800c7b2:	f000 b811 	b.w	800c7d8 <__retarget_lock_acquire_recursive>
 800c7b6:	bf00      	nop
 800c7b8:	20004c24 	.word	0x20004c24

0800c7bc <__malloc_unlock>:
 800c7bc:	4801      	ldr	r0, [pc, #4]	; (800c7c4 <__malloc_unlock+0x8>)
 800c7be:	f000 b80c 	b.w	800c7da <__retarget_lock_release_recursive>
 800c7c2:	bf00      	nop
 800c7c4:	20004c24 	.word	0x20004c24

0800c7c8 <_malloc_usable_size_r>:
 800c7c8:	f851 3c04 	ldr.w	r3, [r1, #-4]
 800c7cc:	1f18      	subs	r0, r3, #4
 800c7ce:	2b00      	cmp	r3, #0
 800c7d0:	bfbc      	itt	lt
 800c7d2:	580b      	ldrlt	r3, [r1, r0]
 800c7d4:	18c0      	addlt	r0, r0, r3
 800c7d6:	4770      	bx	lr

0800c7d8 <__retarget_lock_acquire_recursive>:
 800c7d8:	4770      	bx	lr

0800c7da <__retarget_lock_release_recursive>:
 800c7da:	4770      	bx	lr

0800c7dc <_init>:
 800c7dc:	b5f8      	push	{r3, r4, r5, r6, r7, lr}
 800c7de:	bf00      	nop
 800c7e0:	bcf8      	pop	{r3, r4, r5, r6, r7}
 800c7e2:	bc08      	pop	{r3}
 800c7e4:	469e      	mov	lr, r3
 800c7e6:	4770      	bx	lr

0800c7e8 <_fini>:
 800c7e8:	b5f8      	push	{r3, r4, r5, r6, r7, lr}
 800c7ea:	bf00      	nop
 800c7ec:	bcf8      	pop	{r3, r4, r5, r6, r7}
 800c7ee:	bc08      	pop	{r3}
 800c7f0:	469e      	mov	lr, r3
 800c7f2:	4770      	bx	lr
